SF:/Users/jt/code/threadkit/server/crates/common/src/auth.rs
FN:40,_RNCNvNtCsiekp5I1RHQt_16threadkit_common4auth12create_token0B5_
FN:17,_RNvNtCsiekp5I1RHQt_16threadkit_common4auth12create_token
FN:43,_RNvNtCsiekp5I1RHQt_16threadkit_common4auth12verify_token
FN:53,_RNvNtCsiekp5I1RHQt_16threadkit_common4auth26generate_verification_code
FN:53,_RNvNtCs9dCHYEAjrI1_16threadkit_common4auth26generate_verification_code
FN:40,_RNCNvNtCs9dCHYEAjrI1_16threadkit_common4auth12create_token0B5_
FN:64,_RNvNtNtCs9dCHYEAjrI1_16threadkit_common4auth5testss_20test_token_roundtrip
FN:17,_RNvNtCs9dCHYEAjrI1_16threadkit_common4auth12create_token
FN:43,_RNvNtCs9dCHYEAjrI1_16threadkit_common4auth12verify_token
FNDA:0,_RNCNvNtCsiekp5I1RHQt_16threadkit_common4auth12create_token0B5_
FNDA:82,_RNvNtCsiekp5I1RHQt_16threadkit_common4auth12create_token
FNDA:198,_RNvNtCsiekp5I1RHQt_16threadkit_common4auth12verify_token
FNDA:4,_RNvNtCsiekp5I1RHQt_16threadkit_common4auth26generate_verification_code
FNDA:0,_RNvNtCs9dCHYEAjrI1_16threadkit_common4auth26generate_verification_code
FNDA:0,_RNCNvNtCs9dCHYEAjrI1_16threadkit_common4auth12create_token0B5_
FNDA:1,_RNvNtNtCs9dCHYEAjrI1_16threadkit_common4auth5testss_20test_token_roundtrip
FNDA:1,_RNvNtCs9dCHYEAjrI1_16threadkit_common4auth12create_token
FNDA:1,_RNvNtCs9dCHYEAjrI1_16threadkit_common4auth12verify_token
FNF:5
FNH:4
DA:17,83
DA:18,83
DA:19,83
DA:20,83
DA:21,83
DA:22,83
DA:23,83
DA:24,83
DA:25,83
DA:27,83
DA:28,83
DA:29,83
DA:30,83
DA:31,83
DA:32,83
DA:33,83
DA:35,83
DA:36,83
DA:37,83
DA:38,83
DA:40,83
DA:41,83
DA:43,199
DA:44,199
DA:45,199
DA:46,199
DA:47,199
DA:49,199
DA:50,199
DA:51,199
DA:53,4
DA:55,4
DA:56,4
DA:57,4
DA:64,1
DA:65,1
DA:66,1
DA:67,1
DA:68,1
DA:70,1
DA:71,1
DA:73,1
DA:74,1
DA:75,1
DA:76,1
BRF:0
BRH:0
LF:46
LH:45
end_of_record
SF:/Users/jt/code/threadkit/server/crates/common/src/config.rs
FN:213,_RNCNCNvMs_NtCsiekp5I1RHQt_16threadkit_common6configNtB8_6Config13load_from_envs3_00Ba_
FN:213,_RNCNCNvMs_NtCsiekp5I1RHQt_16threadkit_common6configNtB8_6Config13load_from_envs3_0s_0Ba_
FN:269,_RNCNCNvMs_NtCsiekp5I1RHQt_16threadkit_common6configNtB8_6Config13load_from_envsf_00Ba_
FN:178,_RNCNvMs_NtCsiekp5I1RHQt_16threadkit_common6configNtB6_6Config13load_from_env0B8_
FN:186,_RNCNvMs_NtCsiekp5I1RHQt_16threadkit_common6configNtB6_6Config13load_from_envs0_0B8_
FN:189,_RNCNvMs_NtCsiekp5I1RHQt_16threadkit_common6configNtB6_6Config13load_from_envs1_0B8_
FN:191,_RNCNvMs_NtCsiekp5I1RHQt_16threadkit_common6configNtB6_6Config13load_from_envs2_0B8_
FN:213,_RNCNvMs_NtCsiekp5I1RHQt_16threadkit_common6configNtB6_6Config13load_from_envs3_0B8_
FN:226,_RNCNvMs_NtCsiekp5I1RHQt_16threadkit_common6configNtB6_6Config13load_from_envs4_0B8_
FN:230,_RNCNvMs_NtCsiekp5I1RHQt_16threadkit_common6configNtB6_6Config13load_from_envs5_0B8_
FN:234,_RNCNvMs_NtCsiekp5I1RHQt_16threadkit_common6configNtB6_6Config13load_from_envs6_0B8_
FN:238,_RNCNvMs_NtCsiekp5I1RHQt_16threadkit_common6configNtB6_6Config13load_from_envs7_0B8_
FN:242,_RNCNvMs_NtCsiekp5I1RHQt_16threadkit_common6configNtB6_6Config13load_from_envs8_0B8_
FN:246,_RNCNvMs_NtCsiekp5I1RHQt_16threadkit_common6configNtB6_6Config13load_from_envs9_0B8_
FN:185,_RNCNvMs_NtCsiekp5I1RHQt_16threadkit_common6configNtB6_6Config13load_from_envs_0B8_
FN:250,_RNCNvMs_NtCsiekp5I1RHQt_16threadkit_common6configNtB6_6Config13load_from_envsa_0B8_
FN:254,_RNCNvMs_NtCsiekp5I1RHQt_16threadkit_common6configNtB6_6Config13load_from_envsb_0B8_
FN:258,_RNCNvMs_NtCsiekp5I1RHQt_16threadkit_common6configNtB6_6Config13load_from_envsc_0B8_
FN:262,_RNCNvMs_NtCsiekp5I1RHQt_16threadkit_common6configNtB6_6Config13load_from_envsd_0B8_
FN:266,_RNCNvMs_NtCsiekp5I1RHQt_16threadkit_common6configNtB6_6Config13load_from_envse_0B8_
FN:269,_RNCNvMs_NtCsiekp5I1RHQt_16threadkit_common6configNtB6_6Config13load_from_envsf_0B8_
FN:270,_RNCNvMs_NtCsiekp5I1RHQt_16threadkit_common6configNtB6_6Config13load_from_envsg_0B8_
FN:275,_RNCNvMs_NtCsiekp5I1RHQt_16threadkit_common6configNtB6_6Config13load_from_envsh_0B8_
FN:282,_RNCNvMs_NtCsiekp5I1RHQt_16threadkit_common6configNtB6_6Config13load_from_envsi_0B8_
FN:291,_RNCNvMs_NtCsiekp5I1RHQt_16threadkit_common6configNtB6_6Config13load_from_envsj_0B8_
FN:298,_RNCNvMs_NtCsiekp5I1RHQt_16threadkit_common6configNtB6_6Config13load_from_envsk_0B8_
FN:299,_RNCNvMs_NtCsiekp5I1RHQt_16threadkit_common6configNtB6_6Config13load_from_envsl_0B8_
FN:302,_RNCNvMs_NtCsiekp5I1RHQt_16threadkit_common6configNtB6_6Config13load_from_envsm_0B8_
FN:304,_RNCNvMs_NtCsiekp5I1RHQt_16threadkit_common6configNtB6_6Config13load_from_envsn_0B8_
FN:307,_RNCNvMs_NtCsiekp5I1RHQt_16threadkit_common6configNtB6_6Config13load_from_envso_0B8_
FN:311,_RNCNvMs_NtCsiekp5I1RHQt_16threadkit_common6configNtB6_6Config13load_from_envsp_0B8_
FN:312,_RNCNvMs_NtCsiekp5I1RHQt_16threadkit_common6configNtB6_6Config13load_from_envsq_0B8_
FN:323,_RNCNvMs_NtCsiekp5I1RHQt_16threadkit_common6configNtB6_6Config13load_from_envsr_0B8_
FN:333,_RNCNvMs_NtCsiekp5I1RHQt_16threadkit_common6configNtB6_6Config13load_from_envss_0B8_
FN:336,_RNCNvMs_NtCsiekp5I1RHQt_16threadkit_common6configNtB6_6Config13load_from_envst_0B8_
FN:372,_RNCNvMs_NtCsiekp5I1RHQt_16threadkit_common6configNtB6_6Config14load_s3_config0B8_
FN:358,_RNCNvMs_NtCsiekp5I1RHQt_16threadkit_common6configNtB6_6Config19load_email_provider0B8_
FN:359,_RNCNvMs_NtCsiekp5I1RHQt_16threadkit_common6configNtB6_6Config19load_email_providers_0B8_
FN:393,_RNvMs_NtCsiekp5I1RHQt_16threadkit_common6configNtB4_6Config10standalone
FN:171,_RNvMs_NtCsiekp5I1RHQt_16threadkit_common6configNtB4_6Config13from_env_file
FN:389,_RNvMs_NtCsiekp5I1RHQt_16threadkit_common6configNtB4_6Config13is_standalone
FN:176,_RNvMs_NtCsiekp5I1RHQt_16threadkit_common6configNtB4_6Config13load_from_env
FN:370,_RNvMs_NtCsiekp5I1RHQt_16threadkit_common6configNtB4_6Config14load_s3_config
FN:353,_RNvMs_NtCsiekp5I1RHQt_16threadkit_common6configNtB4_6Config19load_email_provider
FN:341,_RNvMs_NtCsiekp5I1RHQt_16threadkit_common6configNtB4_6Config19load_oauth_provider
FN:165,_RNvMs_NtCsiekp5I1RHQt_16threadkit_common6configNtB4_6Config8from_env
FN:108,_RNvXNtCsiekp5I1RHQt_16threadkit_common6configNtB2_15RateLimitConfigNtNtCs85QQFkKrybG_4core7default7Default7default
FN:213,_RNCNCNvMs_NtCs9dCHYEAjrI1_16threadkit_common6configNtB8_6Config13load_from_envs3_00Ba_
FN:213,_RNCNCNvMs_NtCs9dCHYEAjrI1_16threadkit_common6configNtB8_6Config13load_from_envs3_0s_0Ba_
FN:269,_RNCNCNvMs_NtCs9dCHYEAjrI1_16threadkit_common6configNtB8_6Config13load_from_envsf_00Ba_
FN:178,_RNCNvMs_NtCs9dCHYEAjrI1_16threadkit_common6configNtB6_6Config13load_from_env0B8_
FN:186,_RNCNvMs_NtCs9dCHYEAjrI1_16threadkit_common6configNtB6_6Config13load_from_envs0_0B8_
FN:189,_RNCNvMs_NtCs9dCHYEAjrI1_16threadkit_common6configNtB6_6Config13load_from_envs1_0B8_
FN:191,_RNCNvMs_NtCs9dCHYEAjrI1_16threadkit_common6configNtB6_6Config13load_from_envs2_0B8_
FN:213,_RNCNvMs_NtCs9dCHYEAjrI1_16threadkit_common6configNtB6_6Config13load_from_envs3_0B8_
FN:226,_RNCNvMs_NtCs9dCHYEAjrI1_16threadkit_common6configNtB6_6Config13load_from_envs4_0B8_
FN:230,_RNCNvMs_NtCs9dCHYEAjrI1_16threadkit_common6configNtB6_6Config13load_from_envs5_0B8_
FN:234,_RNCNvMs_NtCs9dCHYEAjrI1_16threadkit_common6configNtB6_6Config13load_from_envs6_0B8_
FN:238,_RNCNvMs_NtCs9dCHYEAjrI1_16threadkit_common6configNtB6_6Config13load_from_envs7_0B8_
FN:242,_RNCNvMs_NtCs9dCHYEAjrI1_16threadkit_common6configNtB6_6Config13load_from_envs8_0B8_
FN:246,_RNCNvMs_NtCs9dCHYEAjrI1_16threadkit_common6configNtB6_6Config13load_from_envs9_0B8_
FN:185,_RNCNvMs_NtCs9dCHYEAjrI1_16threadkit_common6configNtB6_6Config13load_from_envs_0B8_
FN:250,_RNCNvMs_NtCs9dCHYEAjrI1_16threadkit_common6configNtB6_6Config13load_from_envsa_0B8_
FN:254,_RNCNvMs_NtCs9dCHYEAjrI1_16threadkit_common6configNtB6_6Config13load_from_envsb_0B8_
FN:258,_RNCNvMs_NtCs9dCHYEAjrI1_16threadkit_common6configNtB6_6Config13load_from_envsc_0B8_
FN:262,_RNCNvMs_NtCs9dCHYEAjrI1_16threadkit_common6configNtB6_6Config13load_from_envsd_0B8_
FN:266,_RNCNvMs_NtCs9dCHYEAjrI1_16threadkit_common6configNtB6_6Config13load_from_envse_0B8_
FN:269,_RNCNvMs_NtCs9dCHYEAjrI1_16threadkit_common6configNtB6_6Config13load_from_envsf_0B8_
FN:270,_RNCNvMs_NtCs9dCHYEAjrI1_16threadkit_common6configNtB6_6Config13load_from_envsg_0B8_
FN:275,_RNCNvMs_NtCs9dCHYEAjrI1_16threadkit_common6configNtB6_6Config13load_from_envsh_0B8_
FN:282,_RNCNvMs_NtCs9dCHYEAjrI1_16threadkit_common6configNtB6_6Config13load_from_envsi_0B8_
FN:291,_RNCNvMs_NtCs9dCHYEAjrI1_16threadkit_common6configNtB6_6Config13load_from_envsj_0B8_
FN:298,_RNCNvMs_NtCs9dCHYEAjrI1_16threadkit_common6configNtB6_6Config13load_from_envsk_0B8_
FN:299,_RNCNvMs_NtCs9dCHYEAjrI1_16threadkit_common6configNtB6_6Config13load_from_envsl_0B8_
FN:302,_RNCNvMs_NtCs9dCHYEAjrI1_16threadkit_common6configNtB6_6Config13load_from_envsm_0B8_
FN:304,_RNCNvMs_NtCs9dCHYEAjrI1_16threadkit_common6configNtB6_6Config13load_from_envsn_0B8_
FN:307,_RNCNvMs_NtCs9dCHYEAjrI1_16threadkit_common6configNtB6_6Config13load_from_envso_0B8_
FN:311,_RNCNvMs_NtCs9dCHYEAjrI1_16threadkit_common6configNtB6_6Config13load_from_envsp_0B8_
FN:312,_RNCNvMs_NtCs9dCHYEAjrI1_16threadkit_common6configNtB6_6Config13load_from_envsq_0B8_
FN:323,_RNCNvMs_NtCs9dCHYEAjrI1_16threadkit_common6configNtB6_6Config13load_from_envsr_0B8_
FN:333,_RNCNvMs_NtCs9dCHYEAjrI1_16threadkit_common6configNtB6_6Config13load_from_envss_0B8_
FN:336,_RNCNvMs_NtCs9dCHYEAjrI1_16threadkit_common6configNtB6_6Config13load_from_envst_0B8_
FN:372,_RNCNvMs_NtCs9dCHYEAjrI1_16threadkit_common6configNtB6_6Config14load_s3_config0B8_
FN:358,_RNCNvMs_NtCs9dCHYEAjrI1_16threadkit_common6configNtB6_6Config19load_email_provider0B8_
FN:359,_RNCNvMs_NtCs9dCHYEAjrI1_16threadkit_common6configNtB6_6Config19load_email_providers_0B8_
FN:393,_RNvMs_NtCs9dCHYEAjrI1_16threadkit_common6configNtB4_6Config10standalone
FN:171,_RNvMs_NtCs9dCHYEAjrI1_16threadkit_common6configNtB4_6Config13from_env_file
FN:389,_RNvMs_NtCs9dCHYEAjrI1_16threadkit_common6configNtB4_6Config13is_standalone
FN:176,_RNvMs_NtCs9dCHYEAjrI1_16threadkit_common6configNtB4_6Config13load_from_env
FN:370,_RNvMs_NtCs9dCHYEAjrI1_16threadkit_common6configNtB4_6Config14load_s3_config
FN:353,_RNvMs_NtCs9dCHYEAjrI1_16threadkit_common6configNtB4_6Config19load_email_provider
FN:341,_RNvMs_NtCs9dCHYEAjrI1_16threadkit_common6configNtB4_6Config19load_oauth_provider
FN:165,_RNvMs_NtCs9dCHYEAjrI1_16threadkit_common6configNtB4_6Config8from_env
FN:108,_RNvXNtCs9dCHYEAjrI1_16threadkit_common6configNtB2_15RateLimitConfigNtNtCs85QQFkKrybG_4core7default7Default7default
FNDA:0,_RNCNCNvMs_NtCsiekp5I1RHQt_16threadkit_common6configNtB8_6Config13load_from_envs3_00Ba_
FNDA:0,_RNCNCNvMs_NtCsiekp5I1RHQt_16threadkit_common6configNtB8_6Config13load_from_envs3_0s_0Ba_
FNDA:0,_RNCNCNvMs_NtCsiekp5I1RHQt_16threadkit_common6configNtB8_6Config13load_from_envsf_00Ba_
FNDA:0,_RNCNvMs_NtCsiekp5I1RHQt_16threadkit_common6configNtB6_6Config13load_from_env0B8_
FNDA:0,_RNCNvMs_NtCsiekp5I1RHQt_16threadkit_common6configNtB6_6Config13load_from_envs0_0B8_
FNDA:0,_RNCNvMs_NtCsiekp5I1RHQt_16threadkit_common6configNtB6_6Config13load_from_envs1_0B8_
FNDA:0,_RNCNvMs_NtCsiekp5I1RHQt_16threadkit_common6configNtB6_6Config13load_from_envs2_0B8_
FNDA:0,_RNCNvMs_NtCsiekp5I1RHQt_16threadkit_common6configNtB6_6Config13load_from_envs3_0B8_
FNDA:0,_RNCNvMs_NtCsiekp5I1RHQt_16threadkit_common6configNtB6_6Config13load_from_envs4_0B8_
FNDA:0,_RNCNvMs_NtCsiekp5I1RHQt_16threadkit_common6configNtB6_6Config13load_from_envs5_0B8_
FNDA:0,_RNCNvMs_NtCsiekp5I1RHQt_16threadkit_common6configNtB6_6Config13load_from_envs6_0B8_
FNDA:0,_RNCNvMs_NtCsiekp5I1RHQt_16threadkit_common6configNtB6_6Config13load_from_envs7_0B8_
FNDA:0,_RNCNvMs_NtCsiekp5I1RHQt_16threadkit_common6configNtB6_6Config13load_from_envs8_0B8_
FNDA:0,_RNCNvMs_NtCsiekp5I1RHQt_16threadkit_common6configNtB6_6Config13load_from_envs9_0B8_
FNDA:0,_RNCNvMs_NtCsiekp5I1RHQt_16threadkit_common6configNtB6_6Config13load_from_envs_0B8_
FNDA:0,_RNCNvMs_NtCsiekp5I1RHQt_16threadkit_common6configNtB6_6Config13load_from_envsa_0B8_
FNDA:0,_RNCNvMs_NtCsiekp5I1RHQt_16threadkit_common6configNtB6_6Config13load_from_envsb_0B8_
FNDA:0,_RNCNvMs_NtCsiekp5I1RHQt_16threadkit_common6configNtB6_6Config13load_from_envsc_0B8_
FNDA:0,_RNCNvMs_NtCsiekp5I1RHQt_16threadkit_common6configNtB6_6Config13load_from_envsd_0B8_
FNDA:0,_RNCNvMs_NtCsiekp5I1RHQt_16threadkit_common6configNtB6_6Config13load_from_envse_0B8_
FNDA:0,_RNCNvMs_NtCsiekp5I1RHQt_16threadkit_common6configNtB6_6Config13load_from_envsf_0B8_
FNDA:0,_RNCNvMs_NtCsiekp5I1RHQt_16threadkit_common6configNtB6_6Config13load_from_envsg_0B8_
FNDA:0,_RNCNvMs_NtCsiekp5I1RHQt_16threadkit_common6configNtB6_6Config13load_from_envsh_0B8_
FNDA:0,_RNCNvMs_NtCsiekp5I1RHQt_16threadkit_common6configNtB6_6Config13load_from_envsi_0B8_
FNDA:0,_RNCNvMs_NtCsiekp5I1RHQt_16threadkit_common6configNtB6_6Config13load_from_envsj_0B8_
FNDA:0,_RNCNvMs_NtCsiekp5I1RHQt_16threadkit_common6configNtB6_6Config13load_from_envsk_0B8_
FNDA:0,_RNCNvMs_NtCsiekp5I1RHQt_16threadkit_common6configNtB6_6Config13load_from_envsl_0B8_
FNDA:0,_RNCNvMs_NtCsiekp5I1RHQt_16threadkit_common6configNtB6_6Config13load_from_envsm_0B8_
FNDA:0,_RNCNvMs_NtCsiekp5I1RHQt_16threadkit_common6configNtB6_6Config13load_from_envsn_0B8_
FNDA:0,_RNCNvMs_NtCsiekp5I1RHQt_16threadkit_common6configNtB6_6Config13load_from_envso_0B8_
FNDA:0,_RNCNvMs_NtCsiekp5I1RHQt_16threadkit_common6configNtB6_6Config13load_from_envsp_0B8_
FNDA:0,_RNCNvMs_NtCsiekp5I1RHQt_16threadkit_common6configNtB6_6Config13load_from_envsq_0B8_
FNDA:0,_RNCNvMs_NtCsiekp5I1RHQt_16threadkit_common6configNtB6_6Config13load_from_envsr_0B8_
FNDA:0,_RNCNvMs_NtCsiekp5I1RHQt_16threadkit_common6configNtB6_6Config13load_from_envss_0B8_
FNDA:0,_RNCNvMs_NtCsiekp5I1RHQt_16threadkit_common6configNtB6_6Config13load_from_envst_0B8_
FNDA:0,_RNCNvMs_NtCsiekp5I1RHQt_16threadkit_common6configNtB6_6Config14load_s3_config0B8_
FNDA:0,_RNCNvMs_NtCsiekp5I1RHQt_16threadkit_common6configNtB6_6Config19load_email_provider0B8_
FNDA:0,_RNCNvMs_NtCsiekp5I1RHQt_16threadkit_common6configNtB6_6Config19load_email_providers_0B8_
FNDA:286,_RNvMs_NtCsiekp5I1RHQt_16threadkit_common6configNtB4_6Config10standalone
FNDA:0,_RNvMs_NtCsiekp5I1RHQt_16threadkit_common6configNtB4_6Config13from_env_file
FNDA:0,_RNvMs_NtCsiekp5I1RHQt_16threadkit_common6configNtB4_6Config13is_standalone
FNDA:0,_RNvMs_NtCsiekp5I1RHQt_16threadkit_common6configNtB4_6Config13load_from_env
FNDA:0,_RNvMs_NtCsiekp5I1RHQt_16threadkit_common6configNtB4_6Config14load_s3_config
FNDA:0,_RNvMs_NtCsiekp5I1RHQt_16threadkit_common6configNtB4_6Config19load_email_provider
FNDA:0,_RNvMs_NtCsiekp5I1RHQt_16threadkit_common6configNtB4_6Config19load_oauth_provider
FNDA:0,_RNvMs_NtCsiekp5I1RHQt_16threadkit_common6configNtB4_6Config8from_env
FNDA:0,_RNvXNtCsiekp5I1RHQt_16threadkit_common6configNtB2_15RateLimitConfigNtNtCs85QQFkKrybG_4core7default7Default7default
FNDA:0,_RNCNCNvMs_NtCs9dCHYEAjrI1_16threadkit_common6configNtB8_6Config13load_from_envs3_00Ba_
FNDA:0,_RNCNCNvMs_NtCs9dCHYEAjrI1_16threadkit_common6configNtB8_6Config13load_from_envs3_0s_0Ba_
FNDA:0,_RNCNCNvMs_NtCs9dCHYEAjrI1_16threadkit_common6configNtB8_6Config13load_from_envsf_00Ba_
FNDA:0,_RNCNvMs_NtCs9dCHYEAjrI1_16threadkit_common6configNtB6_6Config13load_from_env0B8_
FNDA:0,_RNCNvMs_NtCs9dCHYEAjrI1_16threadkit_common6configNtB6_6Config13load_from_envs0_0B8_
FNDA:0,_RNCNvMs_NtCs9dCHYEAjrI1_16threadkit_common6configNtB6_6Config13load_from_envs1_0B8_
FNDA:0,_RNCNvMs_NtCs9dCHYEAjrI1_16threadkit_common6configNtB6_6Config13load_from_envs2_0B8_
FNDA:0,_RNCNvMs_NtCs9dCHYEAjrI1_16threadkit_common6configNtB6_6Config13load_from_envs3_0B8_
FNDA:0,_RNCNvMs_NtCs9dCHYEAjrI1_16threadkit_common6configNtB6_6Config13load_from_envs4_0B8_
FNDA:0,_RNCNvMs_NtCs9dCHYEAjrI1_16threadkit_common6configNtB6_6Config13load_from_envs5_0B8_
FNDA:0,_RNCNvMs_NtCs9dCHYEAjrI1_16threadkit_common6configNtB6_6Config13load_from_envs6_0B8_
FNDA:0,_RNCNvMs_NtCs9dCHYEAjrI1_16threadkit_common6configNtB6_6Config13load_from_envs7_0B8_
FNDA:0,_RNCNvMs_NtCs9dCHYEAjrI1_16threadkit_common6configNtB6_6Config13load_from_envs8_0B8_
FNDA:0,_RNCNvMs_NtCs9dCHYEAjrI1_16threadkit_common6configNtB6_6Config13load_from_envs9_0B8_
FNDA:0,_RNCNvMs_NtCs9dCHYEAjrI1_16threadkit_common6configNtB6_6Config13load_from_envs_0B8_
FNDA:0,_RNCNvMs_NtCs9dCHYEAjrI1_16threadkit_common6configNtB6_6Config13load_from_envsa_0B8_
FNDA:0,_RNCNvMs_NtCs9dCHYEAjrI1_16threadkit_common6configNtB6_6Config13load_from_envsb_0B8_
FNDA:0,_RNCNvMs_NtCs9dCHYEAjrI1_16threadkit_common6configNtB6_6Config13load_from_envsc_0B8_
FNDA:0,_RNCNvMs_NtCs9dCHYEAjrI1_16threadkit_common6configNtB6_6Config13load_from_envsd_0B8_
FNDA:0,_RNCNvMs_NtCs9dCHYEAjrI1_16threadkit_common6configNtB6_6Config13load_from_envse_0B8_
FNDA:0,_RNCNvMs_NtCs9dCHYEAjrI1_16threadkit_common6configNtB6_6Config13load_from_envsf_0B8_
FNDA:0,_RNCNvMs_NtCs9dCHYEAjrI1_16threadkit_common6configNtB6_6Config13load_from_envsg_0B8_
FNDA:0,_RNCNvMs_NtCs9dCHYEAjrI1_16threadkit_common6configNtB6_6Config13load_from_envsh_0B8_
FNDA:0,_RNCNvMs_NtCs9dCHYEAjrI1_16threadkit_common6configNtB6_6Config13load_from_envsi_0B8_
FNDA:0,_RNCNvMs_NtCs9dCHYEAjrI1_16threadkit_common6configNtB6_6Config13load_from_envsj_0B8_
FNDA:0,_RNCNvMs_NtCs9dCHYEAjrI1_16threadkit_common6configNtB6_6Config13load_from_envsk_0B8_
FNDA:0,_RNCNvMs_NtCs9dCHYEAjrI1_16threadkit_common6configNtB6_6Config13load_from_envsl_0B8_
FNDA:0,_RNCNvMs_NtCs9dCHYEAjrI1_16threadkit_common6configNtB6_6Config13load_from_envsm_0B8_
FNDA:0,_RNCNvMs_NtCs9dCHYEAjrI1_16threadkit_common6configNtB6_6Config13load_from_envsn_0B8_
FNDA:0,_RNCNvMs_NtCs9dCHYEAjrI1_16threadkit_common6configNtB6_6Config13load_from_envso_0B8_
FNDA:0,_RNCNvMs_NtCs9dCHYEAjrI1_16threadkit_common6configNtB6_6Config13load_from_envsp_0B8_
FNDA:0,_RNCNvMs_NtCs9dCHYEAjrI1_16threadkit_common6configNtB6_6Config13load_from_envsq_0B8_
FNDA:0,_RNCNvMs_NtCs9dCHYEAjrI1_16threadkit_common6configNtB6_6Config13load_from_envsr_0B8_
FNDA:0,_RNCNvMs_NtCs9dCHYEAjrI1_16threadkit_common6configNtB6_6Config13load_from_envss_0B8_
FNDA:0,_RNCNvMs_NtCs9dCHYEAjrI1_16threadkit_common6configNtB6_6Config13load_from_envst_0B8_
FNDA:0,_RNCNvMs_NtCs9dCHYEAjrI1_16threadkit_common6configNtB6_6Config14load_s3_config0B8_
FNDA:0,_RNCNvMs_NtCs9dCHYEAjrI1_16threadkit_common6configNtB6_6Config19load_email_provider0B8_
FNDA:0,_RNCNvMs_NtCs9dCHYEAjrI1_16threadkit_common6configNtB6_6Config19load_email_providers_0B8_
FNDA:0,_RNvMs_NtCs9dCHYEAjrI1_16threadkit_common6configNtB4_6Config10standalone
FNDA:0,_RNvMs_NtCs9dCHYEAjrI1_16threadkit_common6configNtB4_6Config13from_env_file
FNDA:0,_RNvMs_NtCs9dCHYEAjrI1_16threadkit_common6configNtB4_6Config13is_standalone
FNDA:0,_RNvMs_NtCs9dCHYEAjrI1_16threadkit_common6configNtB4_6Config13load_from_env
FNDA:0,_RNvMs_NtCs9dCHYEAjrI1_16threadkit_common6configNtB4_6Config14load_s3_config
FNDA:0,_RNvMs_NtCs9dCHYEAjrI1_16threadkit_common6configNtB4_6Config19load_email_provider
FNDA:0,_RNvMs_NtCs9dCHYEAjrI1_16threadkit_common6configNtB4_6Config19load_oauth_provider
FNDA:0,_RNvMs_NtCs9dCHYEAjrI1_16threadkit_common6configNtB4_6Config8from_env
FNDA:0,_RNvXNtCs9dCHYEAjrI1_16threadkit_common6configNtB2_15RateLimitConfigNtNtCs85QQFkKrybG_4core7default7Default7default
FNF:47
FNH:1
DA:108,0
DA:109,0
DA:110,0
DA:111,0
DA:112,0
DA:113,0
DA:114,0
DA:115,0
DA:116,0
DA:117,0
DA:118,0
DA:119,0
DA:120,0
DA:121,0
DA:122,0
DA:123,0
DA:165,0
DA:166,0
DA:167,0
DA:168,0
DA:171,0
DA:172,0
DA:173,0
DA:174,0
DA:176,0
DA:178,0
DA:179,0
DA:183,0
DA:184,0
DA:185,0
DA:186,0
DA:188,0
DA:189,0
DA:190,0
DA:191,0
DA:194,0
DA:195,0
DA:196,0
DA:197,0
DA:198,0
DA:199,0
DA:200,0
DA:201,0
DA:202,0
DA:203,0
DA:204,0
DA:205,0
DA:207,0
DA:210,0
DA:211,0
DA:212,0
DA:213,0
DA:214,0
DA:219,0
DA:220,0
DA:221,0
DA:222,0
DA:224,0
DA:225,0
DA:226,0
DA:227,0
DA:228,0
DA:229,0
DA:230,0
DA:231,0
DA:232,0
DA:233,0
DA:234,0
DA:235,0
DA:236,0
DA:237,0
DA:238,0
DA:239,0
DA:240,0
DA:241,0
DA:242,0
DA:243,0
DA:244,0
DA:245,0
DA:246,0
DA:247,0
DA:248,0
DA:249,0
DA:250,0
DA:251,0
DA:252,0
DA:253,0
DA:254,0
DA:255,0
DA:256,0
DA:257,0
DA:258,0
DA:259,0
DA:260,0
DA:261,0
DA:262,0
DA:263,0
DA:264,0
DA:265,0
DA:266,0
DA:267,0
DA:268,0
DA:269,0
DA:270,0
DA:273,0
DA:274,0
DA:275,0
DA:276,0
DA:277,0
DA:278,0
DA:279,0
DA:280,0
DA:281,0
DA:282,0
DA:283,0
DA:286,0
DA:287,0
DA:288,0
DA:290,0
DA:291,0
DA:294,0
DA:297,0
DA:298,0
DA:299,0
DA:300,0
DA:301,0
DA:302,0
DA:303,0
DA:304,0
DA:305,0
DA:306,0
DA:307,0
DA:308,0
DA:309,0
DA:310,0
DA:311,0
DA:312,0
DA:313,0
DA:314,0
DA:315,0
DA:316,0
DA:317,0
DA:318,0
DA:319,0
DA:320,0
DA:321,0
DA:322,0
DA:323,0
DA:324,0
DA:325,0
DA:326,0
DA:327,0
DA:328,0
DA:329,0
DA:330,0
DA:331,0
DA:332,0
DA:333,0
DA:334,0
DA:335,0
DA:336,0
DA:337,0
DA:339,0
DA:341,0
DA:342,0
DA:343,0
DA:344,0
DA:346,0
DA:347,0
DA:348,0
DA:349,0
DA:350,0
DA:351,0
DA:353,0
DA:354,0
DA:356,0
DA:357,0
DA:358,0
DA:359,0
DA:361,0
DA:362,0
DA:363,0
DA:364,0
DA:366,0
DA:368,0
DA:370,0
DA:371,0
DA:372,0
DA:373,0
DA:375,0
DA:376,0
DA:377,0
DA:380,0
DA:381,0
DA:382,0
DA:383,0
DA:384,0
DA:385,0
DA:387,0
DA:389,0
DA:390,0
DA:391,0
DA:393,286
DA:394,286
DA:395,286
DA:396,0
DA:398,286
BRF:0
BRH:0
LF:245
LH:4
end_of_record
SF:/Users/jt/code/threadkit/server/crates/common/src/error.rs
FN:51,_RNvMNtCsiekp5I1RHQt_16threadkit_common5errorNtB2_5Error11status_code
FN:51,_RNvMNtCs9dCHYEAjrI1_16threadkit_common5errorNtB2_5Error11status_code
FNDA:0,_RNvMNtCsiekp5I1RHQt_16threadkit_common5errorNtB2_5Error11status_code
FNDA:0,_RNvMNtCs9dCHYEAjrI1_16threadkit_common5errorNtB2_5Error11status_code
FNF:1
FNH:0
DA:51,0
DA:52,0
DA:53,0
DA:54,0
DA:55,0
DA:56,0
DA:57,0
DA:58,0
DA:59,0
DA:60,0
DA:62,0
BRF:0
BRH:0
LF:11
LH:0
end_of_record
SF:/Users/jt/code/threadkit/server/crates/common/src/image_processing.rs
FN:30,_RNvNtCsiekp5I1RHQt_16threadkit_common16image_processing13resize_avatar
FN:70,_RNvNtCsiekp5I1RHQt_16threadkit_common16image_processing14validate_image
FN:107,_RNvNtCsiekp5I1RHQt_16threadkit_common16image_processing15convert_to_webp
FN:136,_RNvNtCsiekp5I1RHQt_16threadkit_common16image_processing18is_safe_image_mime
FN:144,_RNvNtCsiekp5I1RHQt_16threadkit_common16image_processing19format_to_mime_type
FN:30,_RNvNtCs9dCHYEAjrI1_16threadkit_common16image_processing13resize_avatar
FN:70,_RNvNtCs9dCHYEAjrI1_16threadkit_common16image_processing14validate_image
FN:107,_RNvNtCs9dCHYEAjrI1_16threadkit_common16image_processing15convert_to_webp
FN:136,_RNvNtCs9dCHYEAjrI1_16threadkit_common16image_processing18is_safe_image_mime
FN:144,_RNvNtCs9dCHYEAjrI1_16threadkit_common16image_processing19format_to_mime_type
FN:160,_RNvNtNtCs9dCHYEAjrI1_16threadkit_common16image_processing5tests17create_test_image
FN:232,_RNvNtNtCs9dCHYEAjrI1_16threadkit_common16image_processing5testss_18test_resize_avatar
FN:243,_RNvNtNtCs9dCHYEAjrI1_16threadkit_common16image_processing5testss_20test_convert_to_webp
FN:220,_RNvNtNtCs9dCHYEAjrI1_16threadkit_common16image_processing5testss_23test_is_safe_image_mime
FN:169,_RNvNtNtCs9dCHYEAjrI1_16threadkit_common16image_processing5testss_26test_validate_image_normal
FN:211,_RNvNtNtCs9dCHYEAjrI1_16threadkit_common16image_processing5testss_29test_validate_image_at_limits
FN:201,_RNvNtNtCs9dCHYEAjrI1_16threadkit_common16image_processing5testss_30test_validate_image_max_pixels
FN:179,_RNvNtNtCs9dCHYEAjrI1_16threadkit_common16image_processing5testss_39test_validate_image_max_dimension_width
FN:190,_RNvNtNtCs9dCHYEAjrI1_16threadkit_common16image_processing5testss_40test_validate_image_max_dimension_height
FNDA:0,_RNvNtCsiekp5I1RHQt_16threadkit_common16image_processing13resize_avatar
FNDA:0,_RNvNtCsiekp5I1RHQt_16threadkit_common16image_processing14validate_image
FNDA:0,_RNvNtCsiekp5I1RHQt_16threadkit_common16image_processing15convert_to_webp
FNDA:0,_RNvNtCsiekp5I1RHQt_16threadkit_common16image_processing18is_safe_image_mime
FNDA:0,_RNvNtCsiekp5I1RHQt_16threadkit_common16image_processing19format_to_mime_type
FNDA:1,_RNvNtCs9dCHYEAjrI1_16threadkit_common16image_processing13resize_avatar
FNDA:5,_RNvNtCs9dCHYEAjrI1_16threadkit_common16image_processing14validate_image
FNDA:1,_RNvNtCs9dCHYEAjrI1_16threadkit_common16image_processing15convert_to_webp
FNDA:8,_RNvNtCs9dCHYEAjrI1_16threadkit_common16image_processing18is_safe_image_mime
FNDA:2,_RNvNtCs9dCHYEAjrI1_16threadkit_common16image_processing19format_to_mime_type
FNDA:7,_RNvNtNtCs9dCHYEAjrI1_16threadkit_common16image_processing5tests17create_test_image
FNDA:1,_RNvNtNtCs9dCHYEAjrI1_16threadkit_common16image_processing5testss_18test_resize_avatar
FNDA:1,_RNvNtNtCs9dCHYEAjrI1_16threadkit_common16image_processing5testss_20test_convert_to_webp
FNDA:1,_RNvNtNtCs9dCHYEAjrI1_16threadkit_common16image_processing5testss_23test_is_safe_image_mime
FNDA:1,_RNvNtNtCs9dCHYEAjrI1_16threadkit_common16image_processing5testss_26test_validate_image_normal
FNDA:1,_RNvNtNtCs9dCHYEAjrI1_16threadkit_common16image_processing5testss_29test_validate_image_at_limits
FNDA:1,_RNvNtNtCs9dCHYEAjrI1_16threadkit_common16image_processing5testss_30test_validate_image_max_pixels
FNDA:1,_RNvNtNtCs9dCHYEAjrI1_16threadkit_common16image_processing5testss_39test_validate_image_max_dimension_width
FNDA:1,_RNvNtNtCs9dCHYEAjrI1_16threadkit_common16image_processing5testss_40test_validate_image_max_dimension_height
FNF:14
FNH:14
DA:30,1
DA:31,1
DA:32,1
DA:35,1
DA:38,1
DA:39,1
DA:40,1
DA:42,1
DA:43,1
DA:44,1
DA:46,0
DA:49,1
DA:50,1
DA:51,1
DA:52,1
DA:53,1
DA:54,1
DA:56,1
DA:57,1
DA:70,5
DA:71,5
DA:72,5
DA:74,5
DA:75,5
DA:78,5
DA:79,2
DA:80,2
DA:85,3
DA:87,3
DA:88,3
DA:89,1
DA:90,1
DA:94,2
DA:96,2
DA:97,5
DA:107,1
DA:108,1
DA:109,1
DA:112,1
DA:113,1
DA:114,1
DA:116,1
DA:117,1
DA:118,1
DA:120,0
DA:123,1
DA:124,1
DA:125,1
DA:126,1
DA:127,1
DA:128,1
DA:130,1
DA:131,1
DA:136,8
DA:137,5
DA:138,8
DA:139,8
DA:141,8
DA:144,2
DA:145,2
DA:146,0
DA:147,2
DA:148,0
DA:149,0
DA:150,0
DA:152,2
DA:153,2
DA:160,7
DA:161,7
DA:162,7
DA:163,7
DA:164,7
DA:165,7
DA:166,7
DA:169,1
DA:170,1
DA:171,1
DA:172,1
DA:173,1
DA:174,1
DA:175,1
DA:176,1
DA:179,1
DA:180,1
DA:181,1
DA:182,1
DA:183,1
DA:184,1
DA:185,1
DA:186,1
DA:187,1
DA:190,1
DA:191,1
DA:192,1
DA:193,1
DA:194,1
DA:195,1
DA:196,1
DA:197,1
DA:198,1
DA:201,1
DA:204,1
DA:205,1
DA:206,1
DA:207,1
DA:208,1
DA:211,1
DA:214,1
DA:215,1
DA:216,1
DA:217,1
DA:220,1
DA:221,1
DA:222,1
DA:223,1
DA:224,1
DA:225,1
DA:226,1
DA:227,1
DA:228,1
DA:229,1
DA:232,1
DA:233,1
DA:234,1
DA:235,1
DA:236,1
DA:237,1
DA:238,1
DA:239,1
DA:240,1
DA:243,1
DA:244,1
DA:245,1
DA:246,1
DA:247,1
DA:248,1
DA:249,1
DA:250,1
DA:251,1
DA:252,1
BRF:0
BRH:0
LF:140
LH:134
end_of_record
SF:/Users/jt/code/threadkit/server/crates/common/src/moderation.rs
FN:78,_RNCNCNvMNtCsiekp5I1RHQt_16threadkit_common10moderationNtB6_16ModerationClient8moderate00CsaszyX3GTrYE_14threadkit_http
FN:102,_RNCNvMNtCsiekp5I1RHQt_16threadkit_common10moderationNtB4_16ModerationClient5check0CsaszyX3GTrYE_14threadkit_http
FN:38,_RNCNvMNtCsiekp5I1RHQt_16threadkit_common10moderationNtB4_16ModerationClient8moderate0CsaszyX3GTrYE_14threadkit_http
FN:30,_RNvMNtCsiekp5I1RHQt_16threadkit_common10moderationNtB2_16ModerationClient10is_enabled
FN:130,_RNvMNtCsiekp5I1RHQt_16threadkit_common10moderationNtB2_16ModerationClient14map_categories
FN:148,_RNvMNtCsiekp5I1RHQt_16threadkit_common10moderationNtB2_16ModerationClient18get_flagged_reason
FN:21,_RNvMNtCsiekp5I1RHQt_16threadkit_common10moderationNtB2_16ModerationClient3new
FN:98,_RNvMNtCsiekp5I1RHQt_16threadkit_common10moderationNtB2_16ModerationClient5check
FN:38,_RNvMNtCsiekp5I1RHQt_16threadkit_common10moderationNtB2_16ModerationClient8moderate
FN:279,_RNvNtNtCs9dCHYEAjrI1_16threadkit_common10moderation5testss_27test_is_blocked_hate_speech
FN:292,_RNvNtNtCs9dCHYEAjrI1_16threadkit_common10moderation5testss_31test_is_blocked_below_threshold
FN:302,_RNvNtNtCs9dCHYEAjrI1_16threadkit_common10moderation5testss_33test_is_blocked_category_disabled
FN:78,_RNCNCNvMNtCs9dCHYEAjrI1_16threadkit_common10moderationNtB6_16ModerationClient8moderate00B8_
FN:102,_RNCNvMNtCs9dCHYEAjrI1_16threadkit_common10moderationNtB4_16ModerationClient5check0B6_
FN:38,_RNCNvMNtCs9dCHYEAjrI1_16threadkit_common10moderationNtB4_16ModerationClient8moderate0B6_
FN:30,_RNvMNtCs9dCHYEAjrI1_16threadkit_common10moderationNtB2_16ModerationClient10is_enabled
FN:130,_RNvMNtCs9dCHYEAjrI1_16threadkit_common10moderationNtB2_16ModerationClient14map_categories
FN:148,_RNvMNtCs9dCHYEAjrI1_16threadkit_common10moderationNtB2_16ModerationClient18get_flagged_reason
FN:21,_RNvMNtCs9dCHYEAjrI1_16threadkit_common10moderationNtB2_16ModerationClient3new
FN:98,_RNvMNtCs9dCHYEAjrI1_16threadkit_common10moderationNtB2_16ModerationClient5check
FN:38,_RNvMNtCs9dCHYEAjrI1_16threadkit_common10moderationNtB2_16ModerationClient8moderate
FN:78,_RNCNCNvMNtCsiekp5I1RHQt_16threadkit_common10moderationNtB6_16ModerationClient8moderate00CskwAV7ptXVKm_14threadkit_http
FN:102,_RNCNvMNtCsiekp5I1RHQt_16threadkit_common10moderationNtB4_16ModerationClient5check0CskwAV7ptXVKm_14threadkit_http
FN:38,_RNCNvMNtCsiekp5I1RHQt_16threadkit_common10moderationNtB4_16ModerationClient8moderate0CskwAV7ptXVKm_14threadkit_http
FNDA:0,_RNCNCNvMNtCsiekp5I1RHQt_16threadkit_common10moderationNtB6_16ModerationClient8moderate00CsaszyX3GTrYE_14threadkit_http
FNDA:46,_RNCNvMNtCsiekp5I1RHQt_16threadkit_common10moderationNtB4_16ModerationClient5check0CsaszyX3GTrYE_14threadkit_http
FNDA:0,_RNCNvMNtCsiekp5I1RHQt_16threadkit_common10moderationNtB4_16ModerationClient8moderate0CsaszyX3GTrYE_14threadkit_http
FNDA:108,_RNvMNtCsiekp5I1RHQt_16threadkit_common10moderationNtB2_16ModerationClient10is_enabled
FNDA:0,_RNvMNtCsiekp5I1RHQt_16threadkit_common10moderationNtB2_16ModerationClient14map_categories
FNDA:0,_RNvMNtCsiekp5I1RHQt_16threadkit_common10moderationNtB2_16ModerationClient18get_flagged_reason
FNDA:62,_RNvMNtCsiekp5I1RHQt_16threadkit_common10moderationNtB2_16ModerationClient3new
FNDA:46,_RNvMNtCsiekp5I1RHQt_16threadkit_common10moderationNtB2_16ModerationClient5check
FNDA:0,_RNvMNtCsiekp5I1RHQt_16threadkit_common10moderationNtB2_16ModerationClient8moderate
FNDA:1,_RNvNtNtCs9dCHYEAjrI1_16threadkit_common10moderation5testss_27test_is_blocked_hate_speech
FNDA:1,_RNvNtNtCs9dCHYEAjrI1_16threadkit_common10moderation5testss_31test_is_blocked_below_threshold
FNDA:1,_RNvNtNtCs9dCHYEAjrI1_16threadkit_common10moderation5testss_33test_is_blocked_category_disabled
FNDA:0,_RNCNCNvMNtCs9dCHYEAjrI1_16threadkit_common10moderationNtB6_16ModerationClient8moderate00B8_
FNDA:0,_RNCNvMNtCs9dCHYEAjrI1_16threadkit_common10moderationNtB4_16ModerationClient5check0B6_
FNDA:0,_RNCNvMNtCs9dCHYEAjrI1_16threadkit_common10moderationNtB4_16ModerationClient8moderate0B6_
FNDA:0,_RNvMNtCs9dCHYEAjrI1_16threadkit_common10moderationNtB2_16ModerationClient10is_enabled
FNDA:0,_RNvMNtCs9dCHYEAjrI1_16threadkit_common10moderationNtB2_16ModerationClient14map_categories
FNDA:0,_RNvMNtCs9dCHYEAjrI1_16threadkit_common10moderationNtB2_16ModerationClient18get_flagged_reason
FNDA:0,_RNvMNtCs9dCHYEAjrI1_16threadkit_common10moderationNtB2_16ModerationClient3new
FNDA:0,_RNvMNtCs9dCHYEAjrI1_16threadkit_common10moderationNtB2_16ModerationClient5check
FNDA:0,_RNvMNtCs9dCHYEAjrI1_16threadkit_common10moderationNtB2_16ModerationClient8moderate
FNDA:0,_RNCNCNvMNtCsiekp5I1RHQt_16threadkit_common10moderationNtB6_16ModerationClient8moderate00CskwAV7ptXVKm_14threadkit_http
FNDA:0,_RNCNvMNtCsiekp5I1RHQt_16threadkit_common10moderationNtB4_16ModerationClient5check0CskwAV7ptXVKm_14threadkit_http
FNDA:0,_RNCNvMNtCsiekp5I1RHQt_16threadkit_common10moderationNtB4_16ModerationClient8moderate0CskwAV7ptXVKm_14threadkit_http
FNF:12
FNH:7
DA:21,62
DA:22,62
DA:23,62
DA:24,62
DA:26,62
DA:27,62
DA:30,108
DA:31,108
DA:32,0
DA:33,0
DA:34,0
DA:35,108
DA:38,0
DA:39,0
DA:40,0
DA:41,0
DA:42,0
DA:43,0
DA:44,0
DA:45,0
DA:47,0
DA:48,0
DA:49,0
DA:52,0
DA:54,0
DA:55,0
DA:56,0
DA:57,0
DA:59,0
DA:60,0
DA:61,0
DA:62,0
DA:63,0
DA:64,0
DA:65,0
DA:66,0
DA:68,0
DA:69,0
DA:70,0
DA:71,0
DA:72,0
DA:73,0
DA:75,0
DA:78,0
DA:79,0
DA:80,0
DA:82,0
DA:83,0
DA:84,0
DA:85,0
DA:87,0
DA:90,0
DA:91,0
DA:92,0
DA:93,0
DA:94,0
DA:95,0
DA:98,46
DA:99,46
DA:100,46
DA:101,46
DA:102,46
DA:104,46
DA:105,46
DA:106,0
DA:108,0
DA:111,0
DA:112,0
DA:113,0
DA:114,0
DA:115,0
DA:118,0
DA:120,0
DA:121,0
DA:122,0
DA:123,0
DA:124,0
DA:126,0
DA:127,46
DA:130,0
DA:131,0
DA:132,0
DA:133,0
DA:134,0
DA:135,0
DA:136,0
DA:137,0
DA:138,0
DA:139,0
DA:140,0
DA:141,0
DA:142,0
DA:143,0
DA:144,0
DA:145,0
DA:148,0
DA:149,0
DA:151,0
DA:152,0
DA:153,0
DA:154,0
DA:155,0
DA:156,0
DA:157,0
DA:158,0
DA:159,0
DA:160,0
DA:161,0
DA:162,0
DA:163,0
DA:164,0
DA:165,0
DA:166,0
DA:167,0
DA:168,0
DA:169,0
DA:171,0
DA:172,0
DA:174,0
DA:176,0
DA:279,1
DA:280,1
DA:281,1
DA:282,1
DA:283,1
DA:284,1
DA:285,1
DA:286,1
DA:287,1
DA:289,1
DA:292,1
DA:293,1
DA:294,1
DA:295,1
DA:296,1
DA:297,1
DA:298,1
DA:299,1
DA:302,1
DA:303,1
DA:304,1
DA:305,1
DA:306,1
DA:307,1
DA:308,1
DA:309,1
DA:310,1
DA:311,1
DA:312,1
BRF:0
BRH:0
LF:153
LH:47
end_of_record
SF:/Users/jt/code/threadkit/server/crates/common/src/redis.rs
FN:57,_RNCNCNvMNtCsiekp5I1RHQt_16threadkit_common5redisNtB6_11RedisClient16load_lua_scripts00CsfD1Skel4Vam_10auth_tests
FN:66,_RNCNCNvMNtCsiekp5I1RHQt_16threadkit_common5redisNtB6_11RedisClient16load_lua_scripts0s0_0CsfD1Skel4Vam_10auth_tests
FN:67,_RNCNCNvMNtCsiekp5I1RHQt_16threadkit_common5redisNtB6_11RedisClient16load_lua_scripts0s1_0CsfD1Skel4Vam_10auth_tests
FN:70,_RNCNCNvMNtCsiekp5I1RHQt_16threadkit_common5redisNtB6_11RedisClient16load_lua_scripts0s2_0CsfD1Skel4Vam_10auth_tests
FN:72,_RNCNCNvMNtCsiekp5I1RHQt_16threadkit_common5redisNtB6_11RedisClient16load_lua_scripts0s3_0CsfD1Skel4Vam_10auth_tests
FN:73,_RNCNCNvMNtCsiekp5I1RHQt_16threadkit_common5redisNtB6_11RedisClient16load_lua_scripts0s4_0CsfD1Skel4Vam_10auth_tests
FN:76,_RNCNCNvMNtCsiekp5I1RHQt_16threadkit_common5redisNtB6_11RedisClient16load_lua_scripts0s5_0CsfD1Skel4Vam_10auth_tests
FN:89,_RNCNCNvMNtCsiekp5I1RHQt_16threadkit_common5redisNtB6_11RedisClient16load_lua_scripts0s6_0CsfD1Skel4Vam_10auth_tests
FN:58,_RNCNCNvMNtCsiekp5I1RHQt_16threadkit_common5redisNtB6_11RedisClient16load_lua_scripts0s_0CsfD1Skel4Vam_10auth_tests
FN:52,_RNCNvMNtCsiekp5I1RHQt_16threadkit_common5redisNtB4_11RedisClient16load_lua_scripts0CsfD1Skel4Vam_10auth_tests
FN:40,_RNCNvMNtCsiekp5I1RHQt_16threadkit_common5redisNtB4_11RedisClient3new0CsfD1Skel4Vam_10auth_tests
FN:1982,_RINvMNtCsiekp5I1RHQt_16threadkit_common5redisNtB3_11RedisClient12hgetall_jsonNtNtB5_5types4UserECsaszyX3GTrYE_14threadkit_http
FN:1982,_RINvMNtCsiekp5I1RHQt_16threadkit_common5redisNtB3_11RedisClient12hgetall_jsonNtNtB5_5types7CommentECsaszyX3GTrYE_14threadkit_http
FN:1982,_RINvMNtCsiekp5I1RHQt_16threadkit_common5redisNtB3_11RedisClient12hgetall_jsonNtNtB5_5types9MediaInfoECsaszyX3GTrYE_14threadkit_http
FN:2009,_RINvMNtCsiekp5I1RHQt_16threadkit_common5redisNtB3_11RedisClient12hsetall_jsonNtNtB5_5types4UserECsaszyX3GTrYE_14threadkit_http
FN:2009,_RINvMNtCsiekp5I1RHQt_16threadkit_common5redisNtB3_11RedisClient12hsetall_jsonNtNtB5_5types9MediaInfoECsaszyX3GTrYE_14threadkit_http
FN:1982,_RNCINvMNtCsiekp5I1RHQt_16threadkit_common5redisNtB5_11RedisClient12hgetall_jsonNtNtB7_5types4UserE0CsaszyX3GTrYE_14threadkit_http
FN:1982,_RNCINvMNtCsiekp5I1RHQt_16threadkit_common5redisNtB5_11RedisClient12hgetall_jsonNtNtB7_5types7CommentE0CsaszyX3GTrYE_14threadkit_http
FN:1982,_RNCINvMNtCsiekp5I1RHQt_16threadkit_common5redisNtB5_11RedisClient12hgetall_jsonNtNtB7_5types9MediaInfoE0CsaszyX3GTrYE_14threadkit_http
FN:2009,_RNCINvMNtCsiekp5I1RHQt_16threadkit_common5redisNtB5_11RedisClient12hsetall_jsonNtNtB7_5types4UserE0CsaszyX3GTrYE_14threadkit_http
FN:2009,_RNCINvMNtCsiekp5I1RHQt_16threadkit_common5redisNtB5_11RedisClient12hsetall_jsonNtNtB7_5types9MediaInfoE0CsaszyX3GTrYE_14threadkit_http
FN:2000,_RNCNCINvMNtCsiekp5I1RHQt_16threadkit_common5redisNtB7_11RedisClient12hgetall_jsonNtNtB9_5types4UserE00CsaszyX3GTrYE_14threadkit_http
FN:2000,_RNCNCINvMNtCsiekp5I1RHQt_16threadkit_common5redisNtB7_11RedisClient12hgetall_jsonNtNtB9_5types7CommentE00CsaszyX3GTrYE_14threadkit_http
FN:2000,_RNCNCINvMNtCsiekp5I1RHQt_16threadkit_common5redisNtB7_11RedisClient12hgetall_jsonNtNtB9_5types9MediaInfoE00CsaszyX3GTrYE_14threadkit_http
FN:2014,_RNCNCINvMNtCsiekp5I1RHQt_16threadkit_common5redisNtB7_11RedisClient12hsetall_jsonNtNtB9_5types4UserE00CsaszyX3GTrYE_14threadkit_http
FN:2014,_RNCNCINvMNtCsiekp5I1RHQt_16threadkit_common5redisNtB7_11RedisClient12hsetall_jsonNtNtB9_5types9MediaInfoE00CsaszyX3GTrYE_14threadkit_http
FN:1907,_RNCNCNCNvMNtCsiekp5I1RHQt_16threadkit_common5redisNtB8_11RedisClient19get_pinned_comments000CsaszyX3GTrYE_14threadkit_http
FN:933,_RNCNCNvMNtCsiekp5I1RHQt_16threadkit_common5redisNtB6_11RedisClient10get_admins00CsaszyX3GTrYE_14threadkit_http
FN:820,_RNCNCNvMNtCsiekp5I1RHQt_16threadkit_common5redisNtB6_11RedisClient11atomic_vote00CsaszyX3GTrYE_14threadkit_http
FN:843,_RNCNCNvMNtCsiekp5I1RHQt_16threadkit_common5redisNtB6_11RedisClient11atomic_vote0s0_0CsaszyX3GTrYE_14threadkit_http
FN:845,_RNCNCNvMNtCsiekp5I1RHQt_16threadkit_common5redisNtB6_11RedisClient11atomic_vote0s1_0CsaszyX3GTrYE_14threadkit_http
FN:871,_RNCNCNvMNtCsiekp5I1RHQt_16threadkit_common5redisNtB6_11RedisClient11atomic_vote0s2_0CsaszyX3GTrYE_14threadkit_http
FN:872,_RNCNCNvMNtCsiekp5I1RHQt_16threadkit_common5redisNtB6_11RedisClient11atomic_vote0s3_0CsaszyX3GTrYE_14threadkit_http
FN:873,_RNCNCNvMNtCsiekp5I1RHQt_16threadkit_common5redisNtB6_11RedisClient11atomic_vote0s4_0CsaszyX3GTrYE_14threadkit_http
FN:874,_RNCNCNvMNtCsiekp5I1RHQt_16threadkit_common5redisNtB6_11RedisClient11atomic_vote0s5_0CsaszyX3GTrYE_14threadkit_http
FN:823,_RNCNCNvMNtCsiekp5I1RHQt_16threadkit_common5redisNtB6_11RedisClient11atomic_vote0s_0CsaszyX3GTrYE_14threadkit_http
FN:260,_RNCNCNvMNtCsiekp5I1RHQt_16threadkit_common5redisNtB6_11RedisClient13get_page_tree00CsaszyX3GTrYE_14threadkit_http
FN:1099,_RNCNCNvMNtCsiekp5I1RHQt_16threadkit_common5redisNtB6_11RedisClient14get_blocked_by00CsaszyX3GTrYE_14threadkit_http
FN:955,_RNCNCNvMNtCsiekp5I1RHQt_16threadkit_common5redisNtB6_11RedisClient14get_moderators00CsaszyX3GTrYE_14threadkit_http
FN:500,_RNCNCNvMNtCsiekp5I1RHQt_16threadkit_common5redisNtB6_11RedisClient14get_reports_v200CsaszyX3GTrYE_14threadkit_http
FN:1775,_RNCNCNvMNtCsiekp5I1RHQt_16threadkit_common5redisNtB6_11RedisClient14get_user_votes00CsaszyX3GTrYE_14threadkit_http
FN:454,_RNCNCNvMNtCsiekp5I1RHQt_16threadkit_common5redisNtB6_11RedisClient15get_modqueue_v200CsaszyX3GTrYE_14threadkit_http
FN:1480,_RNCNCNvMNtCsiekp5I1RHQt_16threadkit_common5redisNtB6_11RedisClient15get_site_config00CsaszyX3GTrYE_14threadkit_http
FN:1317,_RNCNCNvMNtCsiekp5I1RHQt_16threadkit_common5redisNtB6_11RedisClient16get_session_user00CsaszyX3GTrYE_14threadkit_http
FN:1090,_RNCNCNvMNtCsiekp5I1RHQt_16threadkit_common5redisNtB6_11RedisClient17get_blocked_users00CsaszyX3GTrYE_14threadkit_http
FN:1141,_RNCNCNvMNtCsiekp5I1RHQt_16threadkit_common5redisNtB6_11RedisClient17get_notifications00CsaszyX3GTrYE_14threadkit_http
FN:142,_RNCNCNvMNtCsiekp5I1RHQt_16threadkit_common5redisNtB6_11RedisClient17get_user_by_email00CsaszyX3GTrYE_14threadkit_http
FN:1005,_RNCNCNvMNtCsiekp5I1RHQt_16threadkit_common5redisNtB6_11RedisClient17get_user_comments00CsaszyX3GTrYE_14threadkit_http
FN:1232,_RNCNCNvMNtCsiekp5I1RHQt_16threadkit_common5redisNtB6_11RedisClient18get_user_by_wallet00CsaszyX3GTrYE_14threadkit_http
FN:1906,_RNCNCNvMNtCsiekp5I1RHQt_16threadkit_common5redisNtB6_11RedisClient19get_pinned_comments00CsaszyX3GTrYE_14threadkit_http
FN:226,_RNCNCNvMNtCsiekp5I1RHQt_16threadkit_common5redisNtB6_11RedisClient20get_user_by_provider00CsaszyX3GTrYE_14threadkit_http
FN:160,_RNCNCNvMNtCsiekp5I1RHQt_16threadkit_common5redisNtB6_11RedisClient20get_user_by_username00CsaszyX3GTrYE_14threadkit_http
FN:1969,_RNCNCNvMNtCsiekp5I1RHQt_16threadkit_common5redisNtB6_11RedisClient20update_site_settings00CsaszyX3GTrYE_14threadkit_http
FN:1465,_RNCNCNvMNtCsiekp5I1RHQt_16threadkit_common5redisNtB6_11RedisClient21get_cached_project_id00CsaszyX3GTrYE_14threadkit_http
FN:1183,_RNCNCNvMNtCsiekp5I1RHQt_16threadkit_common5redisNtB6_11RedisClient21get_verification_code00CsaszyX3GTrYE_14threadkit_http
FN:1543,_RNCNCNvMNtCsiekp5I1RHQt_16threadkit_common5redisNtB6_11RedisClient22get_site_by_project_id00CsaszyX3GTrYE_14threadkit_http
FN:1547,_RNCNCNvMNtCsiekp5I1RHQt_16threadkit_common5redisNtB6_11RedisClient22get_site_by_project_id0s_0CsaszyX3GTrYE_14threadkit_http
FN:372,_RNCNCNvMNtCsiekp5I1RHQt_16threadkit_common5redisNtB6_11RedisClient22get_site_comment_index00CsaszyX3GTrYE_14threadkit_http
FN:398,_RNCNCNvMNtCsiekp5I1RHQt_16threadkit_common5redisNtB6_11RedisClient22get_user_site_comments00CsaszyX3GTrYE_14threadkit_http
FN:717,_RNCNCNvMNtCsiekp5I1RHQt_16threadkit_common5redisNtB6_11RedisClient8get_vote00CsaszyX3GTrYE_14threadkit_http
FN:958,_RNCNvMNtCsiekp5I1RHQt_16threadkit_common5redisNtB4_11RedisClient10block_user0CsaszyX3GTrYE_14threadkit_http
FN:928,_RNCNvMNtCsiekp5I1RHQt_16threadkit_common5redisNtB4_11RedisClient10get_admins0CsaszyX3GTrYE_14threadkit_http
FN:812,_RNCNvMNtCsiekp5I1RHQt_16threadkit_common5redisNtB4_11RedisClient11atomic_vote0CsaszyX3GTrYE_14threadkit_http
FN:515,_RNCNvMNtCsiekp5I1RHQt_16threadkit_common5redisNtB4_11RedisClient11get_comment0CsaszyX3GTrYE_14threadkit_http
FN:1867,_RNCNvMNtCsiekp5I1RHQt_16threadkit_common5redisNtB4_11RedisClient11pin_comment0CsaszyX3GTrYE_14threadkit_http
FN:1934,_RNCNvMNtCsiekp5I1RHQt_16threadkit_common5redisNtB4_11RedisClient11unlock_page0CsaszyX3GTrYE_14threadkit_http
FN:921,_RNCNvMNtCsiekp5I1RHQt_16threadkit_common5redisNtB4_11RedisClient12remove_admin0CsaszyX3GTrYE_14threadkit_http
FN:965,_RNCNvMNtCsiekp5I1RHQt_16threadkit_common5redisNtB4_11RedisClient12unblock_user0CsaszyX3GTrYE_14threadkit_http
FN:936,_RNCNvMNtCsiekp5I1RHQt_16threadkit_common5redisNtB4_11RedisClient13add_moderator0CsaszyX3GTrYE_14threadkit_http
FN:466,_RNCNvMNtCsiekp5I1RHQt_16threadkit_common5redisNtB4_11RedisClient13add_report_v20CsaszyX3GTrYE_14threadkit_http
FN:258,_RNCNvMNtCsiekp5I1RHQt_16threadkit_common5redisNtB4_11RedisClient13get_page_tree0CsaszyX3GTrYE_14threadkit_http
FN:1411,_RNCNvMNtCsiekp5I1RHQt_16threadkit_common5redisNtB4_11RedisClient13get_pageviews0CsaszyX3GTrYE_14threadkit_http
FN:883,_RNCNvMNtCsiekp5I1RHQt_16threadkit_common5redisNtB4_11RedisClient13get_user_role0CsaszyX3GTrYE_14threadkit_http
FN:264,_RNCNvMNtCsiekp5I1RHQt_16threadkit_common5redisNtB4_11RedisClient13set_page_tree0CsaszyX3GTrYE_14threadkit_http
FN:1882,_RNCNvMNtCsiekp5I1RHQt_16threadkit_common5redisNtB4_11RedisClient13unpin_comment0CsaszyX3GTrYE_14threadkit_http
FN:1270,_RNCNvMNtCsiekp5I1RHQt_16threadkit_common5redisNtB4_11RedisClient14add_user_media0CsaszyX3GTrYE_14threadkit_http
FN:1294,_RNCNvMNtCsiekp5I1RHQt_16threadkit_common5redisNtB4_11RedisClient14create_session0CsaszyX3GTrYE_14threadkit_http
FN:1320,_RNCNvMNtCsiekp5I1RHQt_16threadkit_common5redisNtB4_11RedisClient14delete_session0CsaszyX3GTrYE_14threadkit_http
FN:1094,_RNCNvMNtCsiekp5I1RHQt_16threadkit_common5redisNtB4_11RedisClient14get_blocked_by0CsaszyX3GTrYE_14threadkit_http
FN:1259,_RNCNvMNtCsiekp5I1RHQt_16threadkit_common5redisNtB4_11RedisClient14get_media_info0CsaszyX3GTrYE_14threadkit_http
FN:950,_RNCNvMNtCsiekp5I1RHQt_16threadkit_common5redisNtB4_11RedisClient14get_moderators0CsaszyX3GTrYE_14threadkit_http
FN:781,_RNCNvMNtCsiekp5I1RHQt_16threadkit_common5redisNtB4_11RedisClient14get_page_votes0CsaszyX3GTrYE_14threadkit_http
FN:484,_RNCNvMNtCsiekp5I1RHQt_16threadkit_common5redisNtB4_11RedisClient14get_reports_v20CsaszyX3GTrYE_14threadkit_http
FN:1770,_RNCNvMNtCsiekp5I1RHQt_16threadkit_common5redisNtB4_11RedisClient14get_user_votes0CsaszyX3GTrYE_14threadkit_http
FN:1210,_RNCNvMNtCsiekp5I1RHQt_16threadkit_common5redisNtB4_11RedisClient14get_web3_nonce0CsaszyX3GTrYE_14threadkit_http
FN:1942,_RNCNvMNtCsiekp5I1RHQt_16threadkit_common5redisNtB4_11RedisClient14is_page_locked0CsaszyX3GTrYE_14threadkit_http
FN:1254,_RNCNvMNtCsiekp5I1RHQt_16threadkit_common5redisNtB4_11RedisClient14set_media_info0CsaszyX3GTrYE_14threadkit_http
FN:1196,_RNCNvMNtCsiekp5I1RHQt_16threadkit_common5redisNtB4_11RedisClient14set_web3_nonce0CsaszyX3GTrYE_14threadkit_http
FN:972,_RNCNvMNtCsiekp5I1RHQt_16threadkit_common5redisNtB4_11RedisClient14shadowban_user0CsaszyX3GTrYE_14threadkit_http
FN:411,_RNCNvMNtCsiekp5I1RHQt_16threadkit_common5redisNtB4_11RedisClient15add_to_modqueue0CsaszyX3GTrYE_14threadkit_http
FN:438,_RNCNvMNtCsiekp5I1RHQt_16threadkit_common5redisNtB4_11RedisClient15get_modqueue_v20CsaszyX3GTrYE_14threadkit_http
FN:1478,_RNCNvMNtCsiekp5I1RHQt_16threadkit_common5redisNtB4_11RedisClient15get_site_config0CsaszyX3GTrYE_14threadkit_http
FN:1424,_RNCNvMNtCsiekp5I1RHQt_16threadkit_common5redisNtB4_11RedisClient15increment_usage0CsaszyX3GTrYE_14threadkit_http
FN:979,_RNCNvMNtCsiekp5I1RHQt_16threadkit_common5redisNtB4_11RedisClient15is_shadowbanned0CsaszyX3GTrYE_14threadkit_http
FN:1506,_RNCNvMNtCsiekp5I1RHQt_16threadkit_common5redisNtB4_11RedisClient15set_site_config0CsaszyX3GTrYE_14threadkit_http
FN:1106,_RNCNvMNtCsiekp5I1RHQt_16threadkit_common5redisNtB4_11RedisClient16add_notification0CsaszyX3GTrYE_14threadkit_http
FN:1449,_RNCNvMNtCsiekp5I1RHQt_16threadkit_common5redisNtB4_11RedisClient16cache_project_id0CsaszyX3GTrYE_14threadkit_http
FN:1789,_RNCNvMNtCsiekp5I1RHQt_16threadkit_common5redisNtB4_11RedisClient16check_rate_limit0CsaszyX3GTrYE_14threadkit_http
FN:1312,_RNCNvMNtCsiekp5I1RHQt_16threadkit_common5redisNtB4_11RedisClient16get_session_user0CsaszyX3GTrYE_14threadkit_http
FN:1147,_RNCNvMNtCsiekp5I1RHQt_16threadkit_common5redisNtB4_11RedisClient16get_unread_count0CsaszyX3GTrYE_14threadkit_http
FN:943,_RNCNvMNtCsiekp5I1RHQt_16threadkit_common5redisNtB4_11RedisClient16remove_moderator0CsaszyX3GTrYE_14threadkit_http
FN:1264,_RNCNvMNtCsiekp5I1RHQt_16threadkit_common5redisNtB4_11RedisClient17delete_media_info0CsaszyX3GTrYE_14threadkit_http
FN:1219,_RNCNvMNtCsiekp5I1RHQt_16threadkit_common5redisNtB4_11RedisClient17delete_web3_nonce0CsaszyX3GTrYE_14threadkit_http
FN:1085,_RNCNvMNtCsiekp5I1RHQt_16threadkit_common5redisNtB4_11RedisClient17get_blocked_users0CsaszyX3GTrYE_14threadkit_http
FN:1128,_RNCNvMNtCsiekp5I1RHQt_16threadkit_common5redisNtB4_11RedisClient17get_notifications0CsaszyX3GTrYE_14threadkit_http
FN:140,_RNCNvMNtCsiekp5I1RHQt_16threadkit_common5redisNtB4_11RedisClient17get_user_by_email0CsaszyX3GTrYE_14threadkit_http
FN:1000,_RNCNvMNtCsiekp5I1RHQt_16threadkit_common5redisNtB4_11RedisClient17get_user_comments0CsaszyX3GTrYE_14threadkit_http
FN:1913,_RNCNvMNtCsiekp5I1RHQt_16threadkit_common5redisNtB4_11RedisClient17is_comment_pinned0CsaszyX3GTrYE_14threadkit_http
FN:1277,_RNCNvMNtCsiekp5I1RHQt_16threadkit_common5redisNtB4_11RedisClient17remove_user_media0CsaszyX3GTrYE_14threadkit_http
FN:1021,_RNCNvMNtCsiekp5I1RHQt_16threadkit_common5redisNtB4_11RedisClient17update_user_karma0CsaszyX3GTrYE_14threadkit_http
FN:1052,_RNCNvMNtCsiekp5I1RHQt_16threadkit_common5redisNtB4_11RedisClient18block_user_by_user0CsaszyX3GTrYE_14threadkit_http
FN:1227,_RNCNvMNtCsiekp5I1RHQt_16threadkit_common5redisNtB4_11RedisClient18get_user_by_wallet0CsaszyX3GTrYE_14threadkit_http
FN:1633,_RNCNvMNtCsiekp5I1RHQt_16threadkit_common5redisNtB4_11RedisClient19delete_user_account0CsaszyX3GTrYE_14threadkit_http
FN:1891,_RNCNvMNtCsiekp5I1RHQt_16threadkit_common5redisNtB4_11RedisClient19get_pinned_comments0CsaszyX3GTrYE_14threadkit_http
FN:224,_RNCNvMNtCsiekp5I1RHQt_16threadkit_common5redisNtB4_11RedisClient20get_user_by_provider0CsaszyX3GTrYE_14threadkit_http
FN:158,_RNCNvMNtCsiekp5I1RHQt_16threadkit_common5redisNtB4_11RedisClient20get_user_by_username0CsaszyX3GTrYE_14threadkit_http
FN:145,_RNCNvMNtCsiekp5I1RHQt_16threadkit_common5redisNtB4_11RedisClient20set_user_email_index0CsaszyX3GTrYE_14threadkit_http
FN:1065,_RNCNvMNtCsiekp5I1RHQt_16threadkit_common5redisNtB4_11RedisClient20unblock_user_by_user0CsaszyX3GTrYE_14threadkit_http
FN:677,_RNCNvMNtCsiekp5I1RHQt_16threadkit_common5redisNtB4_11RedisClient20update_comment_votes0CsaszyX3GTrYE_14threadkit_http
FN:1964,_RNCNvMNtCsiekp5I1RHQt_16threadkit_common5redisNtB4_11RedisClient20update_site_settings0CsaszyX3GTrYE_14threadkit_http
FN:1463,_RNCNvMNtCsiekp5I1RHQt_16threadkit_common5redisNtB4_11RedisClient21get_cached_project_id0CsaszyX3GTrYE_14threadkit_http
FN:1181,_RNCNvMNtCsiekp5I1RHQt_16threadkit_common5redisNtB4_11RedisClient21get_verification_code0CsaszyX3GTrYE_14threadkit_http
FN:184,_RNCNvMNtCsiekp5I1RHQt_16threadkit_common5redisNtB4_11RedisClient21is_username_available0CsaszyX3GTrYE_14threadkit_http
FN:1236,_RNCNvMNtCsiekp5I1RHQt_16threadkit_common5redisNtB4_11RedisClient21set_user_wallet_index0CsaszyX3GTrYE_14threadkit_http
FN:1167,_RNCNvMNtCsiekp5I1RHQt_16threadkit_common5redisNtB4_11RedisClient21set_verification_code0CsaszyX3GTrYE_14threadkit_http
FN:315,_RNCNvMNtCsiekp5I1RHQt_16threadkit_common5redisNtB4_11RedisClient22add_site_comment_index0CsaszyX3GTrYE_14threadkit_http
FN:281,_RNCNvMNtCsiekp5I1RHQt_16threadkit_common5redisNtB4_11RedisClient22add_user_comment_index0CsaszyX3GTrYE_14threadkit_http
FN:1536,_RNCNvMNtCsiekp5I1RHQt_16threadkit_common5redisNtB4_11RedisClient22get_site_by_project_id0CsaszyX3GTrYE_14threadkit_http
FN:359,_RNCNvMNtCsiekp5I1RHQt_16threadkit_common5redisNtB4_11RedisClient22get_site_comment_index0CsaszyX3GTrYE_14threadkit_http
FN:385,_RNCNvMNtCsiekp5I1RHQt_16threadkit_common5redisNtB4_11RedisClient22get_user_site_comments0CsaszyX3GTrYE_14threadkit_http
FN:273,_RNCNvMNtCsiekp5I1RHQt_16threadkit_common5redisNtB4_11RedisClient23get_or_create_page_tree0CsaszyX3GTrYE_14threadkit_http
FN:1156,_RNCNvMNtCsiekp5I1RHQt_16threadkit_common5redisNtB4_11RedisClient23mark_notifications_read0CsaszyX3GTrYE_14threadkit_http
FN:428,_RNCNvMNtCsiekp5I1RHQt_16threadkit_common5redisNtB4_11RedisClient23remove_from_modqueue_v20CsaszyX3GTrYE_14threadkit_http
FN:229,_RNCNvMNtCsiekp5I1RHQt_16threadkit_common5redisNtB4_11RedisClient23set_user_provider_index0CsaszyX3GTrYE_14threadkit_http
FN:163,_RNCNvMNtCsiekp5I1RHQt_16threadkit_common5redisNtB4_11RedisClient23set_user_username_index0CsaszyX3GTrYE_14threadkit_http
FN:1186,_RNCNvMNtCsiekp5I1RHQt_16threadkit_common5redisNtB4_11RedisClient24delete_verification_code0CsaszyX3GTrYE_14threadkit_http
FN:176,_RNCNvMNtCsiekp5I1RHQt_16threadkit_common5redisNtB4_11RedisClient26delete_user_username_index0CsaszyX3GTrYE_14threadkit_http
FN:1484,_RNCNvMNtCsiekp5I1RHQt_16threadkit_common5redisNtB4_11RedisClient26get_site_config_by_api_key0CsaszyX3GTrYE_14threadkit_http
FN:298,_RNCNvMNtCsiekp5I1RHQt_16threadkit_common5redisNtB4_11RedisClient27add_user_site_comment_index0CsaszyX3GTrYE_14threadkit_http
FN:1030,_RNCNvMNtCsiekp5I1RHQt_16threadkit_common5redisNtB4_11RedisClient28increment_user_comment_count0CsaszyX3GTrYE_14threadkit_http
FN:1398,_RNCNvMNtCsiekp5I1RHQt_16threadkit_common5redisNtB4_11RedisClient29increment_pageview_with_usage0CsaszyX3GTrYE_14threadkit_http
FN:1623,_RNCNvMNtCsiekp5I1RHQt_16threadkit_common5redisNtB4_11RedisClient7publish0CsaszyX3GTrYE_14threadkit_http
FN:132,_RNCNvMNtCsiekp5I1RHQt_16threadkit_common5redisNtB4_11RedisClient8get_user0CsaszyX3GTrYE_14threadkit_http
FN:711,_RNCNvMNtCsiekp5I1RHQt_16threadkit_common5redisNtB4_11RedisClient8get_vote0CsaszyX3GTrYE_14threadkit_http
FN:136,_RNCNvMNtCsiekp5I1RHQt_16threadkit_common5redisNtB4_11RedisClient8set_user0CsaszyX3GTrYE_14threadkit_http
FN:914,_RNCNvMNtCsiekp5I1RHQt_16threadkit_common5redisNtB4_11RedisClient9add_admin0CsaszyX3GTrYE_14threadkit_http
FN:1926,_RNCNvMNtCsiekp5I1RHQt_16threadkit_common5redisNtB4_11RedisClient9lock_page0CsaszyX3GTrYE_14threadkit_http
FN:1582,_RNvMNtCsiekp5I1RHQt_16threadkit_common5redisNtB2_11RedisClient10add_report
FN:958,_RNvMNtCsiekp5I1RHQt_16threadkit_common5redisNtB2_11RedisClient10block_user
FN:928,_RNvMNtCsiekp5I1RHQt_16threadkit_common5redisNtB2_11RedisClient10get_admins
FN:1331,_RNvMNtCsiekp5I1RHQt_16threadkit_common5redisNtB2_11RedisClient10set_typing
FN:805,_RNvMNtCsiekp5I1RHQt_16threadkit_common5redisNtB2_11RedisClient11atomic_vote
FN:1499,_RNvMNtCsiekp5I1RHQt_16threadkit_common5redisNtB2_11RedisClient11count_sites
FN:741,_RNvMNtCsiekp5I1RHQt_16threadkit_common5redisNtB2_11RedisClient11delete_vote
FN:515,_RNvMNtCsiekp5I1RHQt_16threadkit_common5redisNtB2_11RedisClient11get_comment
FN:1599,_RNvMNtCsiekp5I1RHQt_16threadkit_common5redisNtB2_11RedisClient11get_reports
FN:1867,_RNvMNtCsiekp5I1RHQt_16threadkit_common5redisNtB2_11RedisClient11pin_comment
FN:519,_RNvMNtCsiekp5I1RHQt_16threadkit_common5redisNtB2_11RedisClient11set_comment
FN:1934,_RNvMNtCsiekp5I1RHQt_16threadkit_common5redisNtB2_11RedisClient11unlock_page
FN:1363,_RNvMNtCsiekp5I1RHQt_16threadkit_common5redisNtB2_11RedisClient12add_presence
FN:1377,_RNvMNtCsiekp5I1RHQt_16threadkit_common5redisNtB2_11RedisClient12get_presence
FN:921,_RNvMNtCsiekp5I1RHQt_16threadkit_common5redisNtB2_11RedisClient12remove_admin
FN:965,_RNvMNtCsiekp5I1RHQt_16threadkit_common5redisNtB2_11RedisClient12unblock_user
FN:936,_RNvMNtCsiekp5I1RHQt_16threadkit_common5redisNtB2_11RedisClient13add_moderator
FN:466,_RNvMNtCsiekp5I1RHQt_16threadkit_common5redisNtB2_11RedisClient13add_report_v2
FN:1754,_RNvMNtCsiekp5I1RHQt_16threadkit_common5redisNtB2_11RedisClient13add_user_vote
FN:258,_RNvMNtCsiekp5I1RHQt_16threadkit_common5redisNtB2_11RedisClient13get_page_tree
FN:1411,_RNvMNtCsiekp5I1RHQt_16threadkit_common5redisNtB2_11RedisClient13get_pageviews
FN:883,_RNvMNtCsiekp5I1RHQt_16threadkit_common5redisNtB2_11RedisClient13get_user_role
FN:264,_RNvMNtCsiekp5I1RHQt_16threadkit_common5redisNtB2_11RedisClient13set_page_tree
FN:754,_RNvMNtCsiekp5I1RHQt_16threadkit_common5redisNtB2_11RedisClient13set_page_vote
FN:1882,_RNvMNtCsiekp5I1RHQt_16threadkit_common5redisNtB2_11RedisClient13unpin_comment
FN:1270,_RNvMNtCsiekp5I1RHQt_16threadkit_common5redisNtB2_11RedisClient14add_user_media
FN:1294,_RNvMNtCsiekp5I1RHQt_16threadkit_common5redisNtB2_11RedisClient14create_session
FN:1320,_RNvMNtCsiekp5I1RHQt_16threadkit_common5redisNtB2_11RedisClient14delete_session
FN:1094,_RNvMNtCsiekp5I1RHQt_16threadkit_common5redisNtB2_11RedisClient14get_blocked_by
FN:1259,_RNvMNtCsiekp5I1RHQt_16threadkit_common5redisNtB2_11RedisClient14get_media_info
FN:950,_RNvMNtCsiekp5I1RHQt_16threadkit_common5redisNtB2_11RedisClient14get_moderators
FN:781,_RNvMNtCsiekp5I1RHQt_16threadkit_common5redisNtB2_11RedisClient14get_page_votes
FN:484,_RNvMNtCsiekp5I1RHQt_16threadkit_common5redisNtB2_11RedisClient14get_reports_v2
FN:1284,_RNvMNtCsiekp5I1RHQt_16threadkit_common5redisNtB2_11RedisClient14get_user_media
FN:1770,_RNvMNtCsiekp5I1RHQt_16threadkit_common5redisNtB2_11RedisClient14get_user_votes
FN:1210,_RNvMNtCsiekp5I1RHQt_16threadkit_common5redisNtB2_11RedisClient14get_web3_nonce
FN:1942,_RNvMNtCsiekp5I1RHQt_16threadkit_common5redisNtB2_11RedisClient14is_page_locked
FN:1254,_RNvMNtCsiekp5I1RHQt_16threadkit_common5redisNtB2_11RedisClient14set_media_info
FN:1196,_RNvMNtCsiekp5I1RHQt_16threadkit_common5redisNtB2_11RedisClient14set_web3_nonce
FN:972,_RNvMNtCsiekp5I1RHQt_16threadkit_common5redisNtB2_11RedisClient14shadowban_user
FN:411,_RNvMNtCsiekp5I1RHQt_16threadkit_common5redisNtB2_11RedisClient15add_to_modqueue
FN:438,_RNvMNtCsiekp5I1RHQt_16threadkit_common5redisNtB2_11RedisClient15get_modqueue_v2
FN:1478,_RNvMNtCsiekp5I1RHQt_16threadkit_common5redisNtB2_11RedisClient15get_site_config
FN:639,_RNvMNtCsiekp5I1RHQt_16threadkit_common5redisNtB2_11RedisClient15get_users_batch
FN:660,_RNvMNtCsiekp5I1RHQt_16threadkit_common5redisNtB2_11RedisClient15get_votes_batch
FN:1424,_RNvMNtCsiekp5I1RHQt_16threadkit_common5redisNtB2_11RedisClient15increment_usage
FN:979,_RNvMNtCsiekp5I1RHQt_16threadkit_common5redisNtB2_11RedisClient15is_shadowbanned
FN:1370,_RNvMNtCsiekp5I1RHQt_16threadkit_common5redisNtB2_11RedisClient15remove_presence
FN:1506,_RNvMNtCsiekp5I1RHQt_16threadkit_common5redisNtB2_11RedisClient15set_site_config
FN:115,_RNvMNtCsiekp5I1RHQt_16threadkit_common5redisNtB2_11RedisClient15set_with_expiry
FN:1106,_RNvMNtCsiekp5I1RHQt_16threadkit_common5redisNtB2_11RedisClient16add_notification
FN:992,_RNvMNtCsiekp5I1RHQt_16threadkit_common5redisNtB2_11RedisClient16add_user_comment
FN:1449,_RNvMNtCsiekp5I1RHQt_16threadkit_common5redisNtB2_11RedisClient16cache_project_id
FN:1784,_RNvMNtCsiekp5I1RHQt_16threadkit_common5redisNtB2_11RedisClient16check_rate_limit
FN:769,_RNvMNtCsiekp5I1RHQt_16threadkit_common5redisNtB2_11RedisClient16delete_page_vote
FN:247,_RNvMNtCsiekp5I1RHQt_16threadkit_common5redisNtB2_11RedisClient16generate_page_id
FN:1951,_RNvMNtCsiekp5I1RHQt_16threadkit_common5redisNtB2_11RedisClient16get_locked_pages
FN:1312,_RNvMNtCsiekp5I1RHQt_16threadkit_common5redisNtB2_11RedisClient16get_session_user
FN:1346,_RNvMNtCsiekp5I1RHQt_16threadkit_common5redisNtB2_11RedisClient16get_typing_users
FN:1147,_RNvMNtCsiekp5I1RHQt_16threadkit_common5redisNtB2_11RedisClient16get_unread_count
FN:52,_RNvMNtCsiekp5I1RHQt_16threadkit_common5redisNtB2_11RedisClient16load_lua_scripts
FN:943,_RNvMNtCsiekp5I1RHQt_16threadkit_common5redisNtB2_11RedisClient16remove_moderator
FN:1762,_RNvMNtCsiekp5I1RHQt_16threadkit_common5redisNtB2_11RedisClient16remove_user_vote
FN:1264,_RNvMNtCsiekp5I1RHQt_16threadkit_common5redisNtB2_11RedisClient17delete_media_info
FN:1219,_RNvMNtCsiekp5I1RHQt_16threadkit_common5redisNtB2_11RedisClient17delete_web3_nonce
FN:1085,_RNvMNtCsiekp5I1RHQt_16threadkit_common5redisNtB2_11RedisClient17get_blocked_users
FN:1128,_RNvMNtCsiekp5I1RHQt_16threadkit_common5redisNtB2_11RedisClient17get_notifications
FN:584,_RNvMNtCsiekp5I1RHQt_16threadkit_common5redisNtB2_11RedisClient17get_page_comments
FN:140,_RNvMNtCsiekp5I1RHQt_16threadkit_common5redisNtB2_11RedisClient17get_user_by_email
FN:194,_RNvMNtCsiekp5I1RHQt_16threadkit_common5redisNtB2_11RedisClient17get_user_by_phone
FN:1000,_RNvMNtCsiekp5I1RHQt_16threadkit_common5redisNtB2_11RedisClient17get_user_comments
FN:212,_RNvMNtCsiekp5I1RHQt_16threadkit_common5redisNtB2_11RedisClient17get_user_password
FN:1913,_RNvMNtCsiekp5I1RHQt_16threadkit_common5redisNtB2_11RedisClient17is_comment_pinned
FN:1277,_RNvMNtCsiekp5I1RHQt_16threadkit_common5redisNtB2_11RedisClient17remove_user_media
FN:199,_RNvMNtCsiekp5I1RHQt_16threadkit_common5redisNtB2_11RedisClient17set_user_password
FN:1021,_RNvMNtCsiekp5I1RHQt_16threadkit_common5redisNtB2_11RedisClient17update_user_karma
FN:1432,_RNvMNtCsiekp5I1RHQt_16threadkit_common5redisNtB2_11RedisClient18add_unique_visitor
FN:1052,_RNvMNtCsiekp5I1RHQt_16threadkit_common5redisNtB2_11RedisClient18block_user_by_user
FN:624,_RNvMNtCsiekp5I1RHQt_16threadkit_common5redisNtB2_11RedisClient18get_comments_batch
FN:1227,_RNvMNtCsiekp5I1RHQt_16threadkit_common5redisNtB2_11RedisClient18get_user_by_wallet
FN:1389,_RNvMNtCsiekp5I1RHQt_16threadkit_common5redisNtB2_11RedisClient18increment_pageview
FN:1076,_RNvMNtCsiekp5I1RHQt_16threadkit_common5redisNtB2_11RedisClient18is_blocked_by_user
FN:1633,_RNvMNtCsiekp5I1RHQt_16threadkit_common5redisNtB2_11RedisClient19delete_user_account
FN:606,_RNvMNtCsiekp5I1RHQt_16threadkit_common5redisNtB2_11RedisClient19get_comment_replies
FN:1891,_RNvMNtCsiekp5I1RHQt_16threadkit_common5redisNtB2_11RedisClient19get_pinned_comments
FN:1009,_RNvMNtCsiekp5I1RHQt_16threadkit_common5redisNtB2_11RedisClient19remove_user_comment
FN:1554,_RNvMNtCsiekp5I1RHQt_16threadkit_common5redisNtB2_11RedisClient20get_moderation_queue
FN:224,_RNvMNtCsiekp5I1RHQt_16threadkit_common5redisNtB2_11RedisClient20get_user_by_provider
FN:158,_RNvMNtCsiekp5I1RHQt_16threadkit_common5redisNtB2_11RedisClient20get_user_by_username
FN:1571,_RNvMNtCsiekp5I1RHQt_16threadkit_common5redisNtB2_11RedisClient20remove_from_modqueue
FN:145,_RNvMNtCsiekp5I1RHQt_16threadkit_common5redisNtB2_11RedisClient20set_user_email_index
FN:217,_RNvMNtCsiekp5I1RHQt_16threadkit_common5redisNtB2_11RedisClient20set_user_phone_index
FN:1065,_RNvMNtCsiekp5I1RHQt_16threadkit_common5redisNtB2_11RedisClient20unblock_user_by_user
FN:677,_RNvMNtCsiekp5I1RHQt_16threadkit_common5redisNtB2_11RedisClient20update_comment_votes
FN:1964,_RNvMNtCsiekp5I1RHQt_16threadkit_common5redisNtB2_11RedisClient20update_site_settings
FN:1463,_RNvMNtCsiekp5I1RHQt_16threadkit_common5redisNtB2_11RedisClient21get_cached_project_id
FN:1835,_RNvMNtCsiekp5I1RHQt_16threadkit_common5redisNtB2_11RedisClient21get_rate_limit_status
FN:1181,_RNvMNtCsiekp5I1RHQt_16threadkit_common5redisNtB2_11RedisClient21get_verification_code
FN:184,_RNvMNtCsiekp5I1RHQt_16threadkit_common5redisNtB2_11RedisClient21is_username_available
FN:1236,_RNvMNtCsiekp5I1RHQt_16threadkit_common5redisNtB2_11RedisClient21set_user_wallet_index
FN:1167,_RNvMNtCsiekp5I1RHQt_16threadkit_common5redisNtB2_11RedisClient21set_verification_code
FN:315,_RNvMNtCsiekp5I1RHQt_16threadkit_common5redisNtB2_11RedisClient22add_site_comment_index
FN:281,_RNvMNtCsiekp5I1RHQt_16threadkit_common5redisNtB2_11RedisClient22add_user_comment_index
FN:1536,_RNvMNtCsiekp5I1RHQt_16threadkit_common5redisNtB2_11RedisClient22get_site_by_project_id
FN:359,_RNvMNtCsiekp5I1RHQt_16threadkit_common5redisNtB2_11RedisClient22get_site_comment_index
FN:333,_RNvMNtCsiekp5I1RHQt_16threadkit_common5redisNtB2_11RedisClient22get_user_comment_index
FN:385,_RNvMNtCsiekp5I1RHQt_16threadkit_common5redisNtB2_11RedisClient22get_user_site_comments
FN:273,_RNvMNtCsiekp5I1RHQt_16threadkit_common5redisNtB2_11RedisClient23get_or_create_page_tree
FN:1156,_RNvMNtCsiekp5I1RHQt_16threadkit_common5redisNtB2_11RedisClient23mark_notifications_read
FN:428,_RNvMNtCsiekp5I1RHQt_16threadkit_common5redisNtB2_11RedisClient23remove_from_modqueue_v2
FN:229,_RNvMNtCsiekp5I1RHQt_16threadkit_common5redisNtB2_11RedisClient23set_user_provider_index
FN:163,_RNvMNtCsiekp5I1RHQt_16threadkit_common5redisNtB2_11RedisClient23set_user_username_index
FN:1186,_RNvMNtCsiekp5I1RHQt_16threadkit_common5redisNtB2_11RedisClient24delete_verification_code
FN:176,_RNvMNtCsiekp5I1RHQt_16threadkit_common5redisNtB2_11RedisClient26delete_user_username_index
FN:1484,_RNvMNtCsiekp5I1RHQt_16threadkit_common5redisNtB2_11RedisClient26get_site_config_by_api_key
FN:298,_RNvMNtCsiekp5I1RHQt_16threadkit_common5redisNtB2_11RedisClient27add_user_site_comment_index
FN:1469,_RNvMNtCsiekp5I1RHQt_16threadkit_common5redisNtB2_11RedisClient27invalidate_project_id_cache
FN:1039,_RNvMNtCsiekp5I1RHQt_16threadkit_common5redisNtB2_11RedisClient28decrement_user_comment_count
FN:1030,_RNvMNtCsiekp5I1RHQt_16threadkit_common5redisNtB2_11RedisClient28increment_user_comment_count
FN:1398,_RNvMNtCsiekp5I1RHQt_16threadkit_common5redisNtB2_11RedisClient29increment_pageview_with_usage
FN:40,_RNvMNtCsiekp5I1RHQt_16threadkit_common5redisNtB2_11RedisClient3new
FN:103,_RNvMNtCsiekp5I1RHQt_16threadkit_common5redisNtB2_11RedisClient4ping
FN:109,_RNvMNtCsiekp5I1RHQt_16threadkit_common5redisNtB2_11RedisClient6exists
FN:1623,_RNvMNtCsiekp5I1RHQt_16threadkit_common5redisNtB2_11RedisClient7publish
FN:132,_RNvMNtCsiekp5I1RHQt_16threadkit_common5redisNtB2_11RedisClient8get_user
FN:711,_RNvMNtCsiekp5I1RHQt_16threadkit_common5redisNtB2_11RedisClient8get_vote
FN:136,_RNvMNtCsiekp5I1RHQt_16threadkit_common5redisNtB2_11RedisClient8set_user
FN:724,_RNvMNtCsiekp5I1RHQt_16threadkit_common5redisNtB2_11RedisClient8set_vote
FN:914,_RNvMNtCsiekp5I1RHQt_16threadkit_common5redisNtB2_11RedisClient9add_admin
FN:1926,_RNvMNtCsiekp5I1RHQt_16threadkit_common5redisNtB2_11RedisClient9lock_page
FN:57,_RNCNCNvMNtCsiekp5I1RHQt_16threadkit_common5redisNtB6_11RedisClient16load_lua_scripts00Cs7z9qMl5nAho_13comment_tests
FN:66,_RNCNCNvMNtCsiekp5I1RHQt_16threadkit_common5redisNtB6_11RedisClient16load_lua_scripts0s0_0Cs7z9qMl5nAho_13comment_tests
FN:67,_RNCNCNvMNtCsiekp5I1RHQt_16threadkit_common5redisNtB6_11RedisClient16load_lua_scripts0s1_0Cs7z9qMl5nAho_13comment_tests
FN:70,_RNCNCNvMNtCsiekp5I1RHQt_16threadkit_common5redisNtB6_11RedisClient16load_lua_scripts0s2_0Cs7z9qMl5nAho_13comment_tests
FN:72,_RNCNCNvMNtCsiekp5I1RHQt_16threadkit_common5redisNtB6_11RedisClient16load_lua_scripts0s3_0Cs7z9qMl5nAho_13comment_tests
FN:73,_RNCNCNvMNtCsiekp5I1RHQt_16threadkit_common5redisNtB6_11RedisClient16load_lua_scripts0s4_0Cs7z9qMl5nAho_13comment_tests
FN:76,_RNCNCNvMNtCsiekp5I1RHQt_16threadkit_common5redisNtB6_11RedisClient16load_lua_scripts0s5_0Cs7z9qMl5nAho_13comment_tests
FN:89,_RNCNCNvMNtCsiekp5I1RHQt_16threadkit_common5redisNtB6_11RedisClient16load_lua_scripts0s6_0Cs7z9qMl5nAho_13comment_tests
FN:58,_RNCNCNvMNtCsiekp5I1RHQt_16threadkit_common5redisNtB6_11RedisClient16load_lua_scripts0s_0Cs7z9qMl5nAho_13comment_tests
FN:52,_RNCNvMNtCsiekp5I1RHQt_16threadkit_common5redisNtB4_11RedisClient16load_lua_scripts0Cs7z9qMl5nAho_13comment_tests
FN:40,_RNCNvMNtCsiekp5I1RHQt_16threadkit_common5redisNtB4_11RedisClient3new0Cs7z9qMl5nAho_13comment_tests
FN:2009,_RINvMNtCsiekp5I1RHQt_16threadkit_common5redisNtB3_11RedisClient12hsetall_jsonNtNtB5_5types4UserECscjQi9PvWoBf_16connection_tests
FN:2009,_RNCINvMNtCsiekp5I1RHQt_16threadkit_common5redisNtB5_11RedisClient12hsetall_jsonNtNtB7_5types4UserE0CscjQi9PvWoBf_16connection_tests
FN:2014,_RNCNCINvMNtCsiekp5I1RHQt_16threadkit_common5redisNtB7_11RedisClient12hsetall_jsonNtNtB9_5types4UserE00CscjQi9PvWoBf_16connection_tests
FN:57,_RNCNCNvMNtCsiekp5I1RHQt_16threadkit_common5redisNtB6_11RedisClient16load_lua_scripts00CscjQi9PvWoBf_16connection_tests
FN:66,_RNCNCNvMNtCsiekp5I1RHQt_16threadkit_common5redisNtB6_11RedisClient16load_lua_scripts0s0_0CscjQi9PvWoBf_16connection_tests
FN:67,_RNCNCNvMNtCsiekp5I1RHQt_16threadkit_common5redisNtB6_11RedisClient16load_lua_scripts0s1_0CscjQi9PvWoBf_16connection_tests
FN:70,_RNCNCNvMNtCsiekp5I1RHQt_16threadkit_common5redisNtB6_11RedisClient16load_lua_scripts0s2_0CscjQi9PvWoBf_16connection_tests
FN:72,_RNCNCNvMNtCsiekp5I1RHQt_16threadkit_common5redisNtB6_11RedisClient16load_lua_scripts0s3_0CscjQi9PvWoBf_16connection_tests
FN:73,_RNCNCNvMNtCsiekp5I1RHQt_16threadkit_common5redisNtB6_11RedisClient16load_lua_scripts0s4_0CscjQi9PvWoBf_16connection_tests
FN:76,_RNCNCNvMNtCsiekp5I1RHQt_16threadkit_common5redisNtB6_11RedisClient16load_lua_scripts0s5_0CscjQi9PvWoBf_16connection_tests
FN:89,_RNCNCNvMNtCsiekp5I1RHQt_16threadkit_common5redisNtB6_11RedisClient16load_lua_scripts0s6_0CscjQi9PvWoBf_16connection_tests
FN:58,_RNCNCNvMNtCsiekp5I1RHQt_16threadkit_common5redisNtB6_11RedisClient16load_lua_scripts0s_0CscjQi9PvWoBf_16connection_tests
FN:1506,_RNCNvMNtCsiekp5I1RHQt_16threadkit_common5redisNtB4_11RedisClient15set_site_config0CscjQi9PvWoBf_16connection_tests
FN:52,_RNCNvMNtCsiekp5I1RHQt_16threadkit_common5redisNtB4_11RedisClient16load_lua_scripts0CscjQi9PvWoBf_16connection_tests
FN:40,_RNCNvMNtCsiekp5I1RHQt_16threadkit_common5redisNtB4_11RedisClient3new0CscjQi9PvWoBf_16connection_tests
FN:136,_RNCNvMNtCsiekp5I1RHQt_16threadkit_common5redisNtB4_11RedisClient8set_user0CscjQi9PvWoBf_16connection_tests
FN:1982,_RINvMNtCsiekp5I1RHQt_16threadkit_common5redisNtB3_11RedisClient12hgetall_jsonNtNtB5_5types4UserECsbuQPXyPdc1s_19threadkit_websocket
FN:1982,_RNCINvMNtCsiekp5I1RHQt_16threadkit_common5redisNtB5_11RedisClient12hgetall_jsonNtNtB7_5types4UserE0CsbuQPXyPdc1s_19threadkit_websocket
FN:2000,_RNCNCINvMNtCsiekp5I1RHQt_16threadkit_common5redisNtB7_11RedisClient12hgetall_jsonNtNtB9_5types4UserE00CsbuQPXyPdc1s_19threadkit_websocket
FN:1382,_RNCNCNvMNtCsiekp5I1RHQt_16threadkit_common5redisNtB6_11RedisClient12get_presence00CsbuQPXyPdc1s_19threadkit_websocket
FN:1480,_RNCNCNvMNtCsiekp5I1RHQt_16threadkit_common5redisNtB6_11RedisClient15get_site_config00CsbuQPXyPdc1s_19threadkit_websocket
FN:1465,_RNCNCNvMNtCsiekp5I1RHQt_16threadkit_common5redisNtB6_11RedisClient21get_cached_project_id00CsbuQPXyPdc1s_19threadkit_websocket
FN:1331,_RNCNvMNtCsiekp5I1RHQt_16threadkit_common5redisNtB4_11RedisClient10set_typing0CsbuQPXyPdc1s_19threadkit_websocket
FN:1363,_RNCNvMNtCsiekp5I1RHQt_16threadkit_common5redisNtB4_11RedisClient12add_presence0CsbuQPXyPdc1s_19threadkit_websocket
FN:1377,_RNCNvMNtCsiekp5I1RHQt_16threadkit_common5redisNtB4_11RedisClient12get_presence0CsbuQPXyPdc1s_19threadkit_websocket
FN:1478,_RNCNvMNtCsiekp5I1RHQt_16threadkit_common5redisNtB4_11RedisClient15get_site_config0CsbuQPXyPdc1s_19threadkit_websocket
FN:1424,_RNCNvMNtCsiekp5I1RHQt_16threadkit_common5redisNtB4_11RedisClient15increment_usage0CsbuQPXyPdc1s_19threadkit_websocket
FN:1370,_RNCNvMNtCsiekp5I1RHQt_16threadkit_common5redisNtB4_11RedisClient15remove_presence0CsbuQPXyPdc1s_19threadkit_websocket
FN:1449,_RNCNvMNtCsiekp5I1RHQt_16threadkit_common5redisNtB4_11RedisClient16cache_project_id0CsbuQPXyPdc1s_19threadkit_websocket
FN:1432,_RNCNvMNtCsiekp5I1RHQt_16threadkit_common5redisNtB4_11RedisClient18add_unique_visitor0CsbuQPXyPdc1s_19threadkit_websocket
FN:1463,_RNCNvMNtCsiekp5I1RHQt_16threadkit_common5redisNtB4_11RedisClient21get_cached_project_id0CsbuQPXyPdc1s_19threadkit_websocket
FN:1484,_RNCNvMNtCsiekp5I1RHQt_16threadkit_common5redisNtB4_11RedisClient26get_site_config_by_api_key0CsbuQPXyPdc1s_19threadkit_websocket
FN:1623,_RNCNvMNtCsiekp5I1RHQt_16threadkit_common5redisNtB4_11RedisClient7publish0CsbuQPXyPdc1s_19threadkit_websocket
FN:132,_RNCNvMNtCsiekp5I1RHQt_16threadkit_common5redisNtB4_11RedisClient8get_user0CsbuQPXyPdc1s_19threadkit_websocket
FN:57,_RNCNCNvMNtCsiekp5I1RHQt_16threadkit_common5redisNtB6_11RedisClient16load_lua_scripts00Cs2N948IYtZ75_11media_tests
FN:66,_RNCNCNvMNtCsiekp5I1RHQt_16threadkit_common5redisNtB6_11RedisClient16load_lua_scripts0s0_0Cs2N948IYtZ75_11media_tests
FN:67,_RNCNCNvMNtCsiekp5I1RHQt_16threadkit_common5redisNtB6_11RedisClient16load_lua_scripts0s1_0Cs2N948IYtZ75_11media_tests
FN:70,_RNCNCNvMNtCsiekp5I1RHQt_16threadkit_common5redisNtB6_11RedisClient16load_lua_scripts0s2_0Cs2N948IYtZ75_11media_tests
FN:72,_RNCNCNvMNtCsiekp5I1RHQt_16threadkit_common5redisNtB6_11RedisClient16load_lua_scripts0s3_0Cs2N948IYtZ75_11media_tests
FN:73,_RNCNCNvMNtCsiekp5I1RHQt_16threadkit_common5redisNtB6_11RedisClient16load_lua_scripts0s4_0Cs2N948IYtZ75_11media_tests
FN:76,_RNCNCNvMNtCsiekp5I1RHQt_16threadkit_common5redisNtB6_11RedisClient16load_lua_scripts0s5_0Cs2N948IYtZ75_11media_tests
FN:89,_RNCNCNvMNtCsiekp5I1RHQt_16threadkit_common5redisNtB6_11RedisClient16load_lua_scripts0s6_0Cs2N948IYtZ75_11media_tests
FN:58,_RNCNCNvMNtCsiekp5I1RHQt_16threadkit_common5redisNtB6_11RedisClient16load_lua_scripts0s_0Cs2N948IYtZ75_11media_tests
FN:52,_RNCNvMNtCsiekp5I1RHQt_16threadkit_common5redisNtB4_11RedisClient16load_lua_scripts0Cs2N948IYtZ75_11media_tests
FN:40,_RNCNvMNtCsiekp5I1RHQt_16threadkit_common5redisNtB4_11RedisClient3new0Cs2N948IYtZ75_11media_tests
FN:57,_RNCNCNvMNtCsiekp5I1RHQt_16threadkit_common5redisNtB6_11RedisClient16load_lua_scripts00Cs9WZ6y3JiwVO_16moderation_tests
FN:66,_RNCNCNvMNtCsiekp5I1RHQt_16threadkit_common5redisNtB6_11RedisClient16load_lua_scripts0s0_0Cs9WZ6y3JiwVO_16moderation_tests
FN:67,_RNCNCNvMNtCsiekp5I1RHQt_16threadkit_common5redisNtB6_11RedisClient16load_lua_scripts0s1_0Cs9WZ6y3JiwVO_16moderation_tests
FN:70,_RNCNCNvMNtCsiekp5I1RHQt_16threadkit_common5redisNtB6_11RedisClient16load_lua_scripts0s2_0Cs9WZ6y3JiwVO_16moderation_tests
FN:72,_RNCNCNvMNtCsiekp5I1RHQt_16threadkit_common5redisNtB6_11RedisClient16load_lua_scripts0s3_0Cs9WZ6y3JiwVO_16moderation_tests
FN:73,_RNCNCNvMNtCsiekp5I1RHQt_16threadkit_common5redisNtB6_11RedisClient16load_lua_scripts0s4_0Cs9WZ6y3JiwVO_16moderation_tests
FN:76,_RNCNCNvMNtCsiekp5I1RHQt_16threadkit_common5redisNtB6_11RedisClient16load_lua_scripts0s5_0Cs9WZ6y3JiwVO_16moderation_tests
FN:89,_RNCNCNvMNtCsiekp5I1RHQt_16threadkit_common5redisNtB6_11RedisClient16load_lua_scripts0s6_0Cs9WZ6y3JiwVO_16moderation_tests
FN:58,_RNCNCNvMNtCsiekp5I1RHQt_16threadkit_common5redisNtB6_11RedisClient16load_lua_scripts0s_0Cs9WZ6y3JiwVO_16moderation_tests
FN:52,_RNCNvMNtCsiekp5I1RHQt_16threadkit_common5redisNtB4_11RedisClient16load_lua_scripts0Cs9WZ6y3JiwVO_16moderation_tests
FN:1469,_RNCNvMNtCsiekp5I1RHQt_16threadkit_common5redisNtB4_11RedisClient27invalidate_project_id_cache0Cs9WZ6y3JiwVO_16moderation_tests
FN:40,_RNCNvMNtCsiekp5I1RHQt_16threadkit_common5redisNtB4_11RedisClient3new0Cs9WZ6y3JiwVO_16moderation_tests
FN:57,_RNCNCNvMNtCsiekp5I1RHQt_16threadkit_common5redisNtB6_11RedisClient16load_lua_scripts00CskHzlUDlR1w5_16rate_limit_tests
FN:66,_RNCNCNvMNtCsiekp5I1RHQt_16threadkit_common5redisNtB6_11RedisClient16load_lua_scripts0s0_0CskHzlUDlR1w5_16rate_limit_tests
FN:67,_RNCNCNvMNtCsiekp5I1RHQt_16threadkit_common5redisNtB6_11RedisClient16load_lua_scripts0s1_0CskHzlUDlR1w5_16rate_limit_tests
FN:70,_RNCNCNvMNtCsiekp5I1RHQt_16threadkit_common5redisNtB6_11RedisClient16load_lua_scripts0s2_0CskHzlUDlR1w5_16rate_limit_tests
FN:72,_RNCNCNvMNtCsiekp5I1RHQt_16threadkit_common5redisNtB6_11RedisClient16load_lua_scripts0s3_0CskHzlUDlR1w5_16rate_limit_tests
FN:73,_RNCNCNvMNtCsiekp5I1RHQt_16threadkit_common5redisNtB6_11RedisClient16load_lua_scripts0s4_0CskHzlUDlR1w5_16rate_limit_tests
FN:76,_RNCNCNvMNtCsiekp5I1RHQt_16threadkit_common5redisNtB6_11RedisClient16load_lua_scripts0s5_0CskHzlUDlR1w5_16rate_limit_tests
FN:89,_RNCNCNvMNtCsiekp5I1RHQt_16threadkit_common5redisNtB6_11RedisClient16load_lua_scripts0s6_0CskHzlUDlR1w5_16rate_limit_tests
FN:58,_RNCNCNvMNtCsiekp5I1RHQt_16threadkit_common5redisNtB6_11RedisClient16load_lua_scripts0s_0CskHzlUDlR1w5_16rate_limit_tests
FN:52,_RNCNvMNtCsiekp5I1RHQt_16threadkit_common5redisNtB4_11RedisClient16load_lua_scripts0CskHzlUDlR1w5_16rate_limit_tests
FN:40,_RNCNvMNtCsiekp5I1RHQt_16threadkit_common5redisNtB4_11RedisClient3new0CskHzlUDlR1w5_16rate_limit_tests
FN:2009,_RINvMNtCsiekp5I1RHQt_16threadkit_common5redisNtB3_11RedisClient12hsetall_jsonNtNtB5_5types4UserECshw9S9r8R7ht_18subscription_tests
FN:2009,_RNCINvMNtCsiekp5I1RHQt_16threadkit_common5redisNtB5_11RedisClient12hsetall_jsonNtNtB7_5types4UserE0Cshw9S9r8R7ht_18subscription_tests
FN:2014,_RNCNCINvMNtCsiekp5I1RHQt_16threadkit_common5redisNtB7_11RedisClient12hsetall_jsonNtNtB9_5types4UserE00Cshw9S9r8R7ht_18subscription_tests
FN:57,_RNCNCNvMNtCsiekp5I1RHQt_16threadkit_common5redisNtB6_11RedisClient16load_lua_scripts00Cshw9S9r8R7ht_18subscription_tests
FN:66,_RNCNCNvMNtCsiekp5I1RHQt_16threadkit_common5redisNtB6_11RedisClient16load_lua_scripts0s0_0Cshw9S9r8R7ht_18subscription_tests
FN:67,_RNCNCNvMNtCsiekp5I1RHQt_16threadkit_common5redisNtB6_11RedisClient16load_lua_scripts0s1_0Cshw9S9r8R7ht_18subscription_tests
FN:70,_RNCNCNvMNtCsiekp5I1RHQt_16threadkit_common5redisNtB6_11RedisClient16load_lua_scripts0s2_0Cshw9S9r8R7ht_18subscription_tests
FN:72,_RNCNCNvMNtCsiekp5I1RHQt_16threadkit_common5redisNtB6_11RedisClient16load_lua_scripts0s3_0Cshw9S9r8R7ht_18subscription_tests
FN:73,_RNCNCNvMNtCsiekp5I1RHQt_16threadkit_common5redisNtB6_11RedisClient16load_lua_scripts0s4_0Cshw9S9r8R7ht_18subscription_tests
FN:76,_RNCNCNvMNtCsiekp5I1RHQt_16threadkit_common5redisNtB6_11RedisClient16load_lua_scripts0s5_0Cshw9S9r8R7ht_18subscription_tests
FN:89,_RNCNCNvMNtCsiekp5I1RHQt_16threadkit_common5redisNtB6_11RedisClient16load_lua_scripts0s6_0Cshw9S9r8R7ht_18subscription_tests
FN:58,_RNCNCNvMNtCsiekp5I1RHQt_16threadkit_common5redisNtB6_11RedisClient16load_lua_scripts0s_0Cshw9S9r8R7ht_18subscription_tests
FN:1506,_RNCNvMNtCsiekp5I1RHQt_16threadkit_common5redisNtB4_11RedisClient15set_site_config0Cshw9S9r8R7ht_18subscription_tests
FN:52,_RNCNvMNtCsiekp5I1RHQt_16threadkit_common5redisNtB4_11RedisClient16load_lua_scripts0Cshw9S9r8R7ht_18subscription_tests
FN:40,_RNCNvMNtCsiekp5I1RHQt_16threadkit_common5redisNtB4_11RedisClient3new0Cshw9S9r8R7ht_18subscription_tests
FN:136,_RNCNvMNtCsiekp5I1RHQt_16threadkit_common5redisNtB4_11RedisClient8set_user0Cshw9S9r8R7ht_18subscription_tests
FN:1982,_RINvMNtCs9dCHYEAjrI1_16threadkit_common5redisNtB3_11RedisClient12hgetall_jsonpEB5_
FN:2009,_RINvMNtCs9dCHYEAjrI1_16threadkit_common5redisNtB3_11RedisClient12hsetall_jsonpEB5_
FN:1982,_RNCINvMNtCs9dCHYEAjrI1_16threadkit_common5redisNtB5_11RedisClient12hgetall_jsonpE0B7_
FN:2009,_RNCINvMNtCs9dCHYEAjrI1_16threadkit_common5redisNtB5_11RedisClient12hsetall_jsonpE0B7_
FN:2000,_RNCNCINvMNtCs9dCHYEAjrI1_16threadkit_common5redisNtB7_11RedisClient12hgetall_jsonpE00B9_
FN:2014,_RNCNCINvMNtCs9dCHYEAjrI1_16threadkit_common5redisNtB7_11RedisClient12hsetall_jsonpE00B9_
FN:649,_RNCNCNCNvMNtCs9dCHYEAjrI1_16threadkit_common5redisNtB8_11RedisClient15get_users_batch000Ba_
FN:655,_RNCNCNCNvMNtCs9dCHYEAjrI1_16threadkit_common5redisNtB8_11RedisClient15get_users_batch0s_00Ba_
FN:667,_RNCNCNCNvMNtCs9dCHYEAjrI1_16threadkit_common5redisNtB8_11RedisClient15get_votes_batch000Ba_
FN:673,_RNCNCNCNvMNtCs9dCHYEAjrI1_16threadkit_common5redisNtB8_11RedisClient15get_votes_batch0s_00Ba_
FN:1907,_RNCNCNCNvMNtCs9dCHYEAjrI1_16threadkit_common5redisNtB8_11RedisClient19get_pinned_comments000Ba_
FN:933,_RNCNCNvMNtCs9dCHYEAjrI1_16threadkit_common5redisNtB6_11RedisClient10get_admins00B8_
FN:820,_RNCNCNvMNtCs9dCHYEAjrI1_16threadkit_common5redisNtB6_11RedisClient11atomic_vote00B8_
FN:843,_RNCNCNvMNtCs9dCHYEAjrI1_16threadkit_common5redisNtB6_11RedisClient11atomic_vote0s0_0B8_
FN:845,_RNCNCNvMNtCs9dCHYEAjrI1_16threadkit_common5redisNtB6_11RedisClient11atomic_vote0s1_0B8_
FN:871,_RNCNCNvMNtCs9dCHYEAjrI1_16threadkit_common5redisNtB6_11RedisClient11atomic_vote0s2_0B8_
FN:872,_RNCNCNvMNtCs9dCHYEAjrI1_16threadkit_common5redisNtB6_11RedisClient11atomic_vote0s3_0B8_
FN:873,_RNCNCNvMNtCs9dCHYEAjrI1_16threadkit_common5redisNtB6_11RedisClient11atomic_vote0s4_0B8_
FN:874,_RNCNCNvMNtCs9dCHYEAjrI1_16threadkit_common5redisNtB6_11RedisClient11atomic_vote0s5_0B8_
FN:823,_RNCNCNvMNtCs9dCHYEAjrI1_16threadkit_common5redisNtB6_11RedisClient11atomic_vote0s_0B8_
FN:1615,_RNCNCNvMNtCs9dCHYEAjrI1_16threadkit_common5redisNtB6_11RedisClient11get_reports00B8_
FN:1382,_RNCNCNvMNtCs9dCHYEAjrI1_16threadkit_common5redisNtB6_11RedisClient12get_presence00B8_
FN:260,_RNCNCNvMNtCs9dCHYEAjrI1_16threadkit_common5redisNtB6_11RedisClient13get_page_tree00B8_
FN:1099,_RNCNCNvMNtCs9dCHYEAjrI1_16threadkit_common5redisNtB6_11RedisClient14get_blocked_by00B8_
FN:955,_RNCNCNvMNtCs9dCHYEAjrI1_16threadkit_common5redisNtB6_11RedisClient14get_moderators00B8_
FN:500,_RNCNCNvMNtCs9dCHYEAjrI1_16threadkit_common5redisNtB6_11RedisClient14get_reports_v200B8_
FN:1287,_RNCNCNvMNtCs9dCHYEAjrI1_16threadkit_common5redisNtB6_11RedisClient14get_user_media00B8_
FN:1775,_RNCNCNvMNtCs9dCHYEAjrI1_16threadkit_common5redisNtB6_11RedisClient14get_user_votes00B8_
FN:454,_RNCNCNvMNtCs9dCHYEAjrI1_16threadkit_common5redisNtB6_11RedisClient15get_modqueue_v200B8_
FN:1480,_RNCNCNvMNtCs9dCHYEAjrI1_16threadkit_common5redisNtB6_11RedisClient15get_site_config00B8_
FN:649,_RNCNCNvMNtCs9dCHYEAjrI1_16threadkit_common5redisNtB6_11RedisClient15get_users_batch00B8_
FN:655,_RNCNCNvMNtCs9dCHYEAjrI1_16threadkit_common5redisNtB6_11RedisClient15get_users_batch0s_0B8_
FN:667,_RNCNCNvMNtCs9dCHYEAjrI1_16threadkit_common5redisNtB6_11RedisClient15get_votes_batch00B8_
FN:673,_RNCNCNvMNtCs9dCHYEAjrI1_16threadkit_common5redisNtB6_11RedisClient15get_votes_batch0s_0B8_
FN:1956,_RNCNCNvMNtCs9dCHYEAjrI1_16threadkit_common5redisNtB6_11RedisClient16get_locked_pages00B8_
FN:1317,_RNCNCNvMNtCs9dCHYEAjrI1_16threadkit_common5redisNtB6_11RedisClient16get_session_user00B8_
FN:1360,_RNCNCNvMNtCs9dCHYEAjrI1_16threadkit_common5redisNtB6_11RedisClient16get_typing_users00B8_
FN:57,_RNCNCNvMNtCs9dCHYEAjrI1_16threadkit_common5redisNtB6_11RedisClient16load_lua_scripts00B8_
FN:66,_RNCNCNvMNtCs9dCHYEAjrI1_16threadkit_common5redisNtB6_11RedisClient16load_lua_scripts0s0_0B8_
FN:67,_RNCNCNvMNtCs9dCHYEAjrI1_16threadkit_common5redisNtB6_11RedisClient16load_lua_scripts0s1_0B8_
FN:70,_RNCNCNvMNtCs9dCHYEAjrI1_16threadkit_common5redisNtB6_11RedisClient16load_lua_scripts0s2_0B8_
FN:72,_RNCNCNvMNtCs9dCHYEAjrI1_16threadkit_common5redisNtB6_11RedisClient16load_lua_scripts0s3_0B8_
FN:73,_RNCNCNvMNtCs9dCHYEAjrI1_16threadkit_common5redisNtB6_11RedisClient16load_lua_scripts0s4_0B8_
FN:76,_RNCNCNvMNtCs9dCHYEAjrI1_16threadkit_common5redisNtB6_11RedisClient16load_lua_scripts0s5_0B8_
FN:89,_RNCNCNvMNtCs9dCHYEAjrI1_16threadkit_common5redisNtB6_11RedisClient16load_lua_scripts0s6_0B8_
FN:58,_RNCNCNvMNtCs9dCHYEAjrI1_16threadkit_common5redisNtB6_11RedisClient16load_lua_scripts0s_0B8_
FN:1090,_RNCNCNvMNtCs9dCHYEAjrI1_16threadkit_common5redisNtB6_11RedisClient17get_blocked_users00B8_
FN:1141,_RNCNCNvMNtCs9dCHYEAjrI1_16threadkit_common5redisNtB6_11RedisClient17get_notifications00B8_
FN:603,_RNCNCNvMNtCs9dCHYEAjrI1_16threadkit_common5redisNtB6_11RedisClient17get_page_comments00B8_
FN:142,_RNCNCNvMNtCs9dCHYEAjrI1_16threadkit_common5redisNtB6_11RedisClient17get_user_by_email00B8_
FN:196,_RNCNCNvMNtCs9dCHYEAjrI1_16threadkit_common5redisNtB6_11RedisClient17get_user_by_phone00B8_
FN:1005,_RNCNCNvMNtCs9dCHYEAjrI1_16threadkit_common5redisNtB6_11RedisClient17get_user_comments00B8_
FN:631,_RNCNCNvMNtCs9dCHYEAjrI1_16threadkit_common5redisNtB6_11RedisClient18get_comments_batch00B8_
FN:635,_RNCNCNvMNtCs9dCHYEAjrI1_16threadkit_common5redisNtB6_11RedisClient18get_comments_batch0s_0B8_
FN:1232,_RNCNCNvMNtCs9dCHYEAjrI1_16threadkit_common5redisNtB6_11RedisClient18get_user_by_wallet00B8_
FN:620,_RNCNCNvMNtCs9dCHYEAjrI1_16threadkit_common5redisNtB6_11RedisClient19get_comment_replies00B8_
FN:1906,_RNCNCNvMNtCs9dCHYEAjrI1_16threadkit_common5redisNtB6_11RedisClient19get_pinned_comments00B8_
FN:1568,_RNCNCNvMNtCs9dCHYEAjrI1_16threadkit_common5redisNtB6_11RedisClient20get_moderation_queue00B8_
FN:226,_RNCNCNvMNtCs9dCHYEAjrI1_16threadkit_common5redisNtB6_11RedisClient20get_user_by_provider00B8_
FN:160,_RNCNCNvMNtCs9dCHYEAjrI1_16threadkit_common5redisNtB6_11RedisClient20get_user_by_username00B8_
FN:1969,_RNCNCNvMNtCs9dCHYEAjrI1_16threadkit_common5redisNtB6_11RedisClient20update_site_settings00B8_
FN:1465,_RNCNCNvMNtCs9dCHYEAjrI1_16threadkit_common5redisNtB6_11RedisClient21get_cached_project_id00B8_
FN:1183,_RNCNCNvMNtCs9dCHYEAjrI1_16threadkit_common5redisNtB6_11RedisClient21get_verification_code00B8_
FN:1543,_RNCNCNvMNtCs9dCHYEAjrI1_16threadkit_common5redisNtB6_11RedisClient22get_site_by_project_id00B8_
FN:1547,_RNCNCNvMNtCs9dCHYEAjrI1_16threadkit_common5redisNtB6_11RedisClient22get_site_by_project_id0s_0B8_
FN:372,_RNCNCNvMNtCs9dCHYEAjrI1_16threadkit_common5redisNtB6_11RedisClient22get_site_comment_index00B8_
FN:346,_RNCNCNvMNtCs9dCHYEAjrI1_16threadkit_common5redisNtB6_11RedisClient22get_user_comment_index00B8_
FN:398,_RNCNCNvMNtCs9dCHYEAjrI1_16threadkit_common5redisNtB6_11RedisClient22get_user_site_comments00B8_
FN:717,_RNCNCNvMNtCs9dCHYEAjrI1_16threadkit_common5redisNtB6_11RedisClient8get_vote00B8_
FN:1582,_RNCNvMNtCs9dCHYEAjrI1_16threadkit_common5redisNtB4_11RedisClient10add_report0B6_
FN:958,_RNCNvMNtCs9dCHYEAjrI1_16threadkit_common5redisNtB4_11RedisClient10block_user0B6_
FN:928,_RNCNvMNtCs9dCHYEAjrI1_16threadkit_common5redisNtB4_11RedisClient10get_admins0B6_
FN:1331,_RNCNvMNtCs9dCHYEAjrI1_16threadkit_common5redisNtB4_11RedisClient10set_typing0B6_
FN:812,_RNCNvMNtCs9dCHYEAjrI1_16threadkit_common5redisNtB4_11RedisClient11atomic_vote0B6_
FN:1499,_RNCNvMNtCs9dCHYEAjrI1_16threadkit_common5redisNtB4_11RedisClient11count_sites0B6_
FN:741,_RNCNvMNtCs9dCHYEAjrI1_16threadkit_common5redisNtB4_11RedisClient11delete_vote0B6_
FN:515,_RNCNvMNtCs9dCHYEAjrI1_16threadkit_common5redisNtB4_11RedisClient11get_comment0B6_
FN:1599,_RNCNvMNtCs9dCHYEAjrI1_16threadkit_common5redisNtB4_11RedisClient11get_reports0B6_
FN:1867,_RNCNvMNtCs9dCHYEAjrI1_16threadkit_common5redisNtB4_11RedisClient11pin_comment0B6_
FN:519,_RNCNvMNtCs9dCHYEAjrI1_16threadkit_common5redisNtB4_11RedisClient11set_comment0B6_
FN:1934,_RNCNvMNtCs9dCHYEAjrI1_16threadkit_common5redisNtB4_11RedisClient11unlock_page0B6_
FN:1363,_RNCNvMNtCs9dCHYEAjrI1_16threadkit_common5redisNtB4_11RedisClient12add_presence0B6_
FN:1377,_RNCNvMNtCs9dCHYEAjrI1_16threadkit_common5redisNtB4_11RedisClient12get_presence0B6_
FN:921,_RNCNvMNtCs9dCHYEAjrI1_16threadkit_common5redisNtB4_11RedisClient12remove_admin0B6_
FN:965,_RNCNvMNtCs9dCHYEAjrI1_16threadkit_common5redisNtB4_11RedisClient12unblock_user0B6_
FN:936,_RNCNvMNtCs9dCHYEAjrI1_16threadkit_common5redisNtB4_11RedisClient13add_moderator0B6_
FN:466,_RNCNvMNtCs9dCHYEAjrI1_16threadkit_common5redisNtB4_11RedisClient13add_report_v20B6_
FN:1754,_RNCNvMNtCs9dCHYEAjrI1_16threadkit_common5redisNtB4_11RedisClient13add_user_vote0B6_
FN:258,_RNCNvMNtCs9dCHYEAjrI1_16threadkit_common5redisNtB4_11RedisClient13get_page_tree0B6_
FN:1411,_RNCNvMNtCs9dCHYEAjrI1_16threadkit_common5redisNtB4_11RedisClient13get_pageviews0B6_
FN:883,_RNCNvMNtCs9dCHYEAjrI1_16threadkit_common5redisNtB4_11RedisClient13get_user_role0B6_
FN:264,_RNCNvMNtCs9dCHYEAjrI1_16threadkit_common5redisNtB4_11RedisClient13set_page_tree0B6_
FN:754,_RNCNvMNtCs9dCHYEAjrI1_16threadkit_common5redisNtB4_11RedisClient13set_page_vote0B6_
FN:1882,_RNCNvMNtCs9dCHYEAjrI1_16threadkit_common5redisNtB4_11RedisClient13unpin_comment0B6_
FN:1270,_RNCNvMNtCs9dCHYEAjrI1_16threadkit_common5redisNtB4_11RedisClient14add_user_media0B6_
FN:1294,_RNCNvMNtCs9dCHYEAjrI1_16threadkit_common5redisNtB4_11RedisClient14create_session0B6_
FN:1320,_RNCNvMNtCs9dCHYEAjrI1_16threadkit_common5redisNtB4_11RedisClient14delete_session0B6_
FN:1094,_RNCNvMNtCs9dCHYEAjrI1_16threadkit_common5redisNtB4_11RedisClient14get_blocked_by0B6_
FN:1259,_RNCNvMNtCs9dCHYEAjrI1_16threadkit_common5redisNtB4_11RedisClient14get_media_info0B6_
FN:950,_RNCNvMNtCs9dCHYEAjrI1_16threadkit_common5redisNtB4_11RedisClient14get_moderators0B6_
FN:781,_RNCNvMNtCs9dCHYEAjrI1_16threadkit_common5redisNtB4_11RedisClient14get_page_votes0B6_
FN:484,_RNCNvMNtCs9dCHYEAjrI1_16threadkit_common5redisNtB4_11RedisClient14get_reports_v20B6_
FN:1284,_RNCNvMNtCs9dCHYEAjrI1_16threadkit_common5redisNtB4_11RedisClient14get_user_media0B6_
FN:1770,_RNCNvMNtCs9dCHYEAjrI1_16threadkit_common5redisNtB4_11RedisClient14get_user_votes0B6_
FN:1210,_RNCNvMNtCs9dCHYEAjrI1_16threadkit_common5redisNtB4_11RedisClient14get_web3_nonce0B6_
FN:1942,_RNCNvMNtCs9dCHYEAjrI1_16threadkit_common5redisNtB4_11RedisClient14is_page_locked0B6_
FN:1254,_RNCNvMNtCs9dCHYEAjrI1_16threadkit_common5redisNtB4_11RedisClient14set_media_info0B6_
FN:1196,_RNCNvMNtCs9dCHYEAjrI1_16threadkit_common5redisNtB4_11RedisClient14set_web3_nonce0B6_
FN:972,_RNCNvMNtCs9dCHYEAjrI1_16threadkit_common5redisNtB4_11RedisClient14shadowban_user0B6_
FN:411,_RNCNvMNtCs9dCHYEAjrI1_16threadkit_common5redisNtB4_11RedisClient15add_to_modqueue0B6_
FN:438,_RNCNvMNtCs9dCHYEAjrI1_16threadkit_common5redisNtB4_11RedisClient15get_modqueue_v20B6_
FN:1478,_RNCNvMNtCs9dCHYEAjrI1_16threadkit_common5redisNtB4_11RedisClient15get_site_config0B6_
FN:639,_RNCNvMNtCs9dCHYEAjrI1_16threadkit_common5redisNtB4_11RedisClient15get_users_batch0B6_
FN:660,_RNCNvMNtCs9dCHYEAjrI1_16threadkit_common5redisNtB4_11RedisClient15get_votes_batch0B6_
FN:1424,_RNCNvMNtCs9dCHYEAjrI1_16threadkit_common5redisNtB4_11RedisClient15increment_usage0B6_
FN:979,_RNCNvMNtCs9dCHYEAjrI1_16threadkit_common5redisNtB4_11RedisClient15is_shadowbanned0B6_
FN:1370,_RNCNvMNtCs9dCHYEAjrI1_16threadkit_common5redisNtB4_11RedisClient15remove_presence0B6_
FN:1506,_RNCNvMNtCs9dCHYEAjrI1_16threadkit_common5redisNtB4_11RedisClient15set_site_config0B6_
FN:115,_RNCNvMNtCs9dCHYEAjrI1_16threadkit_common5redisNtB4_11RedisClient15set_with_expiry0B6_
FN:1106,_RNCNvMNtCs9dCHYEAjrI1_16threadkit_common5redisNtB4_11RedisClient16add_notification0B6_
FN:992,_RNCNvMNtCs9dCHYEAjrI1_16threadkit_common5redisNtB4_11RedisClient16add_user_comment0B6_
FN:1449,_RNCNvMNtCs9dCHYEAjrI1_16threadkit_common5redisNtB4_11RedisClient16cache_project_id0B6_
FN:1789,_RNCNvMNtCs9dCHYEAjrI1_16threadkit_common5redisNtB4_11RedisClient16check_rate_limit0B6_
FN:769,_RNCNvMNtCs9dCHYEAjrI1_16threadkit_common5redisNtB4_11RedisClient16delete_page_vote0B6_
FN:1951,_RNCNvMNtCs9dCHYEAjrI1_16threadkit_common5redisNtB4_11RedisClient16get_locked_pages0B6_
FN:1312,_RNCNvMNtCs9dCHYEAjrI1_16threadkit_common5redisNtB4_11RedisClient16get_session_user0B6_
FN:1346,_RNCNvMNtCs9dCHYEAjrI1_16threadkit_common5redisNtB4_11RedisClient16get_typing_users0B6_
FN:1147,_RNCNvMNtCs9dCHYEAjrI1_16threadkit_common5redisNtB4_11RedisClient16get_unread_count0B6_
FN:52,_RNCNvMNtCs9dCHYEAjrI1_16threadkit_common5redisNtB4_11RedisClient16load_lua_scripts0B6_
FN:943,_RNCNvMNtCs9dCHYEAjrI1_16threadkit_common5redisNtB4_11RedisClient16remove_moderator0B6_
FN:1762,_RNCNvMNtCs9dCHYEAjrI1_16threadkit_common5redisNtB4_11RedisClient16remove_user_vote0B6_
FN:1264,_RNCNvMNtCs9dCHYEAjrI1_16threadkit_common5redisNtB4_11RedisClient17delete_media_info0B6_
FN:1219,_RNCNvMNtCs9dCHYEAjrI1_16threadkit_common5redisNtB4_11RedisClient17delete_web3_nonce0B6_
FN:1085,_RNCNvMNtCs9dCHYEAjrI1_16threadkit_common5redisNtB4_11RedisClient17get_blocked_users0B6_
FN:1128,_RNCNvMNtCs9dCHYEAjrI1_16threadkit_common5redisNtB4_11RedisClient17get_notifications0B6_
FN:590,_RNCNvMNtCs9dCHYEAjrI1_16threadkit_common5redisNtB4_11RedisClient17get_page_comments0B6_
FN:140,_RNCNvMNtCs9dCHYEAjrI1_16threadkit_common5redisNtB4_11RedisClient17get_user_by_email0B6_
FN:194,_RNCNvMNtCs9dCHYEAjrI1_16threadkit_common5redisNtB4_11RedisClient17get_user_by_phone0B6_
FN:1000,_RNCNvMNtCs9dCHYEAjrI1_16threadkit_common5redisNtB4_11RedisClient17get_user_comments0B6_
FN:212,_RNCNvMNtCs9dCHYEAjrI1_16threadkit_common5redisNtB4_11RedisClient17get_user_password0B6_
FN:1913,_RNCNvMNtCs9dCHYEAjrI1_16threadkit_common5redisNtB4_11RedisClient17is_comment_pinned0B6_
FN:1277,_RNCNvMNtCs9dCHYEAjrI1_16threadkit_common5redisNtB4_11RedisClient17remove_user_media0B6_
FN:199,_RNCNvMNtCs9dCHYEAjrI1_16threadkit_common5redisNtB4_11RedisClient17set_user_password0B6_
FN:1021,_RNCNvMNtCs9dCHYEAjrI1_16threadkit_common5redisNtB4_11RedisClient17update_user_karma0B6_
FN:1432,_RNCNvMNtCs9dCHYEAjrI1_16threadkit_common5redisNtB4_11RedisClient18add_unique_visitor0B6_
FN:1052,_RNCNvMNtCs9dCHYEAjrI1_16threadkit_common5redisNtB4_11RedisClient18block_user_by_user0B6_
FN:624,_RNCNvMNtCs9dCHYEAjrI1_16threadkit_common5redisNtB4_11RedisClient18get_comments_batch0B6_
FN:1227,_RNCNvMNtCs9dCHYEAjrI1_16threadkit_common5redisNtB4_11RedisClient18get_user_by_wallet0B6_
FN:1389,_RNCNvMNtCs9dCHYEAjrI1_16threadkit_common5redisNtB4_11RedisClient18increment_pageview0B6_
FN:1076,_RNCNvMNtCs9dCHYEAjrI1_16threadkit_common5redisNtB4_11RedisClient18is_blocked_by_user0B6_
FN:1633,_RNCNvMNtCs9dCHYEAjrI1_16threadkit_common5redisNtB4_11RedisClient19delete_user_account0B6_
FN:606,_RNCNvMNtCs9dCHYEAjrI1_16threadkit_common5redisNtB4_11RedisClient19get_comment_replies0B6_
FN:1891,_RNCNvMNtCs9dCHYEAjrI1_16threadkit_common5redisNtB4_11RedisClient19get_pinned_comments0B6_
FN:1009,_RNCNvMNtCs9dCHYEAjrI1_16threadkit_common5redisNtB4_11RedisClient19remove_user_comment0B6_
FN:1554,_RNCNvMNtCs9dCHYEAjrI1_16threadkit_common5redisNtB4_11RedisClient20get_moderation_queue0B6_
FN:224,_RNCNvMNtCs9dCHYEAjrI1_16threadkit_common5redisNtB4_11RedisClient20get_user_by_provider0B6_
FN:158,_RNCNvMNtCs9dCHYEAjrI1_16threadkit_common5redisNtB4_11RedisClient20get_user_by_username0B6_
FN:1571,_RNCNvMNtCs9dCHYEAjrI1_16threadkit_common5redisNtB4_11RedisClient20remove_from_modqueue0B6_
FN:145,_RNCNvMNtCs9dCHYEAjrI1_16threadkit_common5redisNtB4_11RedisClient20set_user_email_index0B6_
FN:217,_RNCNvMNtCs9dCHYEAjrI1_16threadkit_common5redisNtB4_11RedisClient20set_user_phone_index0B6_
FN:1065,_RNCNvMNtCs9dCHYEAjrI1_16threadkit_common5redisNtB4_11RedisClient20unblock_user_by_user0B6_
FN:677,_RNCNvMNtCs9dCHYEAjrI1_16threadkit_common5redisNtB4_11RedisClient20update_comment_votes0B6_
FN:1964,_RNCNvMNtCs9dCHYEAjrI1_16threadkit_common5redisNtB4_11RedisClient20update_site_settings0B6_
FN:1463,_RNCNvMNtCs9dCHYEAjrI1_16threadkit_common5redisNtB4_11RedisClient21get_cached_project_id0B6_
FN:1840,_RNCNvMNtCs9dCHYEAjrI1_16threadkit_common5redisNtB4_11RedisClient21get_rate_limit_status0B6_
FN:1181,_RNCNvMNtCs9dCHYEAjrI1_16threadkit_common5redisNtB4_11RedisClient21get_verification_code0B6_
FN:184,_RNCNvMNtCs9dCHYEAjrI1_16threadkit_common5redisNtB4_11RedisClient21is_username_available0B6_
FN:1236,_RNCNvMNtCs9dCHYEAjrI1_16threadkit_common5redisNtB4_11RedisClient21set_user_wallet_index0B6_
FN:1167,_RNCNvMNtCs9dCHYEAjrI1_16threadkit_common5redisNtB4_11RedisClient21set_verification_code0B6_
FN:315,_RNCNvMNtCs9dCHYEAjrI1_16threadkit_common5redisNtB4_11RedisClient22add_site_comment_index0B6_
FN:281,_RNCNvMNtCs9dCHYEAjrI1_16threadkit_common5redisNtB4_11RedisClient22add_user_comment_index0B6_
FN:1536,_RNCNvMNtCs9dCHYEAjrI1_16threadkit_common5redisNtB4_11RedisClient22get_site_by_project_id0B6_
FN:359,_RNCNvMNtCs9dCHYEAjrI1_16threadkit_common5redisNtB4_11RedisClient22get_site_comment_index0B6_
FN:333,_RNCNvMNtCs9dCHYEAjrI1_16threadkit_common5redisNtB4_11RedisClient22get_user_comment_index0B6_
FN:385,_RNCNvMNtCs9dCHYEAjrI1_16threadkit_common5redisNtB4_11RedisClient22get_user_site_comments0B6_
FN:273,_RNCNvMNtCs9dCHYEAjrI1_16threadkit_common5redisNtB4_11RedisClient23get_or_create_page_tree0B6_
FN:1156,_RNCNvMNtCs9dCHYEAjrI1_16threadkit_common5redisNtB4_11RedisClient23mark_notifications_read0B6_
FN:428,_RNCNvMNtCs9dCHYEAjrI1_16threadkit_common5redisNtB4_11RedisClient23remove_from_modqueue_v20B6_
FN:229,_RNCNvMNtCs9dCHYEAjrI1_16threadkit_common5redisNtB4_11RedisClient23set_user_provider_index0B6_
FN:163,_RNCNvMNtCs9dCHYEAjrI1_16threadkit_common5redisNtB4_11RedisClient23set_user_username_index0B6_
FN:1186,_RNCNvMNtCs9dCHYEAjrI1_16threadkit_common5redisNtB4_11RedisClient24delete_verification_code0B6_
FN:176,_RNCNvMNtCs9dCHYEAjrI1_16threadkit_common5redisNtB4_11RedisClient26delete_user_username_index0B6_
FN:1484,_RNCNvMNtCs9dCHYEAjrI1_16threadkit_common5redisNtB4_11RedisClient26get_site_config_by_api_key0B6_
FN:298,_RNCNvMNtCs9dCHYEAjrI1_16threadkit_common5redisNtB4_11RedisClient27add_user_site_comment_index0B6_
FN:1469,_RNCNvMNtCs9dCHYEAjrI1_16threadkit_common5redisNtB4_11RedisClient27invalidate_project_id_cache0B6_
FN:1039,_RNCNvMNtCs9dCHYEAjrI1_16threadkit_common5redisNtB4_11RedisClient28decrement_user_comment_count0B6_
FN:1030,_RNCNvMNtCs9dCHYEAjrI1_16threadkit_common5redisNtB4_11RedisClient28increment_user_comment_count0B6_
FN:1398,_RNCNvMNtCs9dCHYEAjrI1_16threadkit_common5redisNtB4_11RedisClient29increment_pageview_with_usage0B6_
FN:40,_RNCNvMNtCs9dCHYEAjrI1_16threadkit_common5redisNtB4_11RedisClient3new0B6_
FN:103,_RNCNvMNtCs9dCHYEAjrI1_16threadkit_common5redisNtB4_11RedisClient4ping0B6_
FN:109,_RNCNvMNtCs9dCHYEAjrI1_16threadkit_common5redisNtB4_11RedisClient6exists0B6_
FN:1623,_RNCNvMNtCs9dCHYEAjrI1_16threadkit_common5redisNtB4_11RedisClient7publish0B6_
FN:132,_RNCNvMNtCs9dCHYEAjrI1_16threadkit_common5redisNtB4_11RedisClient8get_user0B6_
FN:711,_RNCNvMNtCs9dCHYEAjrI1_16threadkit_common5redisNtB4_11RedisClient8get_vote0B6_
FN:136,_RNCNvMNtCs9dCHYEAjrI1_16threadkit_common5redisNtB4_11RedisClient8set_user0B6_
FN:724,_RNCNvMNtCs9dCHYEAjrI1_16threadkit_common5redisNtB4_11RedisClient8set_vote0B6_
FN:914,_RNCNvMNtCs9dCHYEAjrI1_16threadkit_common5redisNtB4_11RedisClient9add_admin0B6_
FN:1926,_RNCNvMNtCs9dCHYEAjrI1_16threadkit_common5redisNtB4_11RedisClient9lock_page0B6_
FN:1582,_RNvMNtCs9dCHYEAjrI1_16threadkit_common5redisNtB2_11RedisClient10add_report
FN:958,_RNvMNtCs9dCHYEAjrI1_16threadkit_common5redisNtB2_11RedisClient10block_user
FN:928,_RNvMNtCs9dCHYEAjrI1_16threadkit_common5redisNtB2_11RedisClient10get_admins
FN:1331,_RNvMNtCs9dCHYEAjrI1_16threadkit_common5redisNtB2_11RedisClient10set_typing
FN:805,_RNvMNtCs9dCHYEAjrI1_16threadkit_common5redisNtB2_11RedisClient11atomic_vote
FN:1499,_RNvMNtCs9dCHYEAjrI1_16threadkit_common5redisNtB2_11RedisClient11count_sites
FN:741,_RNvMNtCs9dCHYEAjrI1_16threadkit_common5redisNtB2_11RedisClient11delete_vote
FN:515,_RNvMNtCs9dCHYEAjrI1_16threadkit_common5redisNtB2_11RedisClient11get_comment
FN:1599,_RNvMNtCs9dCHYEAjrI1_16threadkit_common5redisNtB2_11RedisClient11get_reports
FN:1867,_RNvMNtCs9dCHYEAjrI1_16threadkit_common5redisNtB2_11RedisClient11pin_comment
FN:519,_RNvMNtCs9dCHYEAjrI1_16threadkit_common5redisNtB2_11RedisClient11set_comment
FN:1934,_RNvMNtCs9dCHYEAjrI1_16threadkit_common5redisNtB2_11RedisClient11unlock_page
FN:1363,_RNvMNtCs9dCHYEAjrI1_16threadkit_common5redisNtB2_11RedisClient12add_presence
FN:1377,_RNvMNtCs9dCHYEAjrI1_16threadkit_common5redisNtB2_11RedisClient12get_presence
FN:921,_RNvMNtCs9dCHYEAjrI1_16threadkit_common5redisNtB2_11RedisClient12remove_admin
FN:965,_RNvMNtCs9dCHYEAjrI1_16threadkit_common5redisNtB2_11RedisClient12unblock_user
FN:936,_RNvMNtCs9dCHYEAjrI1_16threadkit_common5redisNtB2_11RedisClient13add_moderator
FN:466,_RNvMNtCs9dCHYEAjrI1_16threadkit_common5redisNtB2_11RedisClient13add_report_v2
FN:1754,_RNvMNtCs9dCHYEAjrI1_16threadkit_common5redisNtB2_11RedisClient13add_user_vote
FN:258,_RNvMNtCs9dCHYEAjrI1_16threadkit_common5redisNtB2_11RedisClient13get_page_tree
FN:1411,_RNvMNtCs9dCHYEAjrI1_16threadkit_common5redisNtB2_11RedisClient13get_pageviews
FN:883,_RNvMNtCs9dCHYEAjrI1_16threadkit_common5redisNtB2_11RedisClient13get_user_role
FN:264,_RNvMNtCs9dCHYEAjrI1_16threadkit_common5redisNtB2_11RedisClient13set_page_tree
FN:754,_RNvMNtCs9dCHYEAjrI1_16threadkit_common5redisNtB2_11RedisClient13set_page_vote
FN:1882,_RNvMNtCs9dCHYEAjrI1_16threadkit_common5redisNtB2_11RedisClient13unpin_comment
FN:1270,_RNvMNtCs9dCHYEAjrI1_16threadkit_common5redisNtB2_11RedisClient14add_user_media
FN:1294,_RNvMNtCs9dCHYEAjrI1_16threadkit_common5redisNtB2_11RedisClient14create_session
FN:1320,_RNvMNtCs9dCHYEAjrI1_16threadkit_common5redisNtB2_11RedisClient14delete_session
FN:1094,_RNvMNtCs9dCHYEAjrI1_16threadkit_common5redisNtB2_11RedisClient14get_blocked_by
FN:1259,_RNvMNtCs9dCHYEAjrI1_16threadkit_common5redisNtB2_11RedisClient14get_media_info
FN:950,_RNvMNtCs9dCHYEAjrI1_16threadkit_common5redisNtB2_11RedisClient14get_moderators
FN:781,_RNvMNtCs9dCHYEAjrI1_16threadkit_common5redisNtB2_11RedisClient14get_page_votes
FN:484,_RNvMNtCs9dCHYEAjrI1_16threadkit_common5redisNtB2_11RedisClient14get_reports_v2
FN:1284,_RNvMNtCs9dCHYEAjrI1_16threadkit_common5redisNtB2_11RedisClient14get_user_media
FN:1770,_RNvMNtCs9dCHYEAjrI1_16threadkit_common5redisNtB2_11RedisClient14get_user_votes
FN:1210,_RNvMNtCs9dCHYEAjrI1_16threadkit_common5redisNtB2_11RedisClient14get_web3_nonce
FN:1942,_RNvMNtCs9dCHYEAjrI1_16threadkit_common5redisNtB2_11RedisClient14is_page_locked
FN:1254,_RNvMNtCs9dCHYEAjrI1_16threadkit_common5redisNtB2_11RedisClient14set_media_info
FN:1196,_RNvMNtCs9dCHYEAjrI1_16threadkit_common5redisNtB2_11RedisClient14set_web3_nonce
FN:972,_RNvMNtCs9dCHYEAjrI1_16threadkit_common5redisNtB2_11RedisClient14shadowban_user
FN:411,_RNvMNtCs9dCHYEAjrI1_16threadkit_common5redisNtB2_11RedisClient15add_to_modqueue
FN:438,_RNvMNtCs9dCHYEAjrI1_16threadkit_common5redisNtB2_11RedisClient15get_modqueue_v2
FN:1478,_RNvMNtCs9dCHYEAjrI1_16threadkit_common5redisNtB2_11RedisClient15get_site_config
FN:639,_RNvMNtCs9dCHYEAjrI1_16threadkit_common5redisNtB2_11RedisClient15get_users_batch
FN:660,_RNvMNtCs9dCHYEAjrI1_16threadkit_common5redisNtB2_11RedisClient15get_votes_batch
FN:1424,_RNvMNtCs9dCHYEAjrI1_16threadkit_common5redisNtB2_11RedisClient15increment_usage
FN:979,_RNvMNtCs9dCHYEAjrI1_16threadkit_common5redisNtB2_11RedisClient15is_shadowbanned
FN:1370,_RNvMNtCs9dCHYEAjrI1_16threadkit_common5redisNtB2_11RedisClient15remove_presence
FN:1506,_RNvMNtCs9dCHYEAjrI1_16threadkit_common5redisNtB2_11RedisClient15set_site_config
FN:115,_RNvMNtCs9dCHYEAjrI1_16threadkit_common5redisNtB2_11RedisClient15set_with_expiry
FN:1106,_RNvMNtCs9dCHYEAjrI1_16threadkit_common5redisNtB2_11RedisClient16add_notification
FN:992,_RNvMNtCs9dCHYEAjrI1_16threadkit_common5redisNtB2_11RedisClient16add_user_comment
FN:1449,_RNvMNtCs9dCHYEAjrI1_16threadkit_common5redisNtB2_11RedisClient16cache_project_id
FN:1784,_RNvMNtCs9dCHYEAjrI1_16threadkit_common5redisNtB2_11RedisClient16check_rate_limit
FN:769,_RNvMNtCs9dCHYEAjrI1_16threadkit_common5redisNtB2_11RedisClient16delete_page_vote
FN:247,_RNvMNtCs9dCHYEAjrI1_16threadkit_common5redisNtB2_11RedisClient16generate_page_id
FN:1951,_RNvMNtCs9dCHYEAjrI1_16threadkit_common5redisNtB2_11RedisClient16get_locked_pages
FN:1312,_RNvMNtCs9dCHYEAjrI1_16threadkit_common5redisNtB2_11RedisClient16get_session_user
FN:1346,_RNvMNtCs9dCHYEAjrI1_16threadkit_common5redisNtB2_11RedisClient16get_typing_users
FN:1147,_RNvMNtCs9dCHYEAjrI1_16threadkit_common5redisNtB2_11RedisClient16get_unread_count
FN:52,_RNvMNtCs9dCHYEAjrI1_16threadkit_common5redisNtB2_11RedisClient16load_lua_scripts
FN:943,_RNvMNtCs9dCHYEAjrI1_16threadkit_common5redisNtB2_11RedisClient16remove_moderator
FN:1762,_RNvMNtCs9dCHYEAjrI1_16threadkit_common5redisNtB2_11RedisClient16remove_user_vote
FN:1264,_RNvMNtCs9dCHYEAjrI1_16threadkit_common5redisNtB2_11RedisClient17delete_media_info
FN:1219,_RNvMNtCs9dCHYEAjrI1_16threadkit_common5redisNtB2_11RedisClient17delete_web3_nonce
FN:1085,_RNvMNtCs9dCHYEAjrI1_16threadkit_common5redisNtB2_11RedisClient17get_blocked_users
FN:1128,_RNvMNtCs9dCHYEAjrI1_16threadkit_common5redisNtB2_11RedisClient17get_notifications
FN:584,_RNvMNtCs9dCHYEAjrI1_16threadkit_common5redisNtB2_11RedisClient17get_page_comments
FN:140,_RNvMNtCs9dCHYEAjrI1_16threadkit_common5redisNtB2_11RedisClient17get_user_by_email
FN:194,_RNvMNtCs9dCHYEAjrI1_16threadkit_common5redisNtB2_11RedisClient17get_user_by_phone
FN:1000,_RNvMNtCs9dCHYEAjrI1_16threadkit_common5redisNtB2_11RedisClient17get_user_comments
FN:212,_RNvMNtCs9dCHYEAjrI1_16threadkit_common5redisNtB2_11RedisClient17get_user_password
FN:1913,_RNvMNtCs9dCHYEAjrI1_16threadkit_common5redisNtB2_11RedisClient17is_comment_pinned
FN:1277,_RNvMNtCs9dCHYEAjrI1_16threadkit_common5redisNtB2_11RedisClient17remove_user_media
FN:199,_RNvMNtCs9dCHYEAjrI1_16threadkit_common5redisNtB2_11RedisClient17set_user_password
FN:1021,_RNvMNtCs9dCHYEAjrI1_16threadkit_common5redisNtB2_11RedisClient17update_user_karma
FN:1432,_RNvMNtCs9dCHYEAjrI1_16threadkit_common5redisNtB2_11RedisClient18add_unique_visitor
FN:1052,_RNvMNtCs9dCHYEAjrI1_16threadkit_common5redisNtB2_11RedisClient18block_user_by_user
FN:624,_RNvMNtCs9dCHYEAjrI1_16threadkit_common5redisNtB2_11RedisClient18get_comments_batch
FN:1227,_RNvMNtCs9dCHYEAjrI1_16threadkit_common5redisNtB2_11RedisClient18get_user_by_wallet
FN:1389,_RNvMNtCs9dCHYEAjrI1_16threadkit_common5redisNtB2_11RedisClient18increment_pageview
FN:1076,_RNvMNtCs9dCHYEAjrI1_16threadkit_common5redisNtB2_11RedisClient18is_blocked_by_user
FN:1633,_RNvMNtCs9dCHYEAjrI1_16threadkit_common5redisNtB2_11RedisClient19delete_user_account
FN:606,_RNvMNtCs9dCHYEAjrI1_16threadkit_common5redisNtB2_11RedisClient19get_comment_replies
FN:1891,_RNvMNtCs9dCHYEAjrI1_16threadkit_common5redisNtB2_11RedisClient19get_pinned_comments
FN:1009,_RNvMNtCs9dCHYEAjrI1_16threadkit_common5redisNtB2_11RedisClient19remove_user_comment
FN:1554,_RNvMNtCs9dCHYEAjrI1_16threadkit_common5redisNtB2_11RedisClient20get_moderation_queue
FN:224,_RNvMNtCs9dCHYEAjrI1_16threadkit_common5redisNtB2_11RedisClient20get_user_by_provider
FN:158,_RNvMNtCs9dCHYEAjrI1_16threadkit_common5redisNtB2_11RedisClient20get_user_by_username
FN:1571,_RNvMNtCs9dCHYEAjrI1_16threadkit_common5redisNtB2_11RedisClient20remove_from_modqueue
FN:145,_RNvMNtCs9dCHYEAjrI1_16threadkit_common5redisNtB2_11RedisClient20set_user_email_index
FN:217,_RNvMNtCs9dCHYEAjrI1_16threadkit_common5redisNtB2_11RedisClient20set_user_phone_index
FN:1065,_RNvMNtCs9dCHYEAjrI1_16threadkit_common5redisNtB2_11RedisClient20unblock_user_by_user
FN:677,_RNvMNtCs9dCHYEAjrI1_16threadkit_common5redisNtB2_11RedisClient20update_comment_votes
FN:1964,_RNvMNtCs9dCHYEAjrI1_16threadkit_common5redisNtB2_11RedisClient20update_site_settings
FN:1463,_RNvMNtCs9dCHYEAjrI1_16threadkit_common5redisNtB2_11RedisClient21get_cached_project_id
FN:1835,_RNvMNtCs9dCHYEAjrI1_16threadkit_common5redisNtB2_11RedisClient21get_rate_limit_status
FN:1181,_RNvMNtCs9dCHYEAjrI1_16threadkit_common5redisNtB2_11RedisClient21get_verification_code
FN:184,_RNvMNtCs9dCHYEAjrI1_16threadkit_common5redisNtB2_11RedisClient21is_username_available
FN:1236,_RNvMNtCs9dCHYEAjrI1_16threadkit_common5redisNtB2_11RedisClient21set_user_wallet_index
FN:1167,_RNvMNtCs9dCHYEAjrI1_16threadkit_common5redisNtB2_11RedisClient21set_verification_code
FN:315,_RNvMNtCs9dCHYEAjrI1_16threadkit_common5redisNtB2_11RedisClient22add_site_comment_index
FN:281,_RNvMNtCs9dCHYEAjrI1_16threadkit_common5redisNtB2_11RedisClient22add_user_comment_index
FN:1536,_RNvMNtCs9dCHYEAjrI1_16threadkit_common5redisNtB2_11RedisClient22get_site_by_project_id
FN:359,_RNvMNtCs9dCHYEAjrI1_16threadkit_common5redisNtB2_11RedisClient22get_site_comment_index
FN:333,_RNvMNtCs9dCHYEAjrI1_16threadkit_common5redisNtB2_11RedisClient22get_user_comment_index
FN:385,_RNvMNtCs9dCHYEAjrI1_16threadkit_common5redisNtB2_11RedisClient22get_user_site_comments
FN:273,_RNvMNtCs9dCHYEAjrI1_16threadkit_common5redisNtB2_11RedisClient23get_or_create_page_tree
FN:1156,_RNvMNtCs9dCHYEAjrI1_16threadkit_common5redisNtB2_11RedisClient23mark_notifications_read
FN:428,_RNvMNtCs9dCHYEAjrI1_16threadkit_common5redisNtB2_11RedisClient23remove_from_modqueue_v2
FN:229,_RNvMNtCs9dCHYEAjrI1_16threadkit_common5redisNtB2_11RedisClient23set_user_provider_index
FN:163,_RNvMNtCs9dCHYEAjrI1_16threadkit_common5redisNtB2_11RedisClient23set_user_username_index
FN:1186,_RNvMNtCs9dCHYEAjrI1_16threadkit_common5redisNtB2_11RedisClient24delete_verification_code
FN:176,_RNvMNtCs9dCHYEAjrI1_16threadkit_common5redisNtB2_11RedisClient26delete_user_username_index
FN:1484,_RNvMNtCs9dCHYEAjrI1_16threadkit_common5redisNtB2_11RedisClient26get_site_config_by_api_key
FN:298,_RNvMNtCs9dCHYEAjrI1_16threadkit_common5redisNtB2_11RedisClient27add_user_site_comment_index
FN:1469,_RNvMNtCs9dCHYEAjrI1_16threadkit_common5redisNtB2_11RedisClient27invalidate_project_id_cache
FN:1039,_RNvMNtCs9dCHYEAjrI1_16threadkit_common5redisNtB2_11RedisClient28decrement_user_comment_count
FN:1030,_RNvMNtCs9dCHYEAjrI1_16threadkit_common5redisNtB2_11RedisClient28increment_user_comment_count
FN:1398,_RNvMNtCs9dCHYEAjrI1_16threadkit_common5redisNtB2_11RedisClient29increment_pageview_with_usage
FN:40,_RNvMNtCs9dCHYEAjrI1_16threadkit_common5redisNtB2_11RedisClient3new
FN:103,_RNvMNtCs9dCHYEAjrI1_16threadkit_common5redisNtB2_11RedisClient4ping
FN:109,_RNvMNtCs9dCHYEAjrI1_16threadkit_common5redisNtB2_11RedisClient6exists
FN:1623,_RNvMNtCs9dCHYEAjrI1_16threadkit_common5redisNtB2_11RedisClient7publish
FN:132,_RNvMNtCs9dCHYEAjrI1_16threadkit_common5redisNtB2_11RedisClient8get_user
FN:711,_RNvMNtCs9dCHYEAjrI1_16threadkit_common5redisNtB2_11RedisClient8get_vote
FN:136,_RNvMNtCs9dCHYEAjrI1_16threadkit_common5redisNtB2_11RedisClient8set_user
FN:724,_RNvMNtCs9dCHYEAjrI1_16threadkit_common5redisNtB2_11RedisClient8set_vote
FN:914,_RNvMNtCs9dCHYEAjrI1_16threadkit_common5redisNtB2_11RedisClient9add_admin
FN:1926,_RNvMNtCs9dCHYEAjrI1_16threadkit_common5redisNtB2_11RedisClient9lock_page
FN:57,_RNCNCNvMNtCsiekp5I1RHQt_16threadkit_common5redisNtB6_11RedisClient16load_lua_scripts00Cs9KKNa6Ped6o_14threadkit_http
FN:66,_RNCNCNvMNtCsiekp5I1RHQt_16threadkit_common5redisNtB6_11RedisClient16load_lua_scripts0s0_0Cs9KKNa6Ped6o_14threadkit_http
FN:67,_RNCNCNvMNtCsiekp5I1RHQt_16threadkit_common5redisNtB6_11RedisClient16load_lua_scripts0s1_0Cs9KKNa6Ped6o_14threadkit_http
FN:70,_RNCNCNvMNtCsiekp5I1RHQt_16threadkit_common5redisNtB6_11RedisClient16load_lua_scripts0s2_0Cs9KKNa6Ped6o_14threadkit_http
FN:72,_RNCNCNvMNtCsiekp5I1RHQt_16threadkit_common5redisNtB6_11RedisClient16load_lua_scripts0s3_0Cs9KKNa6Ped6o_14threadkit_http
FN:73,_RNCNCNvMNtCsiekp5I1RHQt_16threadkit_common5redisNtB6_11RedisClient16load_lua_scripts0s4_0Cs9KKNa6Ped6o_14threadkit_http
FN:76,_RNCNCNvMNtCsiekp5I1RHQt_16threadkit_common5redisNtB6_11RedisClient16load_lua_scripts0s5_0Cs9KKNa6Ped6o_14threadkit_http
FN:89,_RNCNCNvMNtCsiekp5I1RHQt_16threadkit_common5redisNtB6_11RedisClient16load_lua_scripts0s6_0Cs9KKNa6Ped6o_14threadkit_http
FN:58,_RNCNCNvMNtCsiekp5I1RHQt_16threadkit_common5redisNtB6_11RedisClient16load_lua_scripts0s_0Cs9KKNa6Ped6o_14threadkit_http
FN:52,_RNCNvMNtCsiekp5I1RHQt_16threadkit_common5redisNtB4_11RedisClient16load_lua_scripts0Cs9KKNa6Ped6o_14threadkit_http
FN:40,_RNCNvMNtCsiekp5I1RHQt_16threadkit_common5redisNtB4_11RedisClient3new0Cs9KKNa6Ped6o_14threadkit_http
FN:103,_RNCNvMNtCsiekp5I1RHQt_16threadkit_common5redisNtB4_11RedisClient4ping0Cs9KKNa6Ped6o_14threadkit_http
FN:1982,_RINvMNtCsiekp5I1RHQt_16threadkit_common5redisNtB3_11RedisClient12hgetall_jsonNtNtB5_5types4UserECskwAV7ptXVKm_14threadkit_http
FN:1982,_RINvMNtCsiekp5I1RHQt_16threadkit_common5redisNtB3_11RedisClient12hgetall_jsonNtNtB5_5types7CommentECskwAV7ptXVKm_14threadkit_http
FN:1982,_RINvMNtCsiekp5I1RHQt_16threadkit_common5redisNtB3_11RedisClient12hgetall_jsonNtNtB5_5types9MediaInfoECskwAV7ptXVKm_14threadkit_http
FN:2009,_RINvMNtCsiekp5I1RHQt_16threadkit_common5redisNtB3_11RedisClient12hsetall_jsonNtNtB5_5types4UserECskwAV7ptXVKm_14threadkit_http
FN:2009,_RINvMNtCsiekp5I1RHQt_16threadkit_common5redisNtB3_11RedisClient12hsetall_jsonNtNtB5_5types9MediaInfoECskwAV7ptXVKm_14threadkit_http
FN:1982,_RNCINvMNtCsiekp5I1RHQt_16threadkit_common5redisNtB5_11RedisClient12hgetall_jsonNtNtB7_5types4UserE0CskwAV7ptXVKm_14threadkit_http
FN:1982,_RNCINvMNtCsiekp5I1RHQt_16threadkit_common5redisNtB5_11RedisClient12hgetall_jsonNtNtB7_5types7CommentE0CskwAV7ptXVKm_14threadkit_http
FN:1982,_RNCINvMNtCsiekp5I1RHQt_16threadkit_common5redisNtB5_11RedisClient12hgetall_jsonNtNtB7_5types9MediaInfoE0CskwAV7ptXVKm_14threadkit_http
FN:2009,_RNCINvMNtCsiekp5I1RHQt_16threadkit_common5redisNtB5_11RedisClient12hsetall_jsonNtNtB7_5types4UserE0CskwAV7ptXVKm_14threadkit_http
FN:2009,_RNCINvMNtCsiekp5I1RHQt_16threadkit_common5redisNtB5_11RedisClient12hsetall_jsonNtNtB7_5types9MediaInfoE0CskwAV7ptXVKm_14threadkit_http
FN:2000,_RNCNCINvMNtCsiekp5I1RHQt_16threadkit_common5redisNtB7_11RedisClient12hgetall_jsonNtNtB9_5types4UserE00CskwAV7ptXVKm_14threadkit_http
FN:2000,_RNCNCINvMNtCsiekp5I1RHQt_16threadkit_common5redisNtB7_11RedisClient12hgetall_jsonNtNtB9_5types7CommentE00CskwAV7ptXVKm_14threadkit_http
FN:2000,_RNCNCINvMNtCsiekp5I1RHQt_16threadkit_common5redisNtB7_11RedisClient12hgetall_jsonNtNtB9_5types9MediaInfoE00CskwAV7ptXVKm_14threadkit_http
FN:2014,_RNCNCINvMNtCsiekp5I1RHQt_16threadkit_common5redisNtB7_11RedisClient12hsetall_jsonNtNtB9_5types4UserE00CskwAV7ptXVKm_14threadkit_http
FN:2014,_RNCNCINvMNtCsiekp5I1RHQt_16threadkit_common5redisNtB7_11RedisClient12hsetall_jsonNtNtB9_5types9MediaInfoE00CskwAV7ptXVKm_14threadkit_http
FN:1907,_RNCNCNCNvMNtCsiekp5I1RHQt_16threadkit_common5redisNtB8_11RedisClient19get_pinned_comments000CskwAV7ptXVKm_14threadkit_http
FN:933,_RNCNCNvMNtCsiekp5I1RHQt_16threadkit_common5redisNtB6_11RedisClient10get_admins00CskwAV7ptXVKm_14threadkit_http
FN:820,_RNCNCNvMNtCsiekp5I1RHQt_16threadkit_common5redisNtB6_11RedisClient11atomic_vote00CskwAV7ptXVKm_14threadkit_http
FN:843,_RNCNCNvMNtCsiekp5I1RHQt_16threadkit_common5redisNtB6_11RedisClient11atomic_vote0s0_0CskwAV7ptXVKm_14threadkit_http
FN:845,_RNCNCNvMNtCsiekp5I1RHQt_16threadkit_common5redisNtB6_11RedisClient11atomic_vote0s1_0CskwAV7ptXVKm_14threadkit_http
FN:871,_RNCNCNvMNtCsiekp5I1RHQt_16threadkit_common5redisNtB6_11RedisClient11atomic_vote0s2_0CskwAV7ptXVKm_14threadkit_http
FN:872,_RNCNCNvMNtCsiekp5I1RHQt_16threadkit_common5redisNtB6_11RedisClient11atomic_vote0s3_0CskwAV7ptXVKm_14threadkit_http
FN:873,_RNCNCNvMNtCsiekp5I1RHQt_16threadkit_common5redisNtB6_11RedisClient11atomic_vote0s4_0CskwAV7ptXVKm_14threadkit_http
FN:874,_RNCNCNvMNtCsiekp5I1RHQt_16threadkit_common5redisNtB6_11RedisClient11atomic_vote0s5_0CskwAV7ptXVKm_14threadkit_http
FN:823,_RNCNCNvMNtCsiekp5I1RHQt_16threadkit_common5redisNtB6_11RedisClient11atomic_vote0s_0CskwAV7ptXVKm_14threadkit_http
FN:260,_RNCNCNvMNtCsiekp5I1RHQt_16threadkit_common5redisNtB6_11RedisClient13get_page_tree00CskwAV7ptXVKm_14threadkit_http
FN:1099,_RNCNCNvMNtCsiekp5I1RHQt_16threadkit_common5redisNtB6_11RedisClient14get_blocked_by00CskwAV7ptXVKm_14threadkit_http
FN:955,_RNCNCNvMNtCsiekp5I1RHQt_16threadkit_common5redisNtB6_11RedisClient14get_moderators00CskwAV7ptXVKm_14threadkit_http
FN:500,_RNCNCNvMNtCsiekp5I1RHQt_16threadkit_common5redisNtB6_11RedisClient14get_reports_v200CskwAV7ptXVKm_14threadkit_http
FN:1775,_RNCNCNvMNtCsiekp5I1RHQt_16threadkit_common5redisNtB6_11RedisClient14get_user_votes00CskwAV7ptXVKm_14threadkit_http
FN:454,_RNCNCNvMNtCsiekp5I1RHQt_16threadkit_common5redisNtB6_11RedisClient15get_modqueue_v200CskwAV7ptXVKm_14threadkit_http
FN:1480,_RNCNCNvMNtCsiekp5I1RHQt_16threadkit_common5redisNtB6_11RedisClient15get_site_config00CskwAV7ptXVKm_14threadkit_http
FN:1317,_RNCNCNvMNtCsiekp5I1RHQt_16threadkit_common5redisNtB6_11RedisClient16get_session_user00CskwAV7ptXVKm_14threadkit_http
FN:1090,_RNCNCNvMNtCsiekp5I1RHQt_16threadkit_common5redisNtB6_11RedisClient17get_blocked_users00CskwAV7ptXVKm_14threadkit_http
FN:1141,_RNCNCNvMNtCsiekp5I1RHQt_16threadkit_common5redisNtB6_11RedisClient17get_notifications00CskwAV7ptXVKm_14threadkit_http
FN:142,_RNCNCNvMNtCsiekp5I1RHQt_16threadkit_common5redisNtB6_11RedisClient17get_user_by_email00CskwAV7ptXVKm_14threadkit_http
FN:1005,_RNCNCNvMNtCsiekp5I1RHQt_16threadkit_common5redisNtB6_11RedisClient17get_user_comments00CskwAV7ptXVKm_14threadkit_http
FN:1232,_RNCNCNvMNtCsiekp5I1RHQt_16threadkit_common5redisNtB6_11RedisClient18get_user_by_wallet00CskwAV7ptXVKm_14threadkit_http
FN:1906,_RNCNCNvMNtCsiekp5I1RHQt_16threadkit_common5redisNtB6_11RedisClient19get_pinned_comments00CskwAV7ptXVKm_14threadkit_http
FN:226,_RNCNCNvMNtCsiekp5I1RHQt_16threadkit_common5redisNtB6_11RedisClient20get_user_by_provider00CskwAV7ptXVKm_14threadkit_http
FN:160,_RNCNCNvMNtCsiekp5I1RHQt_16threadkit_common5redisNtB6_11RedisClient20get_user_by_username00CskwAV7ptXVKm_14threadkit_http
FN:1969,_RNCNCNvMNtCsiekp5I1RHQt_16threadkit_common5redisNtB6_11RedisClient20update_site_settings00CskwAV7ptXVKm_14threadkit_http
FN:1465,_RNCNCNvMNtCsiekp5I1RHQt_16threadkit_common5redisNtB6_11RedisClient21get_cached_project_id00CskwAV7ptXVKm_14threadkit_http
FN:1183,_RNCNCNvMNtCsiekp5I1RHQt_16threadkit_common5redisNtB6_11RedisClient21get_verification_code00CskwAV7ptXVKm_14threadkit_http
FN:1543,_RNCNCNvMNtCsiekp5I1RHQt_16threadkit_common5redisNtB6_11RedisClient22get_site_by_project_id00CskwAV7ptXVKm_14threadkit_http
FN:1547,_RNCNCNvMNtCsiekp5I1RHQt_16threadkit_common5redisNtB6_11RedisClient22get_site_by_project_id0s_0CskwAV7ptXVKm_14threadkit_http
FN:372,_RNCNCNvMNtCsiekp5I1RHQt_16threadkit_common5redisNtB6_11RedisClient22get_site_comment_index00CskwAV7ptXVKm_14threadkit_http
FN:398,_RNCNCNvMNtCsiekp5I1RHQt_16threadkit_common5redisNtB6_11RedisClient22get_user_site_comments00CskwAV7ptXVKm_14threadkit_http
FN:717,_RNCNCNvMNtCsiekp5I1RHQt_16threadkit_common5redisNtB6_11RedisClient8get_vote00CskwAV7ptXVKm_14threadkit_http
FN:958,_RNCNvMNtCsiekp5I1RHQt_16threadkit_common5redisNtB4_11RedisClient10block_user0CskwAV7ptXVKm_14threadkit_http
FN:928,_RNCNvMNtCsiekp5I1RHQt_16threadkit_common5redisNtB4_11RedisClient10get_admins0CskwAV7ptXVKm_14threadkit_http
FN:812,_RNCNvMNtCsiekp5I1RHQt_16threadkit_common5redisNtB4_11RedisClient11atomic_vote0CskwAV7ptXVKm_14threadkit_http
FN:515,_RNCNvMNtCsiekp5I1RHQt_16threadkit_common5redisNtB4_11RedisClient11get_comment0CskwAV7ptXVKm_14threadkit_http
FN:1867,_RNCNvMNtCsiekp5I1RHQt_16threadkit_common5redisNtB4_11RedisClient11pin_comment0CskwAV7ptXVKm_14threadkit_http
FN:1934,_RNCNvMNtCsiekp5I1RHQt_16threadkit_common5redisNtB4_11RedisClient11unlock_page0CskwAV7ptXVKm_14threadkit_http
FN:921,_RNCNvMNtCsiekp5I1RHQt_16threadkit_common5redisNtB4_11RedisClient12remove_admin0CskwAV7ptXVKm_14threadkit_http
FN:965,_RNCNvMNtCsiekp5I1RHQt_16threadkit_common5redisNtB4_11RedisClient12unblock_user0CskwAV7ptXVKm_14threadkit_http
FN:936,_RNCNvMNtCsiekp5I1RHQt_16threadkit_common5redisNtB4_11RedisClient13add_moderator0CskwAV7ptXVKm_14threadkit_http
FN:466,_RNCNvMNtCsiekp5I1RHQt_16threadkit_common5redisNtB4_11RedisClient13add_report_v20CskwAV7ptXVKm_14threadkit_http
FN:258,_RNCNvMNtCsiekp5I1RHQt_16threadkit_common5redisNtB4_11RedisClient13get_page_tree0CskwAV7ptXVKm_14threadkit_http
FN:1411,_RNCNvMNtCsiekp5I1RHQt_16threadkit_common5redisNtB4_11RedisClient13get_pageviews0CskwAV7ptXVKm_14threadkit_http
FN:883,_RNCNvMNtCsiekp5I1RHQt_16threadkit_common5redisNtB4_11RedisClient13get_user_role0CskwAV7ptXVKm_14threadkit_http
FN:264,_RNCNvMNtCsiekp5I1RHQt_16threadkit_common5redisNtB4_11RedisClient13set_page_tree0CskwAV7ptXVKm_14threadkit_http
FN:1882,_RNCNvMNtCsiekp5I1RHQt_16threadkit_common5redisNtB4_11RedisClient13unpin_comment0CskwAV7ptXVKm_14threadkit_http
FN:1270,_RNCNvMNtCsiekp5I1RHQt_16threadkit_common5redisNtB4_11RedisClient14add_user_media0CskwAV7ptXVKm_14threadkit_http
FN:1294,_RNCNvMNtCsiekp5I1RHQt_16threadkit_common5redisNtB4_11RedisClient14create_session0CskwAV7ptXVKm_14threadkit_http
FN:1320,_RNCNvMNtCsiekp5I1RHQt_16threadkit_common5redisNtB4_11RedisClient14delete_session0CskwAV7ptXVKm_14threadkit_http
FN:1094,_RNCNvMNtCsiekp5I1RHQt_16threadkit_common5redisNtB4_11RedisClient14get_blocked_by0CskwAV7ptXVKm_14threadkit_http
FN:1259,_RNCNvMNtCsiekp5I1RHQt_16threadkit_common5redisNtB4_11RedisClient14get_media_info0CskwAV7ptXVKm_14threadkit_http
FN:950,_RNCNvMNtCsiekp5I1RHQt_16threadkit_common5redisNtB4_11RedisClient14get_moderators0CskwAV7ptXVKm_14threadkit_http
FN:781,_RNCNvMNtCsiekp5I1RHQt_16threadkit_common5redisNtB4_11RedisClient14get_page_votes0CskwAV7ptXVKm_14threadkit_http
FN:484,_RNCNvMNtCsiekp5I1RHQt_16threadkit_common5redisNtB4_11RedisClient14get_reports_v20CskwAV7ptXVKm_14threadkit_http
FN:1770,_RNCNvMNtCsiekp5I1RHQt_16threadkit_common5redisNtB4_11RedisClient14get_user_votes0CskwAV7ptXVKm_14threadkit_http
FN:1210,_RNCNvMNtCsiekp5I1RHQt_16threadkit_common5redisNtB4_11RedisClient14get_web3_nonce0CskwAV7ptXVKm_14threadkit_http
FN:1942,_RNCNvMNtCsiekp5I1RHQt_16threadkit_common5redisNtB4_11RedisClient14is_page_locked0CskwAV7ptXVKm_14threadkit_http
FN:1254,_RNCNvMNtCsiekp5I1RHQt_16threadkit_common5redisNtB4_11RedisClient14set_media_info0CskwAV7ptXVKm_14threadkit_http
FN:1196,_RNCNvMNtCsiekp5I1RHQt_16threadkit_common5redisNtB4_11RedisClient14set_web3_nonce0CskwAV7ptXVKm_14threadkit_http
FN:972,_RNCNvMNtCsiekp5I1RHQt_16threadkit_common5redisNtB4_11RedisClient14shadowban_user0CskwAV7ptXVKm_14threadkit_http
FN:411,_RNCNvMNtCsiekp5I1RHQt_16threadkit_common5redisNtB4_11RedisClient15add_to_modqueue0CskwAV7ptXVKm_14threadkit_http
FN:438,_RNCNvMNtCsiekp5I1RHQt_16threadkit_common5redisNtB4_11RedisClient15get_modqueue_v20CskwAV7ptXVKm_14threadkit_http
FN:1478,_RNCNvMNtCsiekp5I1RHQt_16threadkit_common5redisNtB4_11RedisClient15get_site_config0CskwAV7ptXVKm_14threadkit_http
FN:1424,_RNCNvMNtCsiekp5I1RHQt_16threadkit_common5redisNtB4_11RedisClient15increment_usage0CskwAV7ptXVKm_14threadkit_http
FN:979,_RNCNvMNtCsiekp5I1RHQt_16threadkit_common5redisNtB4_11RedisClient15is_shadowbanned0CskwAV7ptXVKm_14threadkit_http
FN:1506,_RNCNvMNtCsiekp5I1RHQt_16threadkit_common5redisNtB4_11RedisClient15set_site_config0CskwAV7ptXVKm_14threadkit_http
FN:1106,_RNCNvMNtCsiekp5I1RHQt_16threadkit_common5redisNtB4_11RedisClient16add_notification0CskwAV7ptXVKm_14threadkit_http
FN:1789,_RNCNvMNtCsiekp5I1RHQt_16threadkit_common5redisNtB4_11RedisClient16check_rate_limit0CskwAV7ptXVKm_14threadkit_http
FN:1312,_RNCNvMNtCsiekp5I1RHQt_16threadkit_common5redisNtB4_11RedisClient16get_session_user0CskwAV7ptXVKm_14threadkit_http
FN:1147,_RNCNvMNtCsiekp5I1RHQt_16threadkit_common5redisNtB4_11RedisClient16get_unread_count0CskwAV7ptXVKm_14threadkit_http
FN:943,_RNCNvMNtCsiekp5I1RHQt_16threadkit_common5redisNtB4_11RedisClient16remove_moderator0CskwAV7ptXVKm_14threadkit_http
FN:1264,_RNCNvMNtCsiekp5I1RHQt_16threadkit_common5redisNtB4_11RedisClient17delete_media_info0CskwAV7ptXVKm_14threadkit_http
FN:1219,_RNCNvMNtCsiekp5I1RHQt_16threadkit_common5redisNtB4_11RedisClient17delete_web3_nonce0CskwAV7ptXVKm_14threadkit_http
FN:1085,_RNCNvMNtCsiekp5I1RHQt_16threadkit_common5redisNtB4_11RedisClient17get_blocked_users0CskwAV7ptXVKm_14threadkit_http
FN:1128,_RNCNvMNtCsiekp5I1RHQt_16threadkit_common5redisNtB4_11RedisClient17get_notifications0CskwAV7ptXVKm_14threadkit_http
FN:140,_RNCNvMNtCsiekp5I1RHQt_16threadkit_common5redisNtB4_11RedisClient17get_user_by_email0CskwAV7ptXVKm_14threadkit_http
FN:1000,_RNCNvMNtCsiekp5I1RHQt_16threadkit_common5redisNtB4_11RedisClient17get_user_comments0CskwAV7ptXVKm_14threadkit_http
FN:1913,_RNCNvMNtCsiekp5I1RHQt_16threadkit_common5redisNtB4_11RedisClient17is_comment_pinned0CskwAV7ptXVKm_14threadkit_http
FN:1277,_RNCNvMNtCsiekp5I1RHQt_16threadkit_common5redisNtB4_11RedisClient17remove_user_media0CskwAV7ptXVKm_14threadkit_http
FN:1021,_RNCNvMNtCsiekp5I1RHQt_16threadkit_common5redisNtB4_11RedisClient17update_user_karma0CskwAV7ptXVKm_14threadkit_http
FN:1052,_RNCNvMNtCsiekp5I1RHQt_16threadkit_common5redisNtB4_11RedisClient18block_user_by_user0CskwAV7ptXVKm_14threadkit_http
FN:1227,_RNCNvMNtCsiekp5I1RHQt_16threadkit_common5redisNtB4_11RedisClient18get_user_by_wallet0CskwAV7ptXVKm_14threadkit_http
FN:1633,_RNCNvMNtCsiekp5I1RHQt_16threadkit_common5redisNtB4_11RedisClient19delete_user_account0CskwAV7ptXVKm_14threadkit_http
FN:1891,_RNCNvMNtCsiekp5I1RHQt_16threadkit_common5redisNtB4_11RedisClient19get_pinned_comments0CskwAV7ptXVKm_14threadkit_http
FN:224,_RNCNvMNtCsiekp5I1RHQt_16threadkit_common5redisNtB4_11RedisClient20get_user_by_provider0CskwAV7ptXVKm_14threadkit_http
FN:158,_RNCNvMNtCsiekp5I1RHQt_16threadkit_common5redisNtB4_11RedisClient20get_user_by_username0CskwAV7ptXVKm_14threadkit_http
FN:145,_RNCNvMNtCsiekp5I1RHQt_16threadkit_common5redisNtB4_11RedisClient20set_user_email_index0CskwAV7ptXVKm_14threadkit_http
FN:1065,_RNCNvMNtCsiekp5I1RHQt_16threadkit_common5redisNtB4_11RedisClient20unblock_user_by_user0CskwAV7ptXVKm_14threadkit_http
FN:677,_RNCNvMNtCsiekp5I1RHQt_16threadkit_common5redisNtB4_11RedisClient20update_comment_votes0CskwAV7ptXVKm_14threadkit_http
FN:1964,_RNCNvMNtCsiekp5I1RHQt_16threadkit_common5redisNtB4_11RedisClient20update_site_settings0CskwAV7ptXVKm_14threadkit_http
FN:1463,_RNCNvMNtCsiekp5I1RHQt_16threadkit_common5redisNtB4_11RedisClient21get_cached_project_id0CskwAV7ptXVKm_14threadkit_http
FN:1181,_RNCNvMNtCsiekp5I1RHQt_16threadkit_common5redisNtB4_11RedisClient21get_verification_code0CskwAV7ptXVKm_14threadkit_http
FN:184,_RNCNvMNtCsiekp5I1RHQt_16threadkit_common5redisNtB4_11RedisClient21is_username_available0CskwAV7ptXVKm_14threadkit_http
FN:1236,_RNCNvMNtCsiekp5I1RHQt_16threadkit_common5redisNtB4_11RedisClient21set_user_wallet_index0CskwAV7ptXVKm_14threadkit_http
FN:1167,_RNCNvMNtCsiekp5I1RHQt_16threadkit_common5redisNtB4_11RedisClient21set_verification_code0CskwAV7ptXVKm_14threadkit_http
FN:315,_RNCNvMNtCsiekp5I1RHQt_16threadkit_common5redisNtB4_11RedisClient22add_site_comment_index0CskwAV7ptXVKm_14threadkit_http
FN:281,_RNCNvMNtCsiekp5I1RHQt_16threadkit_common5redisNtB4_11RedisClient22add_user_comment_index0CskwAV7ptXVKm_14threadkit_http
FN:1536,_RNCNvMNtCsiekp5I1RHQt_16threadkit_common5redisNtB4_11RedisClient22get_site_by_project_id0CskwAV7ptXVKm_14threadkit_http
FN:359,_RNCNvMNtCsiekp5I1RHQt_16threadkit_common5redisNtB4_11RedisClient22get_site_comment_index0CskwAV7ptXVKm_14threadkit_http
FN:385,_RNCNvMNtCsiekp5I1RHQt_16threadkit_common5redisNtB4_11RedisClient22get_user_site_comments0CskwAV7ptXVKm_14threadkit_http
FN:273,_RNCNvMNtCsiekp5I1RHQt_16threadkit_common5redisNtB4_11RedisClient23get_or_create_page_tree0CskwAV7ptXVKm_14threadkit_http
FN:1156,_RNCNvMNtCsiekp5I1RHQt_16threadkit_common5redisNtB4_11RedisClient23mark_notifications_read0CskwAV7ptXVKm_14threadkit_http
FN:428,_RNCNvMNtCsiekp5I1RHQt_16threadkit_common5redisNtB4_11RedisClient23remove_from_modqueue_v20CskwAV7ptXVKm_14threadkit_http
FN:229,_RNCNvMNtCsiekp5I1RHQt_16threadkit_common5redisNtB4_11RedisClient23set_user_provider_index0CskwAV7ptXVKm_14threadkit_http
FN:163,_RNCNvMNtCsiekp5I1RHQt_16threadkit_common5redisNtB4_11RedisClient23set_user_username_index0CskwAV7ptXVKm_14threadkit_http
FN:1186,_RNCNvMNtCsiekp5I1RHQt_16threadkit_common5redisNtB4_11RedisClient24delete_verification_code0CskwAV7ptXVKm_14threadkit_http
FN:176,_RNCNvMNtCsiekp5I1RHQt_16threadkit_common5redisNtB4_11RedisClient26delete_user_username_index0CskwAV7ptXVKm_14threadkit_http
FN:1484,_RNCNvMNtCsiekp5I1RHQt_16threadkit_common5redisNtB4_11RedisClient26get_site_config_by_api_key0CskwAV7ptXVKm_14threadkit_http
FN:298,_RNCNvMNtCsiekp5I1RHQt_16threadkit_common5redisNtB4_11RedisClient27add_user_site_comment_index0CskwAV7ptXVKm_14threadkit_http
FN:1030,_RNCNvMNtCsiekp5I1RHQt_16threadkit_common5redisNtB4_11RedisClient28increment_user_comment_count0CskwAV7ptXVKm_14threadkit_http
FN:1398,_RNCNvMNtCsiekp5I1RHQt_16threadkit_common5redisNtB4_11RedisClient29increment_pageview_with_usage0CskwAV7ptXVKm_14threadkit_http
FN:1623,_RNCNvMNtCsiekp5I1RHQt_16threadkit_common5redisNtB4_11RedisClient7publish0CskwAV7ptXVKm_14threadkit_http
FN:132,_RNCNvMNtCsiekp5I1RHQt_16threadkit_common5redisNtB4_11RedisClient8get_user0CskwAV7ptXVKm_14threadkit_http
FN:711,_RNCNvMNtCsiekp5I1RHQt_16threadkit_common5redisNtB4_11RedisClient8get_vote0CskwAV7ptXVKm_14threadkit_http
FN:136,_RNCNvMNtCsiekp5I1RHQt_16threadkit_common5redisNtB4_11RedisClient8set_user0CskwAV7ptXVKm_14threadkit_http
FN:914,_RNCNvMNtCsiekp5I1RHQt_16threadkit_common5redisNtB4_11RedisClient9add_admin0CskwAV7ptXVKm_14threadkit_http
FN:1926,_RNCNvMNtCsiekp5I1RHQt_16threadkit_common5redisNtB4_11RedisClient9lock_page0CskwAV7ptXVKm_14threadkit_http
FN:57,_RNCNCNvMNtCsiekp5I1RHQt_16threadkit_common5redisNtB6_11RedisClient16load_lua_scripts00Cs7VmwUquk1Lm_19threadkit_websocket
FN:66,_RNCNCNvMNtCsiekp5I1RHQt_16threadkit_common5redisNtB6_11RedisClient16load_lua_scripts0s0_0Cs7VmwUquk1Lm_19threadkit_websocket
FN:67,_RNCNCNvMNtCsiekp5I1RHQt_16threadkit_common5redisNtB6_11RedisClient16load_lua_scripts0s1_0Cs7VmwUquk1Lm_19threadkit_websocket
FN:70,_RNCNCNvMNtCsiekp5I1RHQt_16threadkit_common5redisNtB6_11RedisClient16load_lua_scripts0s2_0Cs7VmwUquk1Lm_19threadkit_websocket
FN:72,_RNCNCNvMNtCsiekp5I1RHQt_16threadkit_common5redisNtB6_11RedisClient16load_lua_scripts0s3_0Cs7VmwUquk1Lm_19threadkit_websocket
FN:73,_RNCNCNvMNtCsiekp5I1RHQt_16threadkit_common5redisNtB6_11RedisClient16load_lua_scripts0s4_0Cs7VmwUquk1Lm_19threadkit_websocket
FN:76,_RNCNCNvMNtCsiekp5I1RHQt_16threadkit_common5redisNtB6_11RedisClient16load_lua_scripts0s5_0Cs7VmwUquk1Lm_19threadkit_websocket
FN:89,_RNCNCNvMNtCsiekp5I1RHQt_16threadkit_common5redisNtB6_11RedisClient16load_lua_scripts0s6_0Cs7VmwUquk1Lm_19threadkit_websocket
FN:58,_RNCNCNvMNtCsiekp5I1RHQt_16threadkit_common5redisNtB6_11RedisClient16load_lua_scripts0s_0Cs7VmwUquk1Lm_19threadkit_websocket
FN:115,_RNCNvMNtCsiekp5I1RHQt_16threadkit_common5redisNtB4_11RedisClient15set_with_expiry0Cs7VmwUquk1Lm_19threadkit_websocket
FN:52,_RNCNvMNtCsiekp5I1RHQt_16threadkit_common5redisNtB4_11RedisClient16load_lua_scripts0Cs7VmwUquk1Lm_19threadkit_websocket
FN:40,_RNCNvMNtCsiekp5I1RHQt_16threadkit_common5redisNtB4_11RedisClient3new0Cs7VmwUquk1Lm_19threadkit_websocket
FN:1480,_RNCNCNvMNtCsiekp5I1RHQt_16threadkit_common5redisNtB6_11RedisClient15get_site_config00CscZ3GRALPr5A_19threadkit_websocket
FN:1478,_RNCNvMNtCsiekp5I1RHQt_16threadkit_common5redisNtB4_11RedisClient15get_site_config0CscZ3GRALPr5A_19threadkit_websocket
FN:1449,_RNCNvMNtCsiekp5I1RHQt_16threadkit_common5redisNtB4_11RedisClient16cache_project_id0CscZ3GRALPr5A_19threadkit_websocket
FN:1484,_RNCNvMNtCsiekp5I1RHQt_16threadkit_common5redisNtB4_11RedisClient26get_site_config_by_api_key0CscZ3GRALPr5A_19threadkit_websocket
FN:57,_RNCNCNvMNtCsiekp5I1RHQt_16threadkit_common5redisNtB6_11RedisClient16load_lua_scripts00CsiJNGSUnbjrr_15turnstile_tests
FN:66,_RNCNCNvMNtCsiekp5I1RHQt_16threadkit_common5redisNtB6_11RedisClient16load_lua_scripts0s0_0CsiJNGSUnbjrr_15turnstile_tests
FN:67,_RNCNCNvMNtCsiekp5I1RHQt_16threadkit_common5redisNtB6_11RedisClient16load_lua_scripts0s1_0CsiJNGSUnbjrr_15turnstile_tests
FN:70,_RNCNCNvMNtCsiekp5I1RHQt_16threadkit_common5redisNtB6_11RedisClient16load_lua_scripts0s2_0CsiJNGSUnbjrr_15turnstile_tests
FN:72,_RNCNCNvMNtCsiekp5I1RHQt_16threadkit_common5redisNtB6_11RedisClient16load_lua_scripts0s3_0CsiJNGSUnbjrr_15turnstile_tests
FN:73,_RNCNCNvMNtCsiekp5I1RHQt_16threadkit_common5redisNtB6_11RedisClient16load_lua_scripts0s4_0CsiJNGSUnbjrr_15turnstile_tests
FN:76,_RNCNCNvMNtCsiekp5I1RHQt_16threadkit_common5redisNtB6_11RedisClient16load_lua_scripts0s5_0CsiJNGSUnbjrr_15turnstile_tests
FN:89,_RNCNCNvMNtCsiekp5I1RHQt_16threadkit_common5redisNtB6_11RedisClient16load_lua_scripts0s6_0CsiJNGSUnbjrr_15turnstile_tests
FN:58,_RNCNCNvMNtCsiekp5I1RHQt_16threadkit_common5redisNtB6_11RedisClient16load_lua_scripts0s_0CsiJNGSUnbjrr_15turnstile_tests
FN:52,_RNCNvMNtCsiekp5I1RHQt_16threadkit_common5redisNtB4_11RedisClient16load_lua_scripts0CsiJNGSUnbjrr_15turnstile_tests
FN:1469,_RNCNvMNtCsiekp5I1RHQt_16threadkit_common5redisNtB4_11RedisClient27invalidate_project_id_cache0CsiJNGSUnbjrr_15turnstile_tests
FN:40,_RNCNvMNtCsiekp5I1RHQt_16threadkit_common5redisNtB4_11RedisClient3new0CsiJNGSUnbjrr_15turnstile_tests
FNDA:24,_RNCNCNvMNtCsiekp5I1RHQt_16threadkit_common5redisNtB6_11RedisClient16load_lua_scripts00CsfD1Skel4Vam_10auth_tests
FNDA:0,_RNCNCNvMNtCsiekp5I1RHQt_16threadkit_common5redisNtB6_11RedisClient16load_lua_scripts0s0_0CsfD1Skel4Vam_10auth_tests
FNDA:0,_RNCNCNvMNtCsiekp5I1RHQt_16threadkit_common5redisNtB6_11RedisClient16load_lua_scripts0s1_0CsfD1Skel4Vam_10auth_tests
FNDA:24,_RNCNCNvMNtCsiekp5I1RHQt_16threadkit_common5redisNtB6_11RedisClient16load_lua_scripts0s2_0CsfD1Skel4Vam_10auth_tests
FNDA:24,_RNCNCNvMNtCsiekp5I1RHQt_16threadkit_common5redisNtB6_11RedisClient16load_lua_scripts0s3_0CsfD1Skel4Vam_10auth_tests
FNDA:0,_RNCNCNvMNtCsiekp5I1RHQt_16threadkit_common5redisNtB6_11RedisClient16load_lua_scripts0s4_0CsfD1Skel4Vam_10auth_tests
FNDA:0,_RNCNCNvMNtCsiekp5I1RHQt_16threadkit_common5redisNtB6_11RedisClient16load_lua_scripts0s5_0CsfD1Skel4Vam_10auth_tests
FNDA:0,_RNCNCNvMNtCsiekp5I1RHQt_16threadkit_common5redisNtB6_11RedisClient16load_lua_scripts0s6_0CsfD1Skel4Vam_10auth_tests
FNDA:0,_RNCNCNvMNtCsiekp5I1RHQt_16threadkit_common5redisNtB6_11RedisClient16load_lua_scripts0s_0CsfD1Skel4Vam_10auth_tests
FNDA:24,_RNCNvMNtCsiekp5I1RHQt_16threadkit_common5redisNtB4_11RedisClient16load_lua_scripts0CsfD1Skel4Vam_10auth_tests
FNDA:24,_RNCNvMNtCsiekp5I1RHQt_16threadkit_common5redisNtB4_11RedisClient3new0CsfD1Skel4Vam_10auth_tests
FNDA:142,_RINvMNtCsiekp5I1RHQt_16threadkit_common5redisNtB3_11RedisClient12hgetall_jsonNtNtB5_5types4UserECsaszyX3GTrYE_14threadkit_http
FNDA:0,_RINvMNtCsiekp5I1RHQt_16threadkit_common5redisNtB3_11RedisClient12hgetall_jsonNtNtB5_5types7CommentECsaszyX3GTrYE_14threadkit_http
FNDA:0,_RINvMNtCsiekp5I1RHQt_16threadkit_common5redisNtB3_11RedisClient12hgetall_jsonNtNtB5_5types9MediaInfoECsaszyX3GTrYE_14threadkit_http
FNDA:66,_RINvMNtCsiekp5I1RHQt_16threadkit_common5redisNtB3_11RedisClient12hsetall_jsonNtNtB5_5types4UserECsaszyX3GTrYE_14threadkit_http
FNDA:0,_RINvMNtCsiekp5I1RHQt_16threadkit_common5redisNtB3_11RedisClient12hsetall_jsonNtNtB5_5types9MediaInfoECsaszyX3GTrYE_14threadkit_http
FNDA:142,_RNCINvMNtCsiekp5I1RHQt_16threadkit_common5redisNtB5_11RedisClient12hgetall_jsonNtNtB7_5types4UserE0CsaszyX3GTrYE_14threadkit_http
FNDA:0,_RNCINvMNtCsiekp5I1RHQt_16threadkit_common5redisNtB5_11RedisClient12hgetall_jsonNtNtB7_5types7CommentE0CsaszyX3GTrYE_14threadkit_http
FNDA:0,_RNCINvMNtCsiekp5I1RHQt_16threadkit_common5redisNtB5_11RedisClient12hgetall_jsonNtNtB7_5types9MediaInfoE0CsaszyX3GTrYE_14threadkit_http
FNDA:66,_RNCINvMNtCsiekp5I1RHQt_16threadkit_common5redisNtB5_11RedisClient12hsetall_jsonNtNtB7_5types4UserE0CsaszyX3GTrYE_14threadkit_http
FNDA:0,_RNCINvMNtCsiekp5I1RHQt_16threadkit_common5redisNtB5_11RedisClient12hsetall_jsonNtNtB7_5types9MediaInfoE0CsaszyX3GTrYE_14threadkit_http
FNDA:710,_RNCNCINvMNtCsiekp5I1RHQt_16threadkit_common5redisNtB7_11RedisClient12hgetall_jsonNtNtB9_5types4UserE00CsaszyX3GTrYE_14threadkit_http
FNDA:0,_RNCNCINvMNtCsiekp5I1RHQt_16threadkit_common5redisNtB7_11RedisClient12hgetall_jsonNtNtB9_5types7CommentE00CsaszyX3GTrYE_14threadkit_http
FNDA:0,_RNCNCINvMNtCsiekp5I1RHQt_16threadkit_common5redisNtB7_11RedisClient12hgetall_jsonNtNtB9_5types9MediaInfoE00CsaszyX3GTrYE_14threadkit_http
FNDA:924,_RNCNCINvMNtCsiekp5I1RHQt_16threadkit_common5redisNtB7_11RedisClient12hsetall_jsonNtNtB9_5types4UserE00CsaszyX3GTrYE_14threadkit_http
FNDA:0,_RNCNCINvMNtCsiekp5I1RHQt_16threadkit_common5redisNtB7_11RedisClient12hsetall_jsonNtNtB9_5types9MediaInfoE00CsaszyX3GTrYE_14threadkit_http
FNDA:0,_RNCNCNCNvMNtCsiekp5I1RHQt_16threadkit_common5redisNtB8_11RedisClient19get_pinned_comments000CsaszyX3GTrYE_14threadkit_http
FNDA:0,_RNCNCNvMNtCsiekp5I1RHQt_16threadkit_common5redisNtB6_11RedisClient10get_admins00CsaszyX3GTrYE_14threadkit_http
FNDA:0,_RNCNCNvMNtCsiekp5I1RHQt_16threadkit_common5redisNtB6_11RedisClient11atomic_vote00CsaszyX3GTrYE_14threadkit_http
FNDA:120,_RNCNCNvMNtCsiekp5I1RHQt_16threadkit_common5redisNtB6_11RedisClient11atomic_vote0s0_0CsaszyX3GTrYE_14threadkit_http
FNDA:0,_RNCNCNvMNtCsiekp5I1RHQt_16threadkit_common5redisNtB6_11RedisClient11atomic_vote0s1_0CsaszyX3GTrYE_14threadkit_http
FNDA:24,_RNCNCNvMNtCsiekp5I1RHQt_16threadkit_common5redisNtB6_11RedisClient11atomic_vote0s2_0CsaszyX3GTrYE_14threadkit_http
FNDA:24,_RNCNCNvMNtCsiekp5I1RHQt_16threadkit_common5redisNtB6_11RedisClient11atomic_vote0s3_0CsaszyX3GTrYE_14threadkit_http
FNDA:24,_RNCNCNvMNtCsiekp5I1RHQt_16threadkit_common5redisNtB6_11RedisClient11atomic_vote0s4_0CsaszyX3GTrYE_14threadkit_http
FNDA:24,_RNCNCNvMNtCsiekp5I1RHQt_16threadkit_common5redisNtB6_11RedisClient11atomic_vote0s5_0CsaszyX3GTrYE_14threadkit_http
FNDA:0,_RNCNCNvMNtCsiekp5I1RHQt_16threadkit_common5redisNtB6_11RedisClient11atomic_vote0s_0CsaszyX3GTrYE_14threadkit_http
FNDA:52,_RNCNCNvMNtCsiekp5I1RHQt_16threadkit_common5redisNtB6_11RedisClient13get_page_tree00CsaszyX3GTrYE_14threadkit_http
FNDA:0,_RNCNCNvMNtCsiekp5I1RHQt_16threadkit_common5redisNtB6_11RedisClient14get_blocked_by00CsaszyX3GTrYE_14threadkit_http
FNDA:0,_RNCNCNvMNtCsiekp5I1RHQt_16threadkit_common5redisNtB6_11RedisClient14get_moderators00CsaszyX3GTrYE_14threadkit_http
FNDA:1,_RNCNCNvMNtCsiekp5I1RHQt_16threadkit_common5redisNtB6_11RedisClient14get_reports_v200CsaszyX3GTrYE_14threadkit_http
FNDA:0,_RNCNCNvMNtCsiekp5I1RHQt_16threadkit_common5redisNtB6_11RedisClient14get_user_votes00CsaszyX3GTrYE_14threadkit_http
FNDA:1,_RNCNCNvMNtCsiekp5I1RHQt_16threadkit_common5redisNtB6_11RedisClient15get_modqueue_v200CsaszyX3GTrYE_14threadkit_http
FNDA:267,_RNCNCNvMNtCsiekp5I1RHQt_16threadkit_common5redisNtB6_11RedisClient15get_site_config00CsaszyX3GTrYE_14threadkit_http
FNDA:90,_RNCNCNvMNtCsiekp5I1RHQt_16threadkit_common5redisNtB6_11RedisClient16get_session_user00CsaszyX3GTrYE_14threadkit_http
FNDA:0,_RNCNCNvMNtCsiekp5I1RHQt_16threadkit_common5redisNtB6_11RedisClient17get_blocked_users00CsaszyX3GTrYE_14threadkit_http
FNDA:0,_RNCNCNvMNtCsiekp5I1RHQt_16threadkit_common5redisNtB6_11RedisClient17get_notifications00CsaszyX3GTrYE_14threadkit_http
FNDA:0,_RNCNCNvMNtCsiekp5I1RHQt_16threadkit_common5redisNtB6_11RedisClient17get_user_by_email00CsaszyX3GTrYE_14threadkit_http
FNDA:0,_RNCNCNvMNtCsiekp5I1RHQt_16threadkit_common5redisNtB6_11RedisClient17get_user_comments00CsaszyX3GTrYE_14threadkit_http
FNDA:0,_RNCNCNvMNtCsiekp5I1RHQt_16threadkit_common5redisNtB6_11RedisClient18get_user_by_wallet00CsaszyX3GTrYE_14threadkit_http
FNDA:0,_RNCNCNvMNtCsiekp5I1RHQt_16threadkit_common5redisNtB6_11RedisClient19get_pinned_comments00CsaszyX3GTrYE_14threadkit_http
FNDA:0,_RNCNCNvMNtCsiekp5I1RHQt_16threadkit_common5redisNtB6_11RedisClient20get_user_by_provider00CsaszyX3GTrYE_14threadkit_http
FNDA:0,_RNCNCNvMNtCsiekp5I1RHQt_16threadkit_common5redisNtB6_11RedisClient20get_user_by_username00CsaszyX3GTrYE_14threadkit_http
FNDA:0,_RNCNCNvMNtCsiekp5I1RHQt_16threadkit_common5redisNtB6_11RedisClient20update_site_settings00CsaszyX3GTrYE_14threadkit_http
FNDA:186,_RNCNCNvMNtCsiekp5I1RHQt_16threadkit_common5redisNtB6_11RedisClient21get_cached_project_id00CsaszyX3GTrYE_14threadkit_http
FNDA:2,_RNCNCNvMNtCsiekp5I1RHQt_16threadkit_common5redisNtB6_11RedisClient21get_verification_code00CsaszyX3GTrYE_14threadkit_http
FNDA:0,_RNCNCNvMNtCsiekp5I1RHQt_16threadkit_common5redisNtB6_11RedisClient22get_site_by_project_id00CsaszyX3GTrYE_14threadkit_http
FNDA:0,_RNCNCNvMNtCsiekp5I1RHQt_16threadkit_common5redisNtB6_11RedisClient22get_site_by_project_id0s_0CsaszyX3GTrYE_14threadkit_http
FNDA:0,_RNCNCNvMNtCsiekp5I1RHQt_16threadkit_common5redisNtB6_11RedisClient22get_site_comment_index00CsaszyX3GTrYE_14threadkit_http
FNDA:0,_RNCNCNvMNtCsiekp5I1RHQt_16threadkit_common5redisNtB6_11RedisClient22get_user_site_comments00CsaszyX3GTrYE_14threadkit_http
FNDA:0,_RNCNCNvMNtCsiekp5I1RHQt_16threadkit_common5redisNtB6_11RedisClient8get_vote00CsaszyX3GTrYE_14threadkit_http
FNDA:1,_RNCNvMNtCsiekp5I1RHQt_16threadkit_common5redisNtB4_11RedisClient10block_user0CsaszyX3GTrYE_14threadkit_http
FNDA:0,_RNCNvMNtCsiekp5I1RHQt_16threadkit_common5redisNtB4_11RedisClient10get_admins0CsaszyX3GTrYE_14threadkit_http
FNDA:24,_RNCNvMNtCsiekp5I1RHQt_16threadkit_common5redisNtB4_11RedisClient11atomic_vote0CsaszyX3GTrYE_14threadkit_http
FNDA:0,_RNCNvMNtCsiekp5I1RHQt_16threadkit_common5redisNtB4_11RedisClient11get_comment0CsaszyX3GTrYE_14threadkit_http
FNDA:0,_RNCNvMNtCsiekp5I1RHQt_16threadkit_common5redisNtB4_11RedisClient11pin_comment0CsaszyX3GTrYE_14threadkit_http
FNDA:0,_RNCNvMNtCsiekp5I1RHQt_16threadkit_common5redisNtB4_11RedisClient11unlock_page0CsaszyX3GTrYE_14threadkit_http
FNDA:0,_RNCNvMNtCsiekp5I1RHQt_16threadkit_common5redisNtB4_11RedisClient12remove_admin0CsaszyX3GTrYE_14threadkit_http
FNDA:0,_RNCNvMNtCsiekp5I1RHQt_16threadkit_common5redisNtB4_11RedisClient12unblock_user0CsaszyX3GTrYE_14threadkit_http
FNDA:6,_RNCNvMNtCsiekp5I1RHQt_16threadkit_common5redisNtB4_11RedisClient13add_moderator0CsaszyX3GTrYE_14threadkit_http
FNDA:3,_RNCNvMNtCsiekp5I1RHQt_16threadkit_common5redisNtB4_11RedisClient13add_report_v20CsaszyX3GTrYE_14threadkit_http
FNDA:91,_RNCNvMNtCsiekp5I1RHQt_16threadkit_common5redisNtB4_11RedisClient13get_page_tree0CsaszyX3GTrYE_14threadkit_http
FNDA:9,_RNCNvMNtCsiekp5I1RHQt_16threadkit_common5redisNtB4_11RedisClient13get_pageviews0CsaszyX3GTrYE_14threadkit_http
FNDA:86,_RNCNvMNtCsiekp5I1RHQt_16threadkit_common5redisNtB4_11RedisClient13get_user_role0CsaszyX3GTrYE_14threadkit_http
FNDA:49,_RNCNvMNtCsiekp5I1RHQt_16threadkit_common5redisNtB4_11RedisClient13set_page_tree0CsaszyX3GTrYE_14threadkit_http
FNDA:0,_RNCNvMNtCsiekp5I1RHQt_16threadkit_common5redisNtB4_11RedisClient13unpin_comment0CsaszyX3GTrYE_14threadkit_http
FNDA:0,_RNCNvMNtCsiekp5I1RHQt_16threadkit_common5redisNtB4_11RedisClient14add_user_media0CsaszyX3GTrYE_14threadkit_http
FNDA:66,_RNCNvMNtCsiekp5I1RHQt_16threadkit_common5redisNtB4_11RedisClient14create_session0CsaszyX3GTrYE_14threadkit_http
FNDA:1,_RNCNvMNtCsiekp5I1RHQt_16threadkit_common5redisNtB4_11RedisClient14delete_session0CsaszyX3GTrYE_14threadkit_http
FNDA:0,_RNCNvMNtCsiekp5I1RHQt_16threadkit_common5redisNtB4_11RedisClient14get_blocked_by0CsaszyX3GTrYE_14threadkit_http
FNDA:0,_RNCNvMNtCsiekp5I1RHQt_16threadkit_common5redisNtB4_11RedisClient14get_media_info0CsaszyX3GTrYE_14threadkit_http
FNDA:0,_RNCNvMNtCsiekp5I1RHQt_16threadkit_common5redisNtB4_11RedisClient14get_moderators0CsaszyX3GTrYE_14threadkit_http
FNDA:0,_RNCNvMNtCsiekp5I1RHQt_16threadkit_common5redisNtB4_11RedisClient14get_page_votes0CsaszyX3GTrYE_14threadkit_http
FNDA:1,_RNCNvMNtCsiekp5I1RHQt_16threadkit_common5redisNtB4_11RedisClient14get_reports_v20CsaszyX3GTrYE_14threadkit_http
FNDA:0,_RNCNvMNtCsiekp5I1RHQt_16threadkit_common5redisNtB4_11RedisClient14get_user_votes0CsaszyX3GTrYE_14threadkit_http
FNDA:0,_RNCNvMNtCsiekp5I1RHQt_16threadkit_common5redisNtB4_11RedisClient14get_web3_nonce0CsaszyX3GTrYE_14threadkit_http
FNDA:49,_RNCNvMNtCsiekp5I1RHQt_16threadkit_common5redisNtB4_11RedisClient14is_page_locked0CsaszyX3GTrYE_14threadkit_http
FNDA:0,_RNCNvMNtCsiekp5I1RHQt_16threadkit_common5redisNtB4_11RedisClient14set_media_info0CsaszyX3GTrYE_14threadkit_http
FNDA:0,_RNCNvMNtCsiekp5I1RHQt_16threadkit_common5redisNtB4_11RedisClient14set_web3_nonce0CsaszyX3GTrYE_14threadkit_http
FNDA:1,_RNCNvMNtCsiekp5I1RHQt_16threadkit_common5redisNtB4_11RedisClient14shadowban_user0CsaszyX3GTrYE_14threadkit_http
FNDA:4,_RNCNvMNtCsiekp5I1RHQt_16threadkit_common5redisNtB4_11RedisClient15add_to_modqueue0CsaszyX3GTrYE_14threadkit_http
FNDA:1,_RNCNvMNtCsiekp5I1RHQt_16threadkit_common5redisNtB4_11RedisClient15get_modqueue_v20CsaszyX3GTrYE_14threadkit_http
FNDA:267,_RNCNvMNtCsiekp5I1RHQt_16threadkit_common5redisNtB4_11RedisClient15get_site_config0CsaszyX3GTrYE_14threadkit_http
FNDA:37,_RNCNvMNtCsiekp5I1RHQt_16threadkit_common5redisNtB4_11RedisClient15increment_usage0CsaszyX3GTrYE_14threadkit_http
FNDA:46,_RNCNvMNtCsiekp5I1RHQt_16threadkit_common5redisNtB4_11RedisClient15is_shadowbanned0CsaszyX3GTrYE_14threadkit_http
FNDA:73,_RNCNvMNtCsiekp5I1RHQt_16threadkit_common5redisNtB4_11RedisClient15set_site_config0CsaszyX3GTrYE_14threadkit_http
FNDA:0,_RNCNvMNtCsiekp5I1RHQt_16threadkit_common5redisNtB4_11RedisClient16add_notification0CsaszyX3GTrYE_14threadkit_http
FNDA:97,_RNCNvMNtCsiekp5I1RHQt_16threadkit_common5redisNtB4_11RedisClient16cache_project_id0CsaszyX3GTrYE_14threadkit_http
FNDA:460,_RNCNvMNtCsiekp5I1RHQt_16threadkit_common5redisNtB4_11RedisClient16check_rate_limit0CsaszyX3GTrYE_14threadkit_http
FNDA:90,_RNCNvMNtCsiekp5I1RHQt_16threadkit_common5redisNtB4_11RedisClient16get_session_user0CsaszyX3GTrYE_14threadkit_http
FNDA:0,_RNCNvMNtCsiekp5I1RHQt_16threadkit_common5redisNtB4_11RedisClient16get_unread_count0CsaszyX3GTrYE_14threadkit_http
FNDA:0,_RNCNvMNtCsiekp5I1RHQt_16threadkit_common5redisNtB4_11RedisClient16remove_moderator0CsaszyX3GTrYE_14threadkit_http
FNDA:0,_RNCNvMNtCsiekp5I1RHQt_16threadkit_common5redisNtB4_11RedisClient17delete_media_info0CsaszyX3GTrYE_14threadkit_http
FNDA:0,_RNCNvMNtCsiekp5I1RHQt_16threadkit_common5redisNtB4_11RedisClient17delete_web3_nonce0CsaszyX3GTrYE_14threadkit_http
FNDA:1,_RNCNvMNtCsiekp5I1RHQt_16threadkit_common5redisNtB4_11RedisClient17get_blocked_users0CsaszyX3GTrYE_14threadkit_http
FNDA:0,_RNCNvMNtCsiekp5I1RHQt_16threadkit_common5redisNtB4_11RedisClient17get_notifications0CsaszyX3GTrYE_14threadkit_http
FNDA:66,_RNCNvMNtCsiekp5I1RHQt_16threadkit_common5redisNtB4_11RedisClient17get_user_by_email0CsaszyX3GTrYE_14threadkit_http
FNDA:0,_RNCNvMNtCsiekp5I1RHQt_16threadkit_common5redisNtB4_11RedisClient17get_user_comments0CsaszyX3GTrYE_14threadkit_http
FNDA:0,_RNCNvMNtCsiekp5I1RHQt_16threadkit_common5redisNtB4_11RedisClient17is_comment_pinned0CsaszyX3GTrYE_14threadkit_http
FNDA:0,_RNCNvMNtCsiekp5I1RHQt_16threadkit_common5redisNtB4_11RedisClient17remove_user_media0CsaszyX3GTrYE_14threadkit_http
FNDA:16,_RNCNvMNtCsiekp5I1RHQt_16threadkit_common5redisNtB4_11RedisClient17update_user_karma0CsaszyX3GTrYE_14threadkit_http
FNDA:0,_RNCNvMNtCsiekp5I1RHQt_16threadkit_common5redisNtB4_11RedisClient18block_user_by_user0CsaszyX3GTrYE_14threadkit_http
FNDA:0,_RNCNvMNtCsiekp5I1RHQt_16threadkit_common5redisNtB4_11RedisClient18get_user_by_wallet0CsaszyX3GTrYE_14threadkit_http
FNDA:0,_RNCNvMNtCsiekp5I1RHQt_16threadkit_common5redisNtB4_11RedisClient19delete_user_account0CsaszyX3GTrYE_14threadkit_http
FNDA:9,_RNCNvMNtCsiekp5I1RHQt_16threadkit_common5redisNtB4_11RedisClient19get_pinned_comments0CsaszyX3GTrYE_14threadkit_http
FNDA:0,_RNCNvMNtCsiekp5I1RHQt_16threadkit_common5redisNtB4_11RedisClient20get_user_by_provider0CsaszyX3GTrYE_14threadkit_http
FNDA:66,_RNCNvMNtCsiekp5I1RHQt_16threadkit_common5redisNtB4_11RedisClient20get_user_by_username0CsaszyX3GTrYE_14threadkit_http
FNDA:66,_RNCNvMNtCsiekp5I1RHQt_16threadkit_common5redisNtB4_11RedisClient20set_user_email_index0CsaszyX3GTrYE_14threadkit_http
FNDA:0,_RNCNvMNtCsiekp5I1RHQt_16threadkit_common5redisNtB4_11RedisClient20unblock_user_by_user0CsaszyX3GTrYE_14threadkit_http
FNDA:0,_RNCNvMNtCsiekp5I1RHQt_16threadkit_common5redisNtB4_11RedisClient20update_comment_votes0CsaszyX3GTrYE_14threadkit_http
FNDA:0,_RNCNvMNtCsiekp5I1RHQt_16threadkit_common5redisNtB4_11RedisClient20update_site_settings0CsaszyX3GTrYE_14threadkit_http
FNDA:380,_RNCNvMNtCsiekp5I1RHQt_16threadkit_common5redisNtB4_11RedisClient21get_cached_project_id0CsaszyX3GTrYE_14threadkit_http
FNDA:3,_RNCNvMNtCsiekp5I1RHQt_16threadkit_common5redisNtB4_11RedisClient21get_verification_code0CsaszyX3GTrYE_14threadkit_http
FNDA:0,_RNCNvMNtCsiekp5I1RHQt_16threadkit_common5redisNtB4_11RedisClient21is_username_available0CsaszyX3GTrYE_14threadkit_http
FNDA:0,_RNCNvMNtCsiekp5I1RHQt_16threadkit_common5redisNtB4_11RedisClient21set_user_wallet_index0CsaszyX3GTrYE_14threadkit_http
FNDA:4,_RNCNvMNtCsiekp5I1RHQt_16threadkit_common5redisNtB4_11RedisClient21set_verification_code0CsaszyX3GTrYE_14threadkit_http
FNDA:37,_RNCNvMNtCsiekp5I1RHQt_16threadkit_common5redisNtB4_11RedisClient22add_site_comment_index0CsaszyX3GTrYE_14threadkit_http
FNDA:37,_RNCNvMNtCsiekp5I1RHQt_16threadkit_common5redisNtB4_11RedisClient22add_user_comment_index0CsaszyX3GTrYE_14threadkit_http
FNDA:0,_RNCNvMNtCsiekp5I1RHQt_16threadkit_common5redisNtB4_11RedisClient22get_site_by_project_id0CsaszyX3GTrYE_14threadkit_http
FNDA:0,_RNCNvMNtCsiekp5I1RHQt_16threadkit_common5redisNtB4_11RedisClient22get_site_comment_index0CsaszyX3GTrYE_14threadkit_http
FNDA:0,_RNCNvMNtCsiekp5I1RHQt_16threadkit_common5redisNtB4_11RedisClient22get_user_site_comments0CsaszyX3GTrYE_14threadkit_http
FNDA:54,_RNCNvMNtCsiekp5I1RHQt_16threadkit_common5redisNtB4_11RedisClient23get_or_create_page_tree0CsaszyX3GTrYE_14threadkit_http
FNDA:0,_RNCNvMNtCsiekp5I1RHQt_16threadkit_common5redisNtB4_11RedisClient23mark_notifications_read0CsaszyX3GTrYE_14threadkit_http
FNDA:2,_RNCNvMNtCsiekp5I1RHQt_16threadkit_common5redisNtB4_11RedisClient23remove_from_modqueue_v20CsaszyX3GTrYE_14threadkit_http
FNDA:0,_RNCNvMNtCsiekp5I1RHQt_16threadkit_common5redisNtB4_11RedisClient23set_user_provider_index0CsaszyX3GTrYE_14threadkit_http
FNDA:66,_RNCNvMNtCsiekp5I1RHQt_16threadkit_common5redisNtB4_11RedisClient23set_user_username_index0CsaszyX3GTrYE_14threadkit_http
FNDA:0,_RNCNvMNtCsiekp5I1RHQt_16threadkit_common5redisNtB4_11RedisClient24delete_verification_code0CsaszyX3GTrYE_14threadkit_http
FNDA:0,_RNCNvMNtCsiekp5I1RHQt_16threadkit_common5redisNtB4_11RedisClient26delete_user_username_index0CsaszyX3GTrYE_14threadkit_http
FNDA:256,_RNCNvMNtCsiekp5I1RHQt_16threadkit_common5redisNtB4_11RedisClient26get_site_config_by_api_key0CsaszyX3GTrYE_14threadkit_http
FNDA:37,_RNCNvMNtCsiekp5I1RHQt_16threadkit_common5redisNtB4_11RedisClient27add_user_site_comment_index0CsaszyX3GTrYE_14threadkit_http
FNDA:37,_RNCNvMNtCsiekp5I1RHQt_16threadkit_common5redisNtB4_11RedisClient28increment_user_comment_count0CsaszyX3GTrYE_14threadkit_http
FNDA:9,_RNCNvMNtCsiekp5I1RHQt_16threadkit_common5redisNtB4_11RedisClient29increment_pageview_with_usage0CsaszyX3GTrYE_14threadkit_http
FNDA:58,_RNCNvMNtCsiekp5I1RHQt_16threadkit_common5redisNtB4_11RedisClient7publish0CsaszyX3GTrYE_14threadkit_http
FNDA:142,_RNCNvMNtCsiekp5I1RHQt_16threadkit_common5redisNtB4_11RedisClient8get_user0CsaszyX3GTrYE_14threadkit_http
FNDA:0,_RNCNvMNtCsiekp5I1RHQt_16threadkit_common5redisNtB4_11RedisClient8get_vote0CsaszyX3GTrYE_14threadkit_http
FNDA:66,_RNCNvMNtCsiekp5I1RHQt_16threadkit_common5redisNtB4_11RedisClient8set_user0CsaszyX3GTrYE_14threadkit_http
FNDA:0,_RNCNvMNtCsiekp5I1RHQt_16threadkit_common5redisNtB4_11RedisClient9add_admin0CsaszyX3GTrYE_14threadkit_http
FNDA:0,_RNCNvMNtCsiekp5I1RHQt_16threadkit_common5redisNtB4_11RedisClient9lock_page0CsaszyX3GTrYE_14threadkit_http
FNDA:0,_RNvMNtCsiekp5I1RHQt_16threadkit_common5redisNtB2_11RedisClient10add_report
FNDA:1,_RNvMNtCsiekp5I1RHQt_16threadkit_common5redisNtB2_11RedisClient10block_user
FNDA:0,_RNvMNtCsiekp5I1RHQt_16threadkit_common5redisNtB2_11RedisClient10get_admins
FNDA:1,_RNvMNtCsiekp5I1RHQt_16threadkit_common5redisNtB2_11RedisClient10set_typing
FNDA:24,_RNvMNtCsiekp5I1RHQt_16threadkit_common5redisNtB2_11RedisClient11atomic_vote
FNDA:0,_RNvMNtCsiekp5I1RHQt_16threadkit_common5redisNtB2_11RedisClient11count_sites
FNDA:0,_RNvMNtCsiekp5I1RHQt_16threadkit_common5redisNtB2_11RedisClient11delete_vote
FNDA:0,_RNvMNtCsiekp5I1RHQt_16threadkit_common5redisNtB2_11RedisClient11get_comment
FNDA:0,_RNvMNtCsiekp5I1RHQt_16threadkit_common5redisNtB2_11RedisClient11get_reports
FNDA:0,_RNvMNtCsiekp5I1RHQt_16threadkit_common5redisNtB2_11RedisClient11pin_comment
FNDA:0,_RNvMNtCsiekp5I1RHQt_16threadkit_common5redisNtB2_11RedisClient11set_comment
FNDA:0,_RNvMNtCsiekp5I1RHQt_16threadkit_common5redisNtB2_11RedisClient11unlock_page
FNDA:15,_RNvMNtCsiekp5I1RHQt_16threadkit_common5redisNtB2_11RedisClient12add_presence
FNDA:31,_RNvMNtCsiekp5I1RHQt_16threadkit_common5redisNtB2_11RedisClient12get_presence
FNDA:0,_RNvMNtCsiekp5I1RHQt_16threadkit_common5redisNtB2_11RedisClient12remove_admin
FNDA:0,_RNvMNtCsiekp5I1RHQt_16threadkit_common5redisNtB2_11RedisClient12unblock_user
FNDA:6,_RNvMNtCsiekp5I1RHQt_16threadkit_common5redisNtB2_11RedisClient13add_moderator
FNDA:3,_RNvMNtCsiekp5I1RHQt_16threadkit_common5redisNtB2_11RedisClient13add_report_v2
FNDA:0,_RNvMNtCsiekp5I1RHQt_16threadkit_common5redisNtB2_11RedisClient13add_user_vote
FNDA:91,_RNvMNtCsiekp5I1RHQt_16threadkit_common5redisNtB2_11RedisClient13get_page_tree
FNDA:9,_RNvMNtCsiekp5I1RHQt_16threadkit_common5redisNtB2_11RedisClient13get_pageviews
FNDA:86,_RNvMNtCsiekp5I1RHQt_16threadkit_common5redisNtB2_11RedisClient13get_user_role
FNDA:49,_RNvMNtCsiekp5I1RHQt_16threadkit_common5redisNtB2_11RedisClient13set_page_tree
FNDA:0,_RNvMNtCsiekp5I1RHQt_16threadkit_common5redisNtB2_11RedisClient13set_page_vote
FNDA:0,_RNvMNtCsiekp5I1RHQt_16threadkit_common5redisNtB2_11RedisClient13unpin_comment
FNDA:0,_RNvMNtCsiekp5I1RHQt_16threadkit_common5redisNtB2_11RedisClient14add_user_media
FNDA:66,_RNvMNtCsiekp5I1RHQt_16threadkit_common5redisNtB2_11RedisClient14create_session
FNDA:1,_RNvMNtCsiekp5I1RHQt_16threadkit_common5redisNtB2_11RedisClient14delete_session
FNDA:0,_RNvMNtCsiekp5I1RHQt_16threadkit_common5redisNtB2_11RedisClient14get_blocked_by
FNDA:0,_RNvMNtCsiekp5I1RHQt_16threadkit_common5redisNtB2_11RedisClient14get_media_info
FNDA:0,_RNvMNtCsiekp5I1RHQt_16threadkit_common5redisNtB2_11RedisClient14get_moderators
FNDA:0,_RNvMNtCsiekp5I1RHQt_16threadkit_common5redisNtB2_11RedisClient14get_page_votes
FNDA:1,_RNvMNtCsiekp5I1RHQt_16threadkit_common5redisNtB2_11RedisClient14get_reports_v2
FNDA:0,_RNvMNtCsiekp5I1RHQt_16threadkit_common5redisNtB2_11RedisClient14get_user_media
FNDA:0,_RNvMNtCsiekp5I1RHQt_16threadkit_common5redisNtB2_11RedisClient14get_user_votes
FNDA:0,_RNvMNtCsiekp5I1RHQt_16threadkit_common5redisNtB2_11RedisClient14get_web3_nonce
FNDA:49,_RNvMNtCsiekp5I1RHQt_16threadkit_common5redisNtB2_11RedisClient14is_page_locked
FNDA:0,_RNvMNtCsiekp5I1RHQt_16threadkit_common5redisNtB2_11RedisClient14set_media_info
FNDA:0,_RNvMNtCsiekp5I1RHQt_16threadkit_common5redisNtB2_11RedisClient14set_web3_nonce
FNDA:1,_RNvMNtCsiekp5I1RHQt_16threadkit_common5redisNtB2_11RedisClient14shadowban_user
FNDA:4,_RNvMNtCsiekp5I1RHQt_16threadkit_common5redisNtB2_11RedisClient15add_to_modqueue
FNDA:1,_RNvMNtCsiekp5I1RHQt_16threadkit_common5redisNtB2_11RedisClient15get_modqueue_v2
FNDA:296,_RNvMNtCsiekp5I1RHQt_16threadkit_common5redisNtB2_11RedisClient15get_site_config
FNDA:0,_RNvMNtCsiekp5I1RHQt_16threadkit_common5redisNtB2_11RedisClient15get_users_batch
FNDA:0,_RNvMNtCsiekp5I1RHQt_16threadkit_common5redisNtB2_11RedisClient15get_votes_batch
FNDA:73,_RNvMNtCsiekp5I1RHQt_16threadkit_common5redisNtB2_11RedisClient15increment_usage
FNDA:46,_RNvMNtCsiekp5I1RHQt_16threadkit_common5redisNtB2_11RedisClient15is_shadowbanned
FNDA:1,_RNvMNtCsiekp5I1RHQt_16threadkit_common5redisNtB2_11RedisClient15remove_presence
FNDA:97,_RNvMNtCsiekp5I1RHQt_16threadkit_common5redisNtB2_11RedisClient15set_site_config
FNDA:0,_RNvMNtCsiekp5I1RHQt_16threadkit_common5redisNtB2_11RedisClient15set_with_expiry
FNDA:0,_RNvMNtCsiekp5I1RHQt_16threadkit_common5redisNtB2_11RedisClient16add_notification
FNDA:0,_RNvMNtCsiekp5I1RHQt_16threadkit_common5redisNtB2_11RedisClient16add_user_comment
FNDA:126,_RNvMNtCsiekp5I1RHQt_16threadkit_common5redisNtB2_11RedisClient16cache_project_id
FNDA:460,_RNvMNtCsiekp5I1RHQt_16threadkit_common5redisNtB2_11RedisClient16check_rate_limit
FNDA:0,_RNvMNtCsiekp5I1RHQt_16threadkit_common5redisNtB2_11RedisClient16delete_page_vote
FNDA:94,_RNvMNtCsiekp5I1RHQt_16threadkit_common5redisNtB2_11RedisClient16generate_page_id
FNDA:0,_RNvMNtCsiekp5I1RHQt_16threadkit_common5redisNtB2_11RedisClient16get_locked_pages
FNDA:90,_RNvMNtCsiekp5I1RHQt_16threadkit_common5redisNtB2_11RedisClient16get_session_user
FNDA:0,_RNvMNtCsiekp5I1RHQt_16threadkit_common5redisNtB2_11RedisClient16get_typing_users
FNDA:0,_RNvMNtCsiekp5I1RHQt_16threadkit_common5redisNtB2_11RedisClient16get_unread_count
FNDA:198,_RNvMNtCsiekp5I1RHQt_16threadkit_common5redisNtB2_11RedisClient16load_lua_scripts
FNDA:0,_RNvMNtCsiekp5I1RHQt_16threadkit_common5redisNtB2_11RedisClient16remove_moderator
FNDA:0,_RNvMNtCsiekp5I1RHQt_16threadkit_common5redisNtB2_11RedisClient16remove_user_vote
FNDA:0,_RNvMNtCsiekp5I1RHQt_16threadkit_common5redisNtB2_11RedisClient17delete_media_info
FNDA:0,_RNvMNtCsiekp5I1RHQt_16threadkit_common5redisNtB2_11RedisClient17delete_web3_nonce
FNDA:1,_RNvMNtCsiekp5I1RHQt_16threadkit_common5redisNtB2_11RedisClient17get_blocked_users
FNDA:0,_RNvMNtCsiekp5I1RHQt_16threadkit_common5redisNtB2_11RedisClient17get_notifications
FNDA:0,_RNvMNtCsiekp5I1RHQt_16threadkit_common5redisNtB2_11RedisClient17get_page_comments
FNDA:66,_RNvMNtCsiekp5I1RHQt_16threadkit_common5redisNtB2_11RedisClient17get_user_by_email
FNDA:0,_RNvMNtCsiekp5I1RHQt_16threadkit_common5redisNtB2_11RedisClient17get_user_by_phone
FNDA:0,_RNvMNtCsiekp5I1RHQt_16threadkit_common5redisNtB2_11RedisClient17get_user_comments
FNDA:0,_RNvMNtCsiekp5I1RHQt_16threadkit_common5redisNtB2_11RedisClient17get_user_password
FNDA:0,_RNvMNtCsiekp5I1RHQt_16threadkit_common5redisNtB2_11RedisClient17is_comment_pinned
FNDA:0,_RNvMNtCsiekp5I1RHQt_16threadkit_common5redisNtB2_11RedisClient17remove_user_media
FNDA:0,_RNvMNtCsiekp5I1RHQt_16threadkit_common5redisNtB2_11RedisClient17set_user_password
FNDA:16,_RNvMNtCsiekp5I1RHQt_16threadkit_common5redisNtB2_11RedisClient17update_user_karma
FNDA:15,_RNvMNtCsiekp5I1RHQt_16threadkit_common5redisNtB2_11RedisClient18add_unique_visitor
FNDA:0,_RNvMNtCsiekp5I1RHQt_16threadkit_common5redisNtB2_11RedisClient18block_user_by_user
FNDA:0,_RNvMNtCsiekp5I1RHQt_16threadkit_common5redisNtB2_11RedisClient18get_comments_batch
FNDA:0,_RNvMNtCsiekp5I1RHQt_16threadkit_common5redisNtB2_11RedisClient18get_user_by_wallet
FNDA:0,_RNvMNtCsiekp5I1RHQt_16threadkit_common5redisNtB2_11RedisClient18increment_pageview
FNDA:0,_RNvMNtCsiekp5I1RHQt_16threadkit_common5redisNtB2_11RedisClient18is_blocked_by_user
FNDA:0,_RNvMNtCsiekp5I1RHQt_16threadkit_common5redisNtB2_11RedisClient19delete_user_account
FNDA:0,_RNvMNtCsiekp5I1RHQt_16threadkit_common5redisNtB2_11RedisClient19get_comment_replies
FNDA:9,_RNvMNtCsiekp5I1RHQt_16threadkit_common5redisNtB2_11RedisClient19get_pinned_comments
FNDA:0,_RNvMNtCsiekp5I1RHQt_16threadkit_common5redisNtB2_11RedisClient19remove_user_comment
FNDA:0,_RNvMNtCsiekp5I1RHQt_16threadkit_common5redisNtB2_11RedisClient20get_moderation_queue
FNDA:0,_RNvMNtCsiekp5I1RHQt_16threadkit_common5redisNtB2_11RedisClient20get_user_by_provider
FNDA:66,_RNvMNtCsiekp5I1RHQt_16threadkit_common5redisNtB2_11RedisClient20get_user_by_username
FNDA:0,_RNvMNtCsiekp5I1RHQt_16threadkit_common5redisNtB2_11RedisClient20remove_from_modqueue
FNDA:66,_RNvMNtCsiekp5I1RHQt_16threadkit_common5redisNtB2_11RedisClient20set_user_email_index
FNDA:0,_RNvMNtCsiekp5I1RHQt_16threadkit_common5redisNtB2_11RedisClient20set_user_phone_index
FNDA:0,_RNvMNtCsiekp5I1RHQt_16threadkit_common5redisNtB2_11RedisClient20unblock_user_by_user
FNDA:0,_RNvMNtCsiekp5I1RHQt_16threadkit_common5redisNtB2_11RedisClient20update_comment_votes
FNDA:0,_RNvMNtCsiekp5I1RHQt_16threadkit_common5redisNtB2_11RedisClient20update_site_settings
FNDA:408,_RNvMNtCsiekp5I1RHQt_16threadkit_common5redisNtB2_11RedisClient21get_cached_project_id
FNDA:0,_RNvMNtCsiekp5I1RHQt_16threadkit_common5redisNtB2_11RedisClient21get_rate_limit_status
FNDA:3,_RNvMNtCsiekp5I1RHQt_16threadkit_common5redisNtB2_11RedisClient21get_verification_code
FNDA:0,_RNvMNtCsiekp5I1RHQt_16threadkit_common5redisNtB2_11RedisClient21is_username_available
FNDA:0,_RNvMNtCsiekp5I1RHQt_16threadkit_common5redisNtB2_11RedisClient21set_user_wallet_index
FNDA:4,_RNvMNtCsiekp5I1RHQt_16threadkit_common5redisNtB2_11RedisClient21set_verification_code
FNDA:37,_RNvMNtCsiekp5I1RHQt_16threadkit_common5redisNtB2_11RedisClient22add_site_comment_index
FNDA:37,_RNvMNtCsiekp5I1RHQt_16threadkit_common5redisNtB2_11RedisClient22add_user_comment_index
FNDA:0,_RNvMNtCsiekp5I1RHQt_16threadkit_common5redisNtB2_11RedisClient22get_site_by_project_id
FNDA:0,_RNvMNtCsiekp5I1RHQt_16threadkit_common5redisNtB2_11RedisClient22get_site_comment_index
FNDA:0,_RNvMNtCsiekp5I1RHQt_16threadkit_common5redisNtB2_11RedisClient22get_user_comment_index
FNDA:0,_RNvMNtCsiekp5I1RHQt_16threadkit_common5redisNtB2_11RedisClient22get_user_site_comments
FNDA:54,_RNvMNtCsiekp5I1RHQt_16threadkit_common5redisNtB2_11RedisClient23get_or_create_page_tree
FNDA:0,_RNvMNtCsiekp5I1RHQt_16threadkit_common5redisNtB2_11RedisClient23mark_notifications_read
FNDA:2,_RNvMNtCsiekp5I1RHQt_16threadkit_common5redisNtB2_11RedisClient23remove_from_modqueue_v2
FNDA:0,_RNvMNtCsiekp5I1RHQt_16threadkit_common5redisNtB2_11RedisClient23set_user_provider_index
FNDA:66,_RNvMNtCsiekp5I1RHQt_16threadkit_common5redisNtB2_11RedisClient23set_user_username_index
FNDA:0,_RNvMNtCsiekp5I1RHQt_16threadkit_common5redisNtB2_11RedisClient24delete_verification_code
FNDA:0,_RNvMNtCsiekp5I1RHQt_16threadkit_common5redisNtB2_11RedisClient26delete_user_username_index
FNDA:285,_RNvMNtCsiekp5I1RHQt_16threadkit_common5redisNtB2_11RedisClient26get_site_config_by_api_key
FNDA:37,_RNvMNtCsiekp5I1RHQt_16threadkit_common5redisNtB2_11RedisClient27add_user_site_comment_index
FNDA:11,_RNvMNtCsiekp5I1RHQt_16threadkit_common5redisNtB2_11RedisClient27invalidate_project_id_cache
FNDA:0,_RNvMNtCsiekp5I1RHQt_16threadkit_common5redisNtB2_11RedisClient28decrement_user_comment_count
FNDA:37,_RNvMNtCsiekp5I1RHQt_16threadkit_common5redisNtB2_11RedisClient28increment_user_comment_count
FNDA:9,_RNvMNtCsiekp5I1RHQt_16threadkit_common5redisNtB2_11RedisClient29increment_pageview_with_usage
FNDA:198,_RNvMNtCsiekp5I1RHQt_16threadkit_common5redisNtB2_11RedisClient3new
FNDA:0,_RNvMNtCsiekp5I1RHQt_16threadkit_common5redisNtB2_11RedisClient4ping
FNDA:0,_RNvMNtCsiekp5I1RHQt_16threadkit_common5redisNtB2_11RedisClient6exists
FNDA:58,_RNvMNtCsiekp5I1RHQt_16threadkit_common5redisNtB2_11RedisClient7publish
FNDA:179,_RNvMNtCsiekp5I1RHQt_16threadkit_common5redisNtB2_11RedisClient8get_user
FNDA:0,_RNvMNtCsiekp5I1RHQt_16threadkit_common5redisNtB2_11RedisClient8get_vote
FNDA:82,_RNvMNtCsiekp5I1RHQt_16threadkit_common5redisNtB2_11RedisClient8set_user
FNDA:0,_RNvMNtCsiekp5I1RHQt_16threadkit_common5redisNtB2_11RedisClient8set_vote
FNDA:0,_RNvMNtCsiekp5I1RHQt_16threadkit_common5redisNtB2_11RedisClient9add_admin
FNDA:0,_RNvMNtCsiekp5I1RHQt_16threadkit_common5redisNtB2_11RedisClient9lock_page
FNDA:53,_RNCNCNvMNtCsiekp5I1RHQt_16threadkit_common5redisNtB6_11RedisClient16load_lua_scripts00Cs7z9qMl5nAho_13comment_tests
FNDA:0,_RNCNCNvMNtCsiekp5I1RHQt_16threadkit_common5redisNtB6_11RedisClient16load_lua_scripts0s0_0Cs7z9qMl5nAho_13comment_tests
FNDA:0,_RNCNCNvMNtCsiekp5I1RHQt_16threadkit_common5redisNtB6_11RedisClient16load_lua_scripts0s1_0Cs7z9qMl5nAho_13comment_tests
FNDA:53,_RNCNCNvMNtCsiekp5I1RHQt_16threadkit_common5redisNtB6_11RedisClient16load_lua_scripts0s2_0Cs7z9qMl5nAho_13comment_tests
FNDA:53,_RNCNCNvMNtCsiekp5I1RHQt_16threadkit_common5redisNtB6_11RedisClient16load_lua_scripts0s3_0Cs7z9qMl5nAho_13comment_tests
FNDA:0,_RNCNCNvMNtCsiekp5I1RHQt_16threadkit_common5redisNtB6_11RedisClient16load_lua_scripts0s4_0Cs7z9qMl5nAho_13comment_tests
FNDA:0,_RNCNCNvMNtCsiekp5I1RHQt_16threadkit_common5redisNtB6_11RedisClient16load_lua_scripts0s5_0Cs7z9qMl5nAho_13comment_tests
FNDA:0,_RNCNCNvMNtCsiekp5I1RHQt_16threadkit_common5redisNtB6_11RedisClient16load_lua_scripts0s6_0Cs7z9qMl5nAho_13comment_tests
FNDA:0,_RNCNCNvMNtCsiekp5I1RHQt_16threadkit_common5redisNtB6_11RedisClient16load_lua_scripts0s_0Cs7z9qMl5nAho_13comment_tests
FNDA:53,_RNCNvMNtCsiekp5I1RHQt_16threadkit_common5redisNtB4_11RedisClient16load_lua_scripts0Cs7z9qMl5nAho_13comment_tests
FNDA:53,_RNCNvMNtCsiekp5I1RHQt_16threadkit_common5redisNtB4_11RedisClient3new0Cs7z9qMl5nAho_13comment_tests
FNDA:1,_RINvMNtCsiekp5I1RHQt_16threadkit_common5redisNtB3_11RedisClient12hsetall_jsonNtNtB5_5types4UserECscjQi9PvWoBf_16connection_tests
FNDA:1,_RNCINvMNtCsiekp5I1RHQt_16threadkit_common5redisNtB5_11RedisClient12hsetall_jsonNtNtB7_5types4UserE0CscjQi9PvWoBf_16connection_tests
FNDA:14,_RNCNCINvMNtCsiekp5I1RHQt_16threadkit_common5redisNtB7_11RedisClient12hsetall_jsonNtNtB9_5types4UserE00CscjQi9PvWoBf_16connection_tests
FNDA:20,_RNCNCNvMNtCsiekp5I1RHQt_16threadkit_common5redisNtB6_11RedisClient16load_lua_scripts00CscjQi9PvWoBf_16connection_tests
FNDA:0,_RNCNCNvMNtCsiekp5I1RHQt_16threadkit_common5redisNtB6_11RedisClient16load_lua_scripts0s0_0CscjQi9PvWoBf_16connection_tests
FNDA:0,_RNCNCNvMNtCsiekp5I1RHQt_16threadkit_common5redisNtB6_11RedisClient16load_lua_scripts0s1_0CscjQi9PvWoBf_16connection_tests
FNDA:20,_RNCNCNvMNtCsiekp5I1RHQt_16threadkit_common5redisNtB6_11RedisClient16load_lua_scripts0s2_0CscjQi9PvWoBf_16connection_tests
FNDA:20,_RNCNCNvMNtCsiekp5I1RHQt_16threadkit_common5redisNtB6_11RedisClient16load_lua_scripts0s3_0CscjQi9PvWoBf_16connection_tests
FNDA:0,_RNCNCNvMNtCsiekp5I1RHQt_16threadkit_common5redisNtB6_11RedisClient16load_lua_scripts0s4_0CscjQi9PvWoBf_16connection_tests
FNDA:0,_RNCNCNvMNtCsiekp5I1RHQt_16threadkit_common5redisNtB6_11RedisClient16load_lua_scripts0s5_0CscjQi9PvWoBf_16connection_tests
FNDA:0,_RNCNCNvMNtCsiekp5I1RHQt_16threadkit_common5redisNtB6_11RedisClient16load_lua_scripts0s6_0CscjQi9PvWoBf_16connection_tests
FNDA:0,_RNCNCNvMNtCsiekp5I1RHQt_16threadkit_common5redisNtB6_11RedisClient16load_lua_scripts0s_0CscjQi9PvWoBf_16connection_tests
FNDA:10,_RNCNvMNtCsiekp5I1RHQt_16threadkit_common5redisNtB4_11RedisClient15set_site_config0CscjQi9PvWoBf_16connection_tests
FNDA:20,_RNCNvMNtCsiekp5I1RHQt_16threadkit_common5redisNtB4_11RedisClient16load_lua_scripts0CscjQi9PvWoBf_16connection_tests
FNDA:20,_RNCNvMNtCsiekp5I1RHQt_16threadkit_common5redisNtB4_11RedisClient3new0CscjQi9PvWoBf_16connection_tests
FNDA:1,_RNCNvMNtCsiekp5I1RHQt_16threadkit_common5redisNtB4_11RedisClient8set_user0CscjQi9PvWoBf_16connection_tests
FNDA:37,_RINvMNtCsiekp5I1RHQt_16threadkit_common5redisNtB3_11RedisClient12hgetall_jsonNtNtB5_5types4UserECsbuQPXyPdc1s_19threadkit_websocket
FNDA:37,_RNCINvMNtCsiekp5I1RHQt_16threadkit_common5redisNtB5_11RedisClient12hgetall_jsonNtNtB7_5types4UserE0CsbuQPXyPdc1s_19threadkit_websocket
FNDA:185,_RNCNCINvMNtCsiekp5I1RHQt_16threadkit_common5redisNtB7_11RedisClient12hgetall_jsonNtNtB9_5types4UserE00CsbuQPXyPdc1s_19threadkit_websocket
FNDA:21,_RNCNCNvMNtCsiekp5I1RHQt_16threadkit_common5redisNtB6_11RedisClient12get_presence00CsbuQPXyPdc1s_19threadkit_websocket
FNDA:29,_RNCNCNvMNtCsiekp5I1RHQt_16threadkit_common5redisNtB6_11RedisClient15get_site_config00CsbuQPXyPdc1s_19threadkit_websocket
FNDA:4,_RNCNCNvMNtCsiekp5I1RHQt_16threadkit_common5redisNtB6_11RedisClient21get_cached_project_id00CsbuQPXyPdc1s_19threadkit_websocket
FNDA:1,_RNCNvMNtCsiekp5I1RHQt_16threadkit_common5redisNtB4_11RedisClient10set_typing0CsbuQPXyPdc1s_19threadkit_websocket
FNDA:15,_RNCNvMNtCsiekp5I1RHQt_16threadkit_common5redisNtB4_11RedisClient12add_presence0CsbuQPXyPdc1s_19threadkit_websocket
FNDA:31,_RNCNvMNtCsiekp5I1RHQt_16threadkit_common5redisNtB4_11RedisClient12get_presence0CsbuQPXyPdc1s_19threadkit_websocket
FNDA:29,_RNCNvMNtCsiekp5I1RHQt_16threadkit_common5redisNtB4_11RedisClient15get_site_config0CsbuQPXyPdc1s_19threadkit_websocket
FNDA:36,_RNCNvMNtCsiekp5I1RHQt_16threadkit_common5redisNtB4_11RedisClient15increment_usage0CsbuQPXyPdc1s_19threadkit_websocket
FNDA:1,_RNCNvMNtCsiekp5I1RHQt_16threadkit_common5redisNtB4_11RedisClient15remove_presence0CsbuQPXyPdc1s_19threadkit_websocket
FNDA:29,_RNCNvMNtCsiekp5I1RHQt_16threadkit_common5redisNtB4_11RedisClient16cache_project_id0CsbuQPXyPdc1s_19threadkit_websocket
FNDA:15,_RNCNvMNtCsiekp5I1RHQt_16threadkit_common5redisNtB4_11RedisClient18add_unique_visitor0CsbuQPXyPdc1s_19threadkit_websocket
FNDA:28,_RNCNvMNtCsiekp5I1RHQt_16threadkit_common5redisNtB4_11RedisClient21get_cached_project_id0CsbuQPXyPdc1s_19threadkit_websocket
FNDA:29,_RNCNvMNtCsiekp5I1RHQt_16threadkit_common5redisNtB4_11RedisClient26get_site_config_by_api_key0CsbuQPXyPdc1s_19threadkit_websocket
FNDA:0,_RNCNvMNtCsiekp5I1RHQt_16threadkit_common5redisNtB4_11RedisClient7publish0CsbuQPXyPdc1s_19threadkit_websocket
FNDA:37,_RNCNvMNtCsiekp5I1RHQt_16threadkit_common5redisNtB4_11RedisClient8get_user0CsbuQPXyPdc1s_19threadkit_websocket
FNDA:6,_RNCNCNvMNtCsiekp5I1RHQt_16threadkit_common5redisNtB6_11RedisClient16load_lua_scripts00Cs2N948IYtZ75_11media_tests
FNDA:0,_RNCNCNvMNtCsiekp5I1RHQt_16threadkit_common5redisNtB6_11RedisClient16load_lua_scripts0s0_0Cs2N948IYtZ75_11media_tests
FNDA:0,_RNCNCNvMNtCsiekp5I1RHQt_16threadkit_common5redisNtB6_11RedisClient16load_lua_scripts0s1_0Cs2N948IYtZ75_11media_tests
FNDA:6,_RNCNCNvMNtCsiekp5I1RHQt_16threadkit_common5redisNtB6_11RedisClient16load_lua_scripts0s2_0Cs2N948IYtZ75_11media_tests
FNDA:6,_RNCNCNvMNtCsiekp5I1RHQt_16threadkit_common5redisNtB6_11RedisClient16load_lua_scripts0s3_0Cs2N948IYtZ75_11media_tests
FNDA:0,_RNCNCNvMNtCsiekp5I1RHQt_16threadkit_common5redisNtB6_11RedisClient16load_lua_scripts0s4_0Cs2N948IYtZ75_11media_tests
FNDA:0,_RNCNCNvMNtCsiekp5I1RHQt_16threadkit_common5redisNtB6_11RedisClient16load_lua_scripts0s5_0Cs2N948IYtZ75_11media_tests
FNDA:0,_RNCNCNvMNtCsiekp5I1RHQt_16threadkit_common5redisNtB6_11RedisClient16load_lua_scripts0s6_0Cs2N948IYtZ75_11media_tests
FNDA:0,_RNCNCNvMNtCsiekp5I1RHQt_16threadkit_common5redisNtB6_11RedisClient16load_lua_scripts0s_0Cs2N948IYtZ75_11media_tests
FNDA:6,_RNCNvMNtCsiekp5I1RHQt_16threadkit_common5redisNtB4_11RedisClient16load_lua_scripts0Cs2N948IYtZ75_11media_tests
FNDA:6,_RNCNvMNtCsiekp5I1RHQt_16threadkit_common5redisNtB4_11RedisClient3new0Cs2N948IYtZ75_11media_tests
FNDA:29,_RNCNCNvMNtCsiekp5I1RHQt_16threadkit_common5redisNtB6_11RedisClient16load_lua_scripts00Cs9WZ6y3JiwVO_16moderation_tests
FNDA:0,_RNCNCNvMNtCsiekp5I1RHQt_16threadkit_common5redisNtB6_11RedisClient16load_lua_scripts0s0_0Cs9WZ6y3JiwVO_16moderation_tests
FNDA:0,_RNCNCNvMNtCsiekp5I1RHQt_16threadkit_common5redisNtB6_11RedisClient16load_lua_scripts0s1_0Cs9WZ6y3JiwVO_16moderation_tests
FNDA:29,_RNCNCNvMNtCsiekp5I1RHQt_16threadkit_common5redisNtB6_11RedisClient16load_lua_scripts0s2_0Cs9WZ6y3JiwVO_16moderation_tests
FNDA:29,_RNCNCNvMNtCsiekp5I1RHQt_16threadkit_common5redisNtB6_11RedisClient16load_lua_scripts0s3_0Cs9WZ6y3JiwVO_16moderation_tests
FNDA:0,_RNCNCNvMNtCsiekp5I1RHQt_16threadkit_common5redisNtB6_11RedisClient16load_lua_scripts0s4_0Cs9WZ6y3JiwVO_16moderation_tests
FNDA:0,_RNCNCNvMNtCsiekp5I1RHQt_16threadkit_common5redisNtB6_11RedisClient16load_lua_scripts0s5_0Cs9WZ6y3JiwVO_16moderation_tests
FNDA:0,_RNCNCNvMNtCsiekp5I1RHQt_16threadkit_common5redisNtB6_11RedisClient16load_lua_scripts0s6_0Cs9WZ6y3JiwVO_16moderation_tests
FNDA:0,_RNCNCNvMNtCsiekp5I1RHQt_16threadkit_common5redisNtB6_11RedisClient16load_lua_scripts0s_0Cs9WZ6y3JiwVO_16moderation_tests
FNDA:29,_RNCNvMNtCsiekp5I1RHQt_16threadkit_common5redisNtB4_11RedisClient16load_lua_scripts0Cs9WZ6y3JiwVO_16moderation_tests
FNDA:5,_RNCNvMNtCsiekp5I1RHQt_16threadkit_common5redisNtB4_11RedisClient27invalidate_project_id_cache0Cs9WZ6y3JiwVO_16moderation_tests
FNDA:29,_RNCNvMNtCsiekp5I1RHQt_16threadkit_common5redisNtB4_11RedisClient3new0Cs9WZ6y3JiwVO_16moderation_tests
FNDA:4,_RNCNCNvMNtCsiekp5I1RHQt_16threadkit_common5redisNtB6_11RedisClient16load_lua_scripts00CskHzlUDlR1w5_16rate_limit_tests
FNDA:0,_RNCNCNvMNtCsiekp5I1RHQt_16threadkit_common5redisNtB6_11RedisClient16load_lua_scripts0s0_0CskHzlUDlR1w5_16rate_limit_tests
FNDA:0,_RNCNCNvMNtCsiekp5I1RHQt_16threadkit_common5redisNtB6_11RedisClient16load_lua_scripts0s1_0CskHzlUDlR1w5_16rate_limit_tests
FNDA:4,_RNCNCNvMNtCsiekp5I1RHQt_16threadkit_common5redisNtB6_11RedisClient16load_lua_scripts0s2_0CskHzlUDlR1w5_16rate_limit_tests
FNDA:4,_RNCNCNvMNtCsiekp5I1RHQt_16threadkit_common5redisNtB6_11RedisClient16load_lua_scripts0s3_0CskHzlUDlR1w5_16rate_limit_tests
FNDA:0,_RNCNCNvMNtCsiekp5I1RHQt_16threadkit_common5redisNtB6_11RedisClient16load_lua_scripts0s4_0CskHzlUDlR1w5_16rate_limit_tests
FNDA:0,_RNCNCNvMNtCsiekp5I1RHQt_16threadkit_common5redisNtB6_11RedisClient16load_lua_scripts0s5_0CskHzlUDlR1w5_16rate_limit_tests
FNDA:0,_RNCNCNvMNtCsiekp5I1RHQt_16threadkit_common5redisNtB6_11RedisClient16load_lua_scripts0s6_0CskHzlUDlR1w5_16rate_limit_tests
FNDA:0,_RNCNCNvMNtCsiekp5I1RHQt_16threadkit_common5redisNtB6_11RedisClient16load_lua_scripts0s_0CskHzlUDlR1w5_16rate_limit_tests
FNDA:4,_RNCNvMNtCsiekp5I1RHQt_16threadkit_common5redisNtB4_11RedisClient16load_lua_scripts0CskHzlUDlR1w5_16rate_limit_tests
FNDA:4,_RNCNvMNtCsiekp5I1RHQt_16threadkit_common5redisNtB4_11RedisClient3new0CskHzlUDlR1w5_16rate_limit_tests
FNDA:15,_RINvMNtCsiekp5I1RHQt_16threadkit_common5redisNtB3_11RedisClient12hsetall_jsonNtNtB5_5types4UserECshw9S9r8R7ht_18subscription_tests
FNDA:15,_RNCINvMNtCsiekp5I1RHQt_16threadkit_common5redisNtB5_11RedisClient12hsetall_jsonNtNtB7_5types4UserE0Cshw9S9r8R7ht_18subscription_tests
FNDA:210,_RNCNCINvMNtCsiekp5I1RHQt_16threadkit_common5redisNtB7_11RedisClient12hsetall_jsonNtNtB9_5types4UserE00Cshw9S9r8R7ht_18subscription_tests
FNDA:28,_RNCNCNvMNtCsiekp5I1RHQt_16threadkit_common5redisNtB6_11RedisClient16load_lua_scripts00Cshw9S9r8R7ht_18subscription_tests
FNDA:0,_RNCNCNvMNtCsiekp5I1RHQt_16threadkit_common5redisNtB6_11RedisClient16load_lua_scripts0s0_0Cshw9S9r8R7ht_18subscription_tests
FNDA:0,_RNCNCNvMNtCsiekp5I1RHQt_16threadkit_common5redisNtB6_11RedisClient16load_lua_scripts0s1_0Cshw9S9r8R7ht_18subscription_tests
FNDA:28,_RNCNCNvMNtCsiekp5I1RHQt_16threadkit_common5redisNtB6_11RedisClient16load_lua_scripts0s2_0Cshw9S9r8R7ht_18subscription_tests
FNDA:28,_RNCNCNvMNtCsiekp5I1RHQt_16threadkit_common5redisNtB6_11RedisClient16load_lua_scripts0s3_0Cshw9S9r8R7ht_18subscription_tests
FNDA:0,_RNCNCNvMNtCsiekp5I1RHQt_16threadkit_common5redisNtB6_11RedisClient16load_lua_scripts0s4_0Cshw9S9r8R7ht_18subscription_tests
FNDA:0,_RNCNCNvMNtCsiekp5I1RHQt_16threadkit_common5redisNtB6_11RedisClient16load_lua_scripts0s5_0Cshw9S9r8R7ht_18subscription_tests
FNDA:0,_RNCNCNvMNtCsiekp5I1RHQt_16threadkit_common5redisNtB6_11RedisClient16load_lua_scripts0s6_0Cshw9S9r8R7ht_18subscription_tests
FNDA:0,_RNCNCNvMNtCsiekp5I1RHQt_16threadkit_common5redisNtB6_11RedisClient16load_lua_scripts0s_0Cshw9S9r8R7ht_18subscription_tests
FNDA:14,_RNCNvMNtCsiekp5I1RHQt_16threadkit_common5redisNtB4_11RedisClient15set_site_config0Cshw9S9r8R7ht_18subscription_tests
FNDA:28,_RNCNvMNtCsiekp5I1RHQt_16threadkit_common5redisNtB4_11RedisClient16load_lua_scripts0Cshw9S9r8R7ht_18subscription_tests
FNDA:28,_RNCNvMNtCsiekp5I1RHQt_16threadkit_common5redisNtB4_11RedisClient3new0Cshw9S9r8R7ht_18subscription_tests
FNDA:15,_RNCNvMNtCsiekp5I1RHQt_16threadkit_common5redisNtB4_11RedisClient8set_user0Cshw9S9r8R7ht_18subscription_tests
FNDA:0,_RINvMNtCs9dCHYEAjrI1_16threadkit_common5redisNtB3_11RedisClient12hgetall_jsonpEB5_
FNDA:0,_RINvMNtCs9dCHYEAjrI1_16threadkit_common5redisNtB3_11RedisClient12hsetall_jsonpEB5_
FNDA:0,_RNCINvMNtCs9dCHYEAjrI1_16threadkit_common5redisNtB5_11RedisClient12hgetall_jsonpE0B7_
FNDA:0,_RNCINvMNtCs9dCHYEAjrI1_16threadkit_common5redisNtB5_11RedisClient12hsetall_jsonpE0B7_
FNDA:0,_RNCNCINvMNtCs9dCHYEAjrI1_16threadkit_common5redisNtB7_11RedisClient12hgetall_jsonpE00B9_
FNDA:0,_RNCNCINvMNtCs9dCHYEAjrI1_16threadkit_common5redisNtB7_11RedisClient12hsetall_jsonpE00B9_
FNDA:0,_RNCNCNCNvMNtCs9dCHYEAjrI1_16threadkit_common5redisNtB8_11RedisClient15get_users_batch000Ba_
FNDA:0,_RNCNCNCNvMNtCs9dCHYEAjrI1_16threadkit_common5redisNtB8_11RedisClient15get_users_batch0s_00Ba_
FNDA:0,_RNCNCNCNvMNtCs9dCHYEAjrI1_16threadkit_common5redisNtB8_11RedisClient15get_votes_batch000Ba_
FNDA:0,_RNCNCNCNvMNtCs9dCHYEAjrI1_16threadkit_common5redisNtB8_11RedisClient15get_votes_batch0s_00Ba_
FNDA:0,_RNCNCNCNvMNtCs9dCHYEAjrI1_16threadkit_common5redisNtB8_11RedisClient19get_pinned_comments000Ba_
FNDA:0,_RNCNCNvMNtCs9dCHYEAjrI1_16threadkit_common5redisNtB6_11RedisClient10get_admins00B8_
FNDA:0,_RNCNCNvMNtCs9dCHYEAjrI1_16threadkit_common5redisNtB6_11RedisClient11atomic_vote00B8_
FNDA:0,_RNCNCNvMNtCs9dCHYEAjrI1_16threadkit_common5redisNtB6_11RedisClient11atomic_vote0s0_0B8_
FNDA:0,_RNCNCNvMNtCs9dCHYEAjrI1_16threadkit_common5redisNtB6_11RedisClient11atomic_vote0s1_0B8_
FNDA:0,_RNCNCNvMNtCs9dCHYEAjrI1_16threadkit_common5redisNtB6_11RedisClient11atomic_vote0s2_0B8_
FNDA:0,_RNCNCNvMNtCs9dCHYEAjrI1_16threadkit_common5redisNtB6_11RedisClient11atomic_vote0s3_0B8_
FNDA:0,_RNCNCNvMNtCs9dCHYEAjrI1_16threadkit_common5redisNtB6_11RedisClient11atomic_vote0s4_0B8_
FNDA:0,_RNCNCNvMNtCs9dCHYEAjrI1_16threadkit_common5redisNtB6_11RedisClient11atomic_vote0s5_0B8_
FNDA:0,_RNCNCNvMNtCs9dCHYEAjrI1_16threadkit_common5redisNtB6_11RedisClient11atomic_vote0s_0B8_
FNDA:0,_RNCNCNvMNtCs9dCHYEAjrI1_16threadkit_common5redisNtB6_11RedisClient11get_reports00B8_
FNDA:0,_RNCNCNvMNtCs9dCHYEAjrI1_16threadkit_common5redisNtB6_11RedisClient12get_presence00B8_
FNDA:0,_RNCNCNvMNtCs9dCHYEAjrI1_16threadkit_common5redisNtB6_11RedisClient13get_page_tree00B8_
FNDA:0,_RNCNCNvMNtCs9dCHYEAjrI1_16threadkit_common5redisNtB6_11RedisClient14get_blocked_by00B8_
FNDA:0,_RNCNCNvMNtCs9dCHYEAjrI1_16threadkit_common5redisNtB6_11RedisClient14get_moderators00B8_
FNDA:0,_RNCNCNvMNtCs9dCHYEAjrI1_16threadkit_common5redisNtB6_11RedisClient14get_reports_v200B8_
FNDA:0,_RNCNCNvMNtCs9dCHYEAjrI1_16threadkit_common5redisNtB6_11RedisClient14get_user_media00B8_
FNDA:0,_RNCNCNvMNtCs9dCHYEAjrI1_16threadkit_common5redisNtB6_11RedisClient14get_user_votes00B8_
FNDA:0,_RNCNCNvMNtCs9dCHYEAjrI1_16threadkit_common5redisNtB6_11RedisClient15get_modqueue_v200B8_
FNDA:0,_RNCNCNvMNtCs9dCHYEAjrI1_16threadkit_common5redisNtB6_11RedisClient15get_site_config00B8_
FNDA:0,_RNCNCNvMNtCs9dCHYEAjrI1_16threadkit_common5redisNtB6_11RedisClient15get_users_batch00B8_
FNDA:0,_RNCNCNvMNtCs9dCHYEAjrI1_16threadkit_common5redisNtB6_11RedisClient15get_users_batch0s_0B8_
FNDA:0,_RNCNCNvMNtCs9dCHYEAjrI1_16threadkit_common5redisNtB6_11RedisClient15get_votes_batch00B8_
FNDA:0,_RNCNCNvMNtCs9dCHYEAjrI1_16threadkit_common5redisNtB6_11RedisClient15get_votes_batch0s_0B8_
FNDA:0,_RNCNCNvMNtCs9dCHYEAjrI1_16threadkit_common5redisNtB6_11RedisClient16get_locked_pages00B8_
FNDA:0,_RNCNCNvMNtCs9dCHYEAjrI1_16threadkit_common5redisNtB6_11RedisClient16get_session_user00B8_
FNDA:0,_RNCNCNvMNtCs9dCHYEAjrI1_16threadkit_common5redisNtB6_11RedisClient16get_typing_users00B8_
FNDA:0,_RNCNCNvMNtCs9dCHYEAjrI1_16threadkit_common5redisNtB6_11RedisClient16load_lua_scripts00B8_
FNDA:0,_RNCNCNvMNtCs9dCHYEAjrI1_16threadkit_common5redisNtB6_11RedisClient16load_lua_scripts0s0_0B8_
FNDA:0,_RNCNCNvMNtCs9dCHYEAjrI1_16threadkit_common5redisNtB6_11RedisClient16load_lua_scripts0s1_0B8_
FNDA:0,_RNCNCNvMNtCs9dCHYEAjrI1_16threadkit_common5redisNtB6_11RedisClient16load_lua_scripts0s2_0B8_
FNDA:0,_RNCNCNvMNtCs9dCHYEAjrI1_16threadkit_common5redisNtB6_11RedisClient16load_lua_scripts0s3_0B8_
FNDA:0,_RNCNCNvMNtCs9dCHYEAjrI1_16threadkit_common5redisNtB6_11RedisClient16load_lua_scripts0s4_0B8_
FNDA:0,_RNCNCNvMNtCs9dCHYEAjrI1_16threadkit_common5redisNtB6_11RedisClient16load_lua_scripts0s5_0B8_
FNDA:0,_RNCNCNvMNtCs9dCHYEAjrI1_16threadkit_common5redisNtB6_11RedisClient16load_lua_scripts0s6_0B8_
FNDA:0,_RNCNCNvMNtCs9dCHYEAjrI1_16threadkit_common5redisNtB6_11RedisClient16load_lua_scripts0s_0B8_
FNDA:0,_RNCNCNvMNtCs9dCHYEAjrI1_16threadkit_common5redisNtB6_11RedisClient17get_blocked_users00B8_
FNDA:0,_RNCNCNvMNtCs9dCHYEAjrI1_16threadkit_common5redisNtB6_11RedisClient17get_notifications00B8_
FNDA:0,_RNCNCNvMNtCs9dCHYEAjrI1_16threadkit_common5redisNtB6_11RedisClient17get_page_comments00B8_
FNDA:0,_RNCNCNvMNtCs9dCHYEAjrI1_16threadkit_common5redisNtB6_11RedisClient17get_user_by_email00B8_
FNDA:0,_RNCNCNvMNtCs9dCHYEAjrI1_16threadkit_common5redisNtB6_11RedisClient17get_user_by_phone00B8_
FNDA:0,_RNCNCNvMNtCs9dCHYEAjrI1_16threadkit_common5redisNtB6_11RedisClient17get_user_comments00B8_
FNDA:0,_RNCNCNvMNtCs9dCHYEAjrI1_16threadkit_common5redisNtB6_11RedisClient18get_comments_batch00B8_
FNDA:0,_RNCNCNvMNtCs9dCHYEAjrI1_16threadkit_common5redisNtB6_11RedisClient18get_comments_batch0s_0B8_
FNDA:0,_RNCNCNvMNtCs9dCHYEAjrI1_16threadkit_common5redisNtB6_11RedisClient18get_user_by_wallet00B8_
FNDA:0,_RNCNCNvMNtCs9dCHYEAjrI1_16threadkit_common5redisNtB6_11RedisClient19get_comment_replies00B8_
FNDA:0,_RNCNCNvMNtCs9dCHYEAjrI1_16threadkit_common5redisNtB6_11RedisClient19get_pinned_comments00B8_
FNDA:0,_RNCNCNvMNtCs9dCHYEAjrI1_16threadkit_common5redisNtB6_11RedisClient20get_moderation_queue00B8_
FNDA:0,_RNCNCNvMNtCs9dCHYEAjrI1_16threadkit_common5redisNtB6_11RedisClient20get_user_by_provider00B8_
FNDA:0,_RNCNCNvMNtCs9dCHYEAjrI1_16threadkit_common5redisNtB6_11RedisClient20get_user_by_username00B8_
FNDA:0,_RNCNCNvMNtCs9dCHYEAjrI1_16threadkit_common5redisNtB6_11RedisClient20update_site_settings00B8_
FNDA:0,_RNCNCNvMNtCs9dCHYEAjrI1_16threadkit_common5redisNtB6_11RedisClient21get_cached_project_id00B8_
FNDA:0,_RNCNCNvMNtCs9dCHYEAjrI1_16threadkit_common5redisNtB6_11RedisClient21get_verification_code00B8_
FNDA:0,_RNCNCNvMNtCs9dCHYEAjrI1_16threadkit_common5redisNtB6_11RedisClient22get_site_by_project_id00B8_
FNDA:0,_RNCNCNvMNtCs9dCHYEAjrI1_16threadkit_common5redisNtB6_11RedisClient22get_site_by_project_id0s_0B8_
FNDA:0,_RNCNCNvMNtCs9dCHYEAjrI1_16threadkit_common5redisNtB6_11RedisClient22get_site_comment_index00B8_
FNDA:0,_RNCNCNvMNtCs9dCHYEAjrI1_16threadkit_common5redisNtB6_11RedisClient22get_user_comment_index00B8_
FNDA:0,_RNCNCNvMNtCs9dCHYEAjrI1_16threadkit_common5redisNtB6_11RedisClient22get_user_site_comments00B8_
FNDA:0,_RNCNCNvMNtCs9dCHYEAjrI1_16threadkit_common5redisNtB6_11RedisClient8get_vote00B8_
FNDA:0,_RNCNvMNtCs9dCHYEAjrI1_16threadkit_common5redisNtB4_11RedisClient10add_report0B6_
FNDA:0,_RNCNvMNtCs9dCHYEAjrI1_16threadkit_common5redisNtB4_11RedisClient10block_user0B6_
FNDA:0,_RNCNvMNtCs9dCHYEAjrI1_16threadkit_common5redisNtB4_11RedisClient10get_admins0B6_
FNDA:0,_RNCNvMNtCs9dCHYEAjrI1_16threadkit_common5redisNtB4_11RedisClient10set_typing0B6_
FNDA:0,_RNCNvMNtCs9dCHYEAjrI1_16threadkit_common5redisNtB4_11RedisClient11atomic_vote0B6_
FNDA:0,_RNCNvMNtCs9dCHYEAjrI1_16threadkit_common5redisNtB4_11RedisClient11count_sites0B6_
FNDA:0,_RNCNvMNtCs9dCHYEAjrI1_16threadkit_common5redisNtB4_11RedisClient11delete_vote0B6_
FNDA:0,_RNCNvMNtCs9dCHYEAjrI1_16threadkit_common5redisNtB4_11RedisClient11get_comment0B6_
FNDA:0,_RNCNvMNtCs9dCHYEAjrI1_16threadkit_common5redisNtB4_11RedisClient11get_reports0B6_
FNDA:0,_RNCNvMNtCs9dCHYEAjrI1_16threadkit_common5redisNtB4_11RedisClient11pin_comment0B6_
FNDA:0,_RNCNvMNtCs9dCHYEAjrI1_16threadkit_common5redisNtB4_11RedisClient11set_comment0B6_
FNDA:0,_RNCNvMNtCs9dCHYEAjrI1_16threadkit_common5redisNtB4_11RedisClient11unlock_page0B6_
FNDA:0,_RNCNvMNtCs9dCHYEAjrI1_16threadkit_common5redisNtB4_11RedisClient12add_presence0B6_
FNDA:0,_RNCNvMNtCs9dCHYEAjrI1_16threadkit_common5redisNtB4_11RedisClient12get_presence0B6_
FNDA:0,_RNCNvMNtCs9dCHYEAjrI1_16threadkit_common5redisNtB4_11RedisClient12remove_admin0B6_
FNDA:0,_RNCNvMNtCs9dCHYEAjrI1_16threadkit_common5redisNtB4_11RedisClient12unblock_user0B6_
FNDA:0,_RNCNvMNtCs9dCHYEAjrI1_16threadkit_common5redisNtB4_11RedisClient13add_moderator0B6_
FNDA:0,_RNCNvMNtCs9dCHYEAjrI1_16threadkit_common5redisNtB4_11RedisClient13add_report_v20B6_
FNDA:0,_RNCNvMNtCs9dCHYEAjrI1_16threadkit_common5redisNtB4_11RedisClient13add_user_vote0B6_
FNDA:0,_RNCNvMNtCs9dCHYEAjrI1_16threadkit_common5redisNtB4_11RedisClient13get_page_tree0B6_
FNDA:0,_RNCNvMNtCs9dCHYEAjrI1_16threadkit_common5redisNtB4_11RedisClient13get_pageviews0B6_
FNDA:0,_RNCNvMNtCs9dCHYEAjrI1_16threadkit_common5redisNtB4_11RedisClient13get_user_role0B6_
FNDA:0,_RNCNvMNtCs9dCHYEAjrI1_16threadkit_common5redisNtB4_11RedisClient13set_page_tree0B6_
FNDA:0,_RNCNvMNtCs9dCHYEAjrI1_16threadkit_common5redisNtB4_11RedisClient13set_page_vote0B6_
FNDA:0,_RNCNvMNtCs9dCHYEAjrI1_16threadkit_common5redisNtB4_11RedisClient13unpin_comment0B6_
FNDA:0,_RNCNvMNtCs9dCHYEAjrI1_16threadkit_common5redisNtB4_11RedisClient14add_user_media0B6_
FNDA:0,_RNCNvMNtCs9dCHYEAjrI1_16threadkit_common5redisNtB4_11RedisClient14create_session0B6_
FNDA:0,_RNCNvMNtCs9dCHYEAjrI1_16threadkit_common5redisNtB4_11RedisClient14delete_session0B6_
FNDA:0,_RNCNvMNtCs9dCHYEAjrI1_16threadkit_common5redisNtB4_11RedisClient14get_blocked_by0B6_
FNDA:0,_RNCNvMNtCs9dCHYEAjrI1_16threadkit_common5redisNtB4_11RedisClient14get_media_info0B6_
FNDA:0,_RNCNvMNtCs9dCHYEAjrI1_16threadkit_common5redisNtB4_11RedisClient14get_moderators0B6_
FNDA:0,_RNCNvMNtCs9dCHYEAjrI1_16threadkit_common5redisNtB4_11RedisClient14get_page_votes0B6_
FNDA:0,_RNCNvMNtCs9dCHYEAjrI1_16threadkit_common5redisNtB4_11RedisClient14get_reports_v20B6_
FNDA:0,_RNCNvMNtCs9dCHYEAjrI1_16threadkit_common5redisNtB4_11RedisClient14get_user_media0B6_
FNDA:0,_RNCNvMNtCs9dCHYEAjrI1_16threadkit_common5redisNtB4_11RedisClient14get_user_votes0B6_
FNDA:0,_RNCNvMNtCs9dCHYEAjrI1_16threadkit_common5redisNtB4_11RedisClient14get_web3_nonce0B6_
FNDA:0,_RNCNvMNtCs9dCHYEAjrI1_16threadkit_common5redisNtB4_11RedisClient14is_page_locked0B6_
FNDA:0,_RNCNvMNtCs9dCHYEAjrI1_16threadkit_common5redisNtB4_11RedisClient14set_media_info0B6_
FNDA:0,_RNCNvMNtCs9dCHYEAjrI1_16threadkit_common5redisNtB4_11RedisClient14set_web3_nonce0B6_
FNDA:0,_RNCNvMNtCs9dCHYEAjrI1_16threadkit_common5redisNtB4_11RedisClient14shadowban_user0B6_
FNDA:0,_RNCNvMNtCs9dCHYEAjrI1_16threadkit_common5redisNtB4_11RedisClient15add_to_modqueue0B6_
FNDA:0,_RNCNvMNtCs9dCHYEAjrI1_16threadkit_common5redisNtB4_11RedisClient15get_modqueue_v20B6_
FNDA:0,_RNCNvMNtCs9dCHYEAjrI1_16threadkit_common5redisNtB4_11RedisClient15get_site_config0B6_
FNDA:0,_RNCNvMNtCs9dCHYEAjrI1_16threadkit_common5redisNtB4_11RedisClient15get_users_batch0B6_
FNDA:0,_RNCNvMNtCs9dCHYEAjrI1_16threadkit_common5redisNtB4_11RedisClient15get_votes_batch0B6_
FNDA:0,_RNCNvMNtCs9dCHYEAjrI1_16threadkit_common5redisNtB4_11RedisClient15increment_usage0B6_
FNDA:0,_RNCNvMNtCs9dCHYEAjrI1_16threadkit_common5redisNtB4_11RedisClient15is_shadowbanned0B6_
FNDA:0,_RNCNvMNtCs9dCHYEAjrI1_16threadkit_common5redisNtB4_11RedisClient15remove_presence0B6_
FNDA:0,_RNCNvMNtCs9dCHYEAjrI1_16threadkit_common5redisNtB4_11RedisClient15set_site_config0B6_
FNDA:0,_RNCNvMNtCs9dCHYEAjrI1_16threadkit_common5redisNtB4_11RedisClient15set_with_expiry0B6_
FNDA:0,_RNCNvMNtCs9dCHYEAjrI1_16threadkit_common5redisNtB4_11RedisClient16add_notification0B6_
FNDA:0,_RNCNvMNtCs9dCHYEAjrI1_16threadkit_common5redisNtB4_11RedisClient16add_user_comment0B6_
FNDA:0,_RNCNvMNtCs9dCHYEAjrI1_16threadkit_common5redisNtB4_11RedisClient16cache_project_id0B6_
FNDA:0,_RNCNvMNtCs9dCHYEAjrI1_16threadkit_common5redisNtB4_11RedisClient16check_rate_limit0B6_
FNDA:0,_RNCNvMNtCs9dCHYEAjrI1_16threadkit_common5redisNtB4_11RedisClient16delete_page_vote0B6_
FNDA:0,_RNCNvMNtCs9dCHYEAjrI1_16threadkit_common5redisNtB4_11RedisClient16get_locked_pages0B6_
FNDA:0,_RNCNvMNtCs9dCHYEAjrI1_16threadkit_common5redisNtB4_11RedisClient16get_session_user0B6_
FNDA:0,_RNCNvMNtCs9dCHYEAjrI1_16threadkit_common5redisNtB4_11RedisClient16get_typing_users0B6_
FNDA:0,_RNCNvMNtCs9dCHYEAjrI1_16threadkit_common5redisNtB4_11RedisClient16get_unread_count0B6_
FNDA:0,_RNCNvMNtCs9dCHYEAjrI1_16threadkit_common5redisNtB4_11RedisClient16load_lua_scripts0B6_
FNDA:0,_RNCNvMNtCs9dCHYEAjrI1_16threadkit_common5redisNtB4_11RedisClient16remove_moderator0B6_
FNDA:0,_RNCNvMNtCs9dCHYEAjrI1_16threadkit_common5redisNtB4_11RedisClient16remove_user_vote0B6_
FNDA:0,_RNCNvMNtCs9dCHYEAjrI1_16threadkit_common5redisNtB4_11RedisClient17delete_media_info0B6_
FNDA:0,_RNCNvMNtCs9dCHYEAjrI1_16threadkit_common5redisNtB4_11RedisClient17delete_web3_nonce0B6_
FNDA:0,_RNCNvMNtCs9dCHYEAjrI1_16threadkit_common5redisNtB4_11RedisClient17get_blocked_users0B6_
FNDA:0,_RNCNvMNtCs9dCHYEAjrI1_16threadkit_common5redisNtB4_11RedisClient17get_notifications0B6_
FNDA:0,_RNCNvMNtCs9dCHYEAjrI1_16threadkit_common5redisNtB4_11RedisClient17get_page_comments0B6_
FNDA:0,_RNCNvMNtCs9dCHYEAjrI1_16threadkit_common5redisNtB4_11RedisClient17get_user_by_email0B6_
FNDA:0,_RNCNvMNtCs9dCHYEAjrI1_16threadkit_common5redisNtB4_11RedisClient17get_user_by_phone0B6_
FNDA:0,_RNCNvMNtCs9dCHYEAjrI1_16threadkit_common5redisNtB4_11RedisClient17get_user_comments0B6_
FNDA:0,_RNCNvMNtCs9dCHYEAjrI1_16threadkit_common5redisNtB4_11RedisClient17get_user_password0B6_
FNDA:0,_RNCNvMNtCs9dCHYEAjrI1_16threadkit_common5redisNtB4_11RedisClient17is_comment_pinned0B6_
FNDA:0,_RNCNvMNtCs9dCHYEAjrI1_16threadkit_common5redisNtB4_11RedisClient17remove_user_media0B6_
FNDA:0,_RNCNvMNtCs9dCHYEAjrI1_16threadkit_common5redisNtB4_11RedisClient17set_user_password0B6_
FNDA:0,_RNCNvMNtCs9dCHYEAjrI1_16threadkit_common5redisNtB4_11RedisClient17update_user_karma0B6_
FNDA:0,_RNCNvMNtCs9dCHYEAjrI1_16threadkit_common5redisNtB4_11RedisClient18add_unique_visitor0B6_
FNDA:0,_RNCNvMNtCs9dCHYEAjrI1_16threadkit_common5redisNtB4_11RedisClient18block_user_by_user0B6_
FNDA:0,_RNCNvMNtCs9dCHYEAjrI1_16threadkit_common5redisNtB4_11RedisClient18get_comments_batch0B6_
FNDA:0,_RNCNvMNtCs9dCHYEAjrI1_16threadkit_common5redisNtB4_11RedisClient18get_user_by_wallet0B6_
FNDA:0,_RNCNvMNtCs9dCHYEAjrI1_16threadkit_common5redisNtB4_11RedisClient18increment_pageview0B6_
FNDA:0,_RNCNvMNtCs9dCHYEAjrI1_16threadkit_common5redisNtB4_11RedisClient18is_blocked_by_user0B6_
FNDA:0,_RNCNvMNtCs9dCHYEAjrI1_16threadkit_common5redisNtB4_11RedisClient19delete_user_account0B6_
FNDA:0,_RNCNvMNtCs9dCHYEAjrI1_16threadkit_common5redisNtB4_11RedisClient19get_comment_replies0B6_
FNDA:0,_RNCNvMNtCs9dCHYEAjrI1_16threadkit_common5redisNtB4_11RedisClient19get_pinned_comments0B6_
FNDA:0,_RNCNvMNtCs9dCHYEAjrI1_16threadkit_common5redisNtB4_11RedisClient19remove_user_comment0B6_
FNDA:0,_RNCNvMNtCs9dCHYEAjrI1_16threadkit_common5redisNtB4_11RedisClient20get_moderation_queue0B6_
FNDA:0,_RNCNvMNtCs9dCHYEAjrI1_16threadkit_common5redisNtB4_11RedisClient20get_user_by_provider0B6_
FNDA:0,_RNCNvMNtCs9dCHYEAjrI1_16threadkit_common5redisNtB4_11RedisClient20get_user_by_username0B6_
FNDA:0,_RNCNvMNtCs9dCHYEAjrI1_16threadkit_common5redisNtB4_11RedisClient20remove_from_modqueue0B6_
FNDA:0,_RNCNvMNtCs9dCHYEAjrI1_16threadkit_common5redisNtB4_11RedisClient20set_user_email_index0B6_
FNDA:0,_RNCNvMNtCs9dCHYEAjrI1_16threadkit_common5redisNtB4_11RedisClient20set_user_phone_index0B6_
FNDA:0,_RNCNvMNtCs9dCHYEAjrI1_16threadkit_common5redisNtB4_11RedisClient20unblock_user_by_user0B6_
FNDA:0,_RNCNvMNtCs9dCHYEAjrI1_16threadkit_common5redisNtB4_11RedisClient20update_comment_votes0B6_
FNDA:0,_RNCNvMNtCs9dCHYEAjrI1_16threadkit_common5redisNtB4_11RedisClient20update_site_settings0B6_
FNDA:0,_RNCNvMNtCs9dCHYEAjrI1_16threadkit_common5redisNtB4_11RedisClient21get_cached_project_id0B6_
FNDA:0,_RNCNvMNtCs9dCHYEAjrI1_16threadkit_common5redisNtB4_11RedisClient21get_rate_limit_status0B6_
FNDA:0,_RNCNvMNtCs9dCHYEAjrI1_16threadkit_common5redisNtB4_11RedisClient21get_verification_code0B6_
FNDA:0,_RNCNvMNtCs9dCHYEAjrI1_16threadkit_common5redisNtB4_11RedisClient21is_username_available0B6_
FNDA:0,_RNCNvMNtCs9dCHYEAjrI1_16threadkit_common5redisNtB4_11RedisClient21set_user_wallet_index0B6_
FNDA:0,_RNCNvMNtCs9dCHYEAjrI1_16threadkit_common5redisNtB4_11RedisClient21set_verification_code0B6_
FNDA:0,_RNCNvMNtCs9dCHYEAjrI1_16threadkit_common5redisNtB4_11RedisClient22add_site_comment_index0B6_
FNDA:0,_RNCNvMNtCs9dCHYEAjrI1_16threadkit_common5redisNtB4_11RedisClient22add_user_comment_index0B6_
FNDA:0,_RNCNvMNtCs9dCHYEAjrI1_16threadkit_common5redisNtB4_11RedisClient22get_site_by_project_id0B6_
FNDA:0,_RNCNvMNtCs9dCHYEAjrI1_16threadkit_common5redisNtB4_11RedisClient22get_site_comment_index0B6_
FNDA:0,_RNCNvMNtCs9dCHYEAjrI1_16threadkit_common5redisNtB4_11RedisClient22get_user_comment_index0B6_
FNDA:0,_RNCNvMNtCs9dCHYEAjrI1_16threadkit_common5redisNtB4_11RedisClient22get_user_site_comments0B6_
FNDA:0,_RNCNvMNtCs9dCHYEAjrI1_16threadkit_common5redisNtB4_11RedisClient23get_or_create_page_tree0B6_
FNDA:0,_RNCNvMNtCs9dCHYEAjrI1_16threadkit_common5redisNtB4_11RedisClient23mark_notifications_read0B6_
FNDA:0,_RNCNvMNtCs9dCHYEAjrI1_16threadkit_common5redisNtB4_11RedisClient23remove_from_modqueue_v20B6_
FNDA:0,_RNCNvMNtCs9dCHYEAjrI1_16threadkit_common5redisNtB4_11RedisClient23set_user_provider_index0B6_
FNDA:0,_RNCNvMNtCs9dCHYEAjrI1_16threadkit_common5redisNtB4_11RedisClient23set_user_username_index0B6_
FNDA:0,_RNCNvMNtCs9dCHYEAjrI1_16threadkit_common5redisNtB4_11RedisClient24delete_verification_code0B6_
FNDA:0,_RNCNvMNtCs9dCHYEAjrI1_16threadkit_common5redisNtB4_11RedisClient26delete_user_username_index0B6_
FNDA:0,_RNCNvMNtCs9dCHYEAjrI1_16threadkit_common5redisNtB4_11RedisClient26get_site_config_by_api_key0B6_
FNDA:0,_RNCNvMNtCs9dCHYEAjrI1_16threadkit_common5redisNtB4_11RedisClient27add_user_site_comment_index0B6_
FNDA:0,_RNCNvMNtCs9dCHYEAjrI1_16threadkit_common5redisNtB4_11RedisClient27invalidate_project_id_cache0B6_
FNDA:0,_RNCNvMNtCs9dCHYEAjrI1_16threadkit_common5redisNtB4_11RedisClient28decrement_user_comment_count0B6_
FNDA:0,_RNCNvMNtCs9dCHYEAjrI1_16threadkit_common5redisNtB4_11RedisClient28increment_user_comment_count0B6_
FNDA:0,_RNCNvMNtCs9dCHYEAjrI1_16threadkit_common5redisNtB4_11RedisClient29increment_pageview_with_usage0B6_
FNDA:0,_RNCNvMNtCs9dCHYEAjrI1_16threadkit_common5redisNtB4_11RedisClient3new0B6_
FNDA:0,_RNCNvMNtCs9dCHYEAjrI1_16threadkit_common5redisNtB4_11RedisClient4ping0B6_
FNDA:0,_RNCNvMNtCs9dCHYEAjrI1_16threadkit_common5redisNtB4_11RedisClient6exists0B6_
FNDA:0,_RNCNvMNtCs9dCHYEAjrI1_16threadkit_common5redisNtB4_11RedisClient7publish0B6_
FNDA:0,_RNCNvMNtCs9dCHYEAjrI1_16threadkit_common5redisNtB4_11RedisClient8get_user0B6_
FNDA:0,_RNCNvMNtCs9dCHYEAjrI1_16threadkit_common5redisNtB4_11RedisClient8get_vote0B6_
FNDA:0,_RNCNvMNtCs9dCHYEAjrI1_16threadkit_common5redisNtB4_11RedisClient8set_user0B6_
FNDA:0,_RNCNvMNtCs9dCHYEAjrI1_16threadkit_common5redisNtB4_11RedisClient8set_vote0B6_
FNDA:0,_RNCNvMNtCs9dCHYEAjrI1_16threadkit_common5redisNtB4_11RedisClient9add_admin0B6_
FNDA:0,_RNCNvMNtCs9dCHYEAjrI1_16threadkit_common5redisNtB4_11RedisClient9lock_page0B6_
FNDA:0,_RNvMNtCs9dCHYEAjrI1_16threadkit_common5redisNtB2_11RedisClient10add_report
FNDA:0,_RNvMNtCs9dCHYEAjrI1_16threadkit_common5redisNtB2_11RedisClient10block_user
FNDA:0,_RNvMNtCs9dCHYEAjrI1_16threadkit_common5redisNtB2_11RedisClient10get_admins
FNDA:0,_RNvMNtCs9dCHYEAjrI1_16threadkit_common5redisNtB2_11RedisClient10set_typing
FNDA:0,_RNvMNtCs9dCHYEAjrI1_16threadkit_common5redisNtB2_11RedisClient11atomic_vote
FNDA:0,_RNvMNtCs9dCHYEAjrI1_16threadkit_common5redisNtB2_11RedisClient11count_sites
FNDA:0,_RNvMNtCs9dCHYEAjrI1_16threadkit_common5redisNtB2_11RedisClient11delete_vote
FNDA:0,_RNvMNtCs9dCHYEAjrI1_16threadkit_common5redisNtB2_11RedisClient11get_comment
FNDA:0,_RNvMNtCs9dCHYEAjrI1_16threadkit_common5redisNtB2_11RedisClient11get_reports
FNDA:0,_RNvMNtCs9dCHYEAjrI1_16threadkit_common5redisNtB2_11RedisClient11pin_comment
FNDA:0,_RNvMNtCs9dCHYEAjrI1_16threadkit_common5redisNtB2_11RedisClient11set_comment
FNDA:0,_RNvMNtCs9dCHYEAjrI1_16threadkit_common5redisNtB2_11RedisClient11unlock_page
FNDA:0,_RNvMNtCs9dCHYEAjrI1_16threadkit_common5redisNtB2_11RedisClient12add_presence
FNDA:0,_RNvMNtCs9dCHYEAjrI1_16threadkit_common5redisNtB2_11RedisClient12get_presence
FNDA:0,_RNvMNtCs9dCHYEAjrI1_16threadkit_common5redisNtB2_11RedisClient12remove_admin
FNDA:0,_RNvMNtCs9dCHYEAjrI1_16threadkit_common5redisNtB2_11RedisClient12unblock_user
FNDA:0,_RNvMNtCs9dCHYEAjrI1_16threadkit_common5redisNtB2_11RedisClient13add_moderator
FNDA:0,_RNvMNtCs9dCHYEAjrI1_16threadkit_common5redisNtB2_11RedisClient13add_report_v2
FNDA:0,_RNvMNtCs9dCHYEAjrI1_16threadkit_common5redisNtB2_11RedisClient13add_user_vote
FNDA:0,_RNvMNtCs9dCHYEAjrI1_16threadkit_common5redisNtB2_11RedisClient13get_page_tree
FNDA:0,_RNvMNtCs9dCHYEAjrI1_16threadkit_common5redisNtB2_11RedisClient13get_pageviews
FNDA:0,_RNvMNtCs9dCHYEAjrI1_16threadkit_common5redisNtB2_11RedisClient13get_user_role
FNDA:0,_RNvMNtCs9dCHYEAjrI1_16threadkit_common5redisNtB2_11RedisClient13set_page_tree
FNDA:0,_RNvMNtCs9dCHYEAjrI1_16threadkit_common5redisNtB2_11RedisClient13set_page_vote
FNDA:0,_RNvMNtCs9dCHYEAjrI1_16threadkit_common5redisNtB2_11RedisClient13unpin_comment
FNDA:0,_RNvMNtCs9dCHYEAjrI1_16threadkit_common5redisNtB2_11RedisClient14add_user_media
FNDA:0,_RNvMNtCs9dCHYEAjrI1_16threadkit_common5redisNtB2_11RedisClient14create_session
FNDA:0,_RNvMNtCs9dCHYEAjrI1_16threadkit_common5redisNtB2_11RedisClient14delete_session
FNDA:0,_RNvMNtCs9dCHYEAjrI1_16threadkit_common5redisNtB2_11RedisClient14get_blocked_by
FNDA:0,_RNvMNtCs9dCHYEAjrI1_16threadkit_common5redisNtB2_11RedisClient14get_media_info
FNDA:0,_RNvMNtCs9dCHYEAjrI1_16threadkit_common5redisNtB2_11RedisClient14get_moderators
FNDA:0,_RNvMNtCs9dCHYEAjrI1_16threadkit_common5redisNtB2_11RedisClient14get_page_votes
FNDA:0,_RNvMNtCs9dCHYEAjrI1_16threadkit_common5redisNtB2_11RedisClient14get_reports_v2
FNDA:0,_RNvMNtCs9dCHYEAjrI1_16threadkit_common5redisNtB2_11RedisClient14get_user_media
FNDA:0,_RNvMNtCs9dCHYEAjrI1_16threadkit_common5redisNtB2_11RedisClient14get_user_votes
FNDA:0,_RNvMNtCs9dCHYEAjrI1_16threadkit_common5redisNtB2_11RedisClient14get_web3_nonce
FNDA:0,_RNvMNtCs9dCHYEAjrI1_16threadkit_common5redisNtB2_11RedisClient14is_page_locked
FNDA:0,_RNvMNtCs9dCHYEAjrI1_16threadkit_common5redisNtB2_11RedisClient14set_media_info
FNDA:0,_RNvMNtCs9dCHYEAjrI1_16threadkit_common5redisNtB2_11RedisClient14set_web3_nonce
FNDA:0,_RNvMNtCs9dCHYEAjrI1_16threadkit_common5redisNtB2_11RedisClient14shadowban_user
FNDA:0,_RNvMNtCs9dCHYEAjrI1_16threadkit_common5redisNtB2_11RedisClient15add_to_modqueue
FNDA:0,_RNvMNtCs9dCHYEAjrI1_16threadkit_common5redisNtB2_11RedisClient15get_modqueue_v2
FNDA:0,_RNvMNtCs9dCHYEAjrI1_16threadkit_common5redisNtB2_11RedisClient15get_site_config
FNDA:0,_RNvMNtCs9dCHYEAjrI1_16threadkit_common5redisNtB2_11RedisClient15get_users_batch
FNDA:0,_RNvMNtCs9dCHYEAjrI1_16threadkit_common5redisNtB2_11RedisClient15get_votes_batch
FNDA:0,_RNvMNtCs9dCHYEAjrI1_16threadkit_common5redisNtB2_11RedisClient15increment_usage
FNDA:0,_RNvMNtCs9dCHYEAjrI1_16threadkit_common5redisNtB2_11RedisClient15is_shadowbanned
FNDA:0,_RNvMNtCs9dCHYEAjrI1_16threadkit_common5redisNtB2_11RedisClient15remove_presence
FNDA:0,_RNvMNtCs9dCHYEAjrI1_16threadkit_common5redisNtB2_11RedisClient15set_site_config
FNDA:0,_RNvMNtCs9dCHYEAjrI1_16threadkit_common5redisNtB2_11RedisClient15set_with_expiry
FNDA:0,_RNvMNtCs9dCHYEAjrI1_16threadkit_common5redisNtB2_11RedisClient16add_notification
FNDA:0,_RNvMNtCs9dCHYEAjrI1_16threadkit_common5redisNtB2_11RedisClient16add_user_comment
FNDA:0,_RNvMNtCs9dCHYEAjrI1_16threadkit_common5redisNtB2_11RedisClient16cache_project_id
FNDA:0,_RNvMNtCs9dCHYEAjrI1_16threadkit_common5redisNtB2_11RedisClient16check_rate_limit
FNDA:0,_RNvMNtCs9dCHYEAjrI1_16threadkit_common5redisNtB2_11RedisClient16delete_page_vote
FNDA:0,_RNvMNtCs9dCHYEAjrI1_16threadkit_common5redisNtB2_11RedisClient16generate_page_id
FNDA:0,_RNvMNtCs9dCHYEAjrI1_16threadkit_common5redisNtB2_11RedisClient16get_locked_pages
FNDA:0,_RNvMNtCs9dCHYEAjrI1_16threadkit_common5redisNtB2_11RedisClient16get_session_user
FNDA:0,_RNvMNtCs9dCHYEAjrI1_16threadkit_common5redisNtB2_11RedisClient16get_typing_users
FNDA:0,_RNvMNtCs9dCHYEAjrI1_16threadkit_common5redisNtB2_11RedisClient16get_unread_count
FNDA:0,_RNvMNtCs9dCHYEAjrI1_16threadkit_common5redisNtB2_11RedisClient16load_lua_scripts
FNDA:0,_RNvMNtCs9dCHYEAjrI1_16threadkit_common5redisNtB2_11RedisClient16remove_moderator
FNDA:0,_RNvMNtCs9dCHYEAjrI1_16threadkit_common5redisNtB2_11RedisClient16remove_user_vote
FNDA:0,_RNvMNtCs9dCHYEAjrI1_16threadkit_common5redisNtB2_11RedisClient17delete_media_info
FNDA:0,_RNvMNtCs9dCHYEAjrI1_16threadkit_common5redisNtB2_11RedisClient17delete_web3_nonce
FNDA:0,_RNvMNtCs9dCHYEAjrI1_16threadkit_common5redisNtB2_11RedisClient17get_blocked_users
FNDA:0,_RNvMNtCs9dCHYEAjrI1_16threadkit_common5redisNtB2_11RedisClient17get_notifications
FNDA:0,_RNvMNtCs9dCHYEAjrI1_16threadkit_common5redisNtB2_11RedisClient17get_page_comments
FNDA:0,_RNvMNtCs9dCHYEAjrI1_16threadkit_common5redisNtB2_11RedisClient17get_user_by_email
FNDA:0,_RNvMNtCs9dCHYEAjrI1_16threadkit_common5redisNtB2_11RedisClient17get_user_by_phone
FNDA:0,_RNvMNtCs9dCHYEAjrI1_16threadkit_common5redisNtB2_11RedisClient17get_user_comments
FNDA:0,_RNvMNtCs9dCHYEAjrI1_16threadkit_common5redisNtB2_11RedisClient17get_user_password
FNDA:0,_RNvMNtCs9dCHYEAjrI1_16threadkit_common5redisNtB2_11RedisClient17is_comment_pinned
FNDA:0,_RNvMNtCs9dCHYEAjrI1_16threadkit_common5redisNtB2_11RedisClient17remove_user_media
FNDA:0,_RNvMNtCs9dCHYEAjrI1_16threadkit_common5redisNtB2_11RedisClient17set_user_password
FNDA:0,_RNvMNtCs9dCHYEAjrI1_16threadkit_common5redisNtB2_11RedisClient17update_user_karma
FNDA:0,_RNvMNtCs9dCHYEAjrI1_16threadkit_common5redisNtB2_11RedisClient18add_unique_visitor
FNDA:0,_RNvMNtCs9dCHYEAjrI1_16threadkit_common5redisNtB2_11RedisClient18block_user_by_user
FNDA:0,_RNvMNtCs9dCHYEAjrI1_16threadkit_common5redisNtB2_11RedisClient18get_comments_batch
FNDA:0,_RNvMNtCs9dCHYEAjrI1_16threadkit_common5redisNtB2_11RedisClient18get_user_by_wallet
FNDA:0,_RNvMNtCs9dCHYEAjrI1_16threadkit_common5redisNtB2_11RedisClient18increment_pageview
FNDA:0,_RNvMNtCs9dCHYEAjrI1_16threadkit_common5redisNtB2_11RedisClient18is_blocked_by_user
FNDA:0,_RNvMNtCs9dCHYEAjrI1_16threadkit_common5redisNtB2_11RedisClient19delete_user_account
FNDA:0,_RNvMNtCs9dCHYEAjrI1_16threadkit_common5redisNtB2_11RedisClient19get_comment_replies
FNDA:0,_RNvMNtCs9dCHYEAjrI1_16threadkit_common5redisNtB2_11RedisClient19get_pinned_comments
FNDA:0,_RNvMNtCs9dCHYEAjrI1_16threadkit_common5redisNtB2_11RedisClient19remove_user_comment
FNDA:0,_RNvMNtCs9dCHYEAjrI1_16threadkit_common5redisNtB2_11RedisClient20get_moderation_queue
FNDA:0,_RNvMNtCs9dCHYEAjrI1_16threadkit_common5redisNtB2_11RedisClient20get_user_by_provider
FNDA:0,_RNvMNtCs9dCHYEAjrI1_16threadkit_common5redisNtB2_11RedisClient20get_user_by_username
FNDA:0,_RNvMNtCs9dCHYEAjrI1_16threadkit_common5redisNtB2_11RedisClient20remove_from_modqueue
FNDA:0,_RNvMNtCs9dCHYEAjrI1_16threadkit_common5redisNtB2_11RedisClient20set_user_email_index
FNDA:0,_RNvMNtCs9dCHYEAjrI1_16threadkit_common5redisNtB2_11RedisClient20set_user_phone_index
FNDA:0,_RNvMNtCs9dCHYEAjrI1_16threadkit_common5redisNtB2_11RedisClient20unblock_user_by_user
FNDA:0,_RNvMNtCs9dCHYEAjrI1_16threadkit_common5redisNtB2_11RedisClient20update_comment_votes
FNDA:0,_RNvMNtCs9dCHYEAjrI1_16threadkit_common5redisNtB2_11RedisClient20update_site_settings
FNDA:0,_RNvMNtCs9dCHYEAjrI1_16threadkit_common5redisNtB2_11RedisClient21get_cached_project_id
FNDA:0,_RNvMNtCs9dCHYEAjrI1_16threadkit_common5redisNtB2_11RedisClient21get_rate_limit_status
FNDA:0,_RNvMNtCs9dCHYEAjrI1_16threadkit_common5redisNtB2_11RedisClient21get_verification_code
FNDA:0,_RNvMNtCs9dCHYEAjrI1_16threadkit_common5redisNtB2_11RedisClient21is_username_available
FNDA:0,_RNvMNtCs9dCHYEAjrI1_16threadkit_common5redisNtB2_11RedisClient21set_user_wallet_index
FNDA:0,_RNvMNtCs9dCHYEAjrI1_16threadkit_common5redisNtB2_11RedisClient21set_verification_code
FNDA:0,_RNvMNtCs9dCHYEAjrI1_16threadkit_common5redisNtB2_11RedisClient22add_site_comment_index
FNDA:0,_RNvMNtCs9dCHYEAjrI1_16threadkit_common5redisNtB2_11RedisClient22add_user_comment_index
FNDA:0,_RNvMNtCs9dCHYEAjrI1_16threadkit_common5redisNtB2_11RedisClient22get_site_by_project_id
FNDA:0,_RNvMNtCs9dCHYEAjrI1_16threadkit_common5redisNtB2_11RedisClient22get_site_comment_index
FNDA:0,_RNvMNtCs9dCHYEAjrI1_16threadkit_common5redisNtB2_11RedisClient22get_user_comment_index
FNDA:0,_RNvMNtCs9dCHYEAjrI1_16threadkit_common5redisNtB2_11RedisClient22get_user_site_comments
FNDA:0,_RNvMNtCs9dCHYEAjrI1_16threadkit_common5redisNtB2_11RedisClient23get_or_create_page_tree
FNDA:0,_RNvMNtCs9dCHYEAjrI1_16threadkit_common5redisNtB2_11RedisClient23mark_notifications_read
FNDA:0,_RNvMNtCs9dCHYEAjrI1_16threadkit_common5redisNtB2_11RedisClient23remove_from_modqueue_v2
FNDA:0,_RNvMNtCs9dCHYEAjrI1_16threadkit_common5redisNtB2_11RedisClient23set_user_provider_index
FNDA:0,_RNvMNtCs9dCHYEAjrI1_16threadkit_common5redisNtB2_11RedisClient23set_user_username_index
FNDA:0,_RNvMNtCs9dCHYEAjrI1_16threadkit_common5redisNtB2_11RedisClient24delete_verification_code
FNDA:0,_RNvMNtCs9dCHYEAjrI1_16threadkit_common5redisNtB2_11RedisClient26delete_user_username_index
FNDA:0,_RNvMNtCs9dCHYEAjrI1_16threadkit_common5redisNtB2_11RedisClient26get_site_config_by_api_key
FNDA:0,_RNvMNtCs9dCHYEAjrI1_16threadkit_common5redisNtB2_11RedisClient27add_user_site_comment_index
FNDA:0,_RNvMNtCs9dCHYEAjrI1_16threadkit_common5redisNtB2_11RedisClient27invalidate_project_id_cache
FNDA:0,_RNvMNtCs9dCHYEAjrI1_16threadkit_common5redisNtB2_11RedisClient28decrement_user_comment_count
FNDA:0,_RNvMNtCs9dCHYEAjrI1_16threadkit_common5redisNtB2_11RedisClient28increment_user_comment_count
FNDA:0,_RNvMNtCs9dCHYEAjrI1_16threadkit_common5redisNtB2_11RedisClient29increment_pageview_with_usage
FNDA:0,_RNvMNtCs9dCHYEAjrI1_16threadkit_common5redisNtB2_11RedisClient3new
FNDA:0,_RNvMNtCs9dCHYEAjrI1_16threadkit_common5redisNtB2_11RedisClient4ping
FNDA:0,_RNvMNtCs9dCHYEAjrI1_16threadkit_common5redisNtB2_11RedisClient6exists
FNDA:0,_RNvMNtCs9dCHYEAjrI1_16threadkit_common5redisNtB2_11RedisClient7publish
FNDA:0,_RNvMNtCs9dCHYEAjrI1_16threadkit_common5redisNtB2_11RedisClient8get_user
FNDA:0,_RNvMNtCs9dCHYEAjrI1_16threadkit_common5redisNtB2_11RedisClient8get_vote
FNDA:0,_RNvMNtCs9dCHYEAjrI1_16threadkit_common5redisNtB2_11RedisClient8set_user
FNDA:0,_RNvMNtCs9dCHYEAjrI1_16threadkit_common5redisNtB2_11RedisClient8set_vote
FNDA:0,_RNvMNtCs9dCHYEAjrI1_16threadkit_common5redisNtB2_11RedisClient9add_admin
FNDA:0,_RNvMNtCs9dCHYEAjrI1_16threadkit_common5redisNtB2_11RedisClient9lock_page
FNDA:0,_RNCNCNvMNtCsiekp5I1RHQt_16threadkit_common5redisNtB6_11RedisClient16load_lua_scripts00Cs9KKNa6Ped6o_14threadkit_http
FNDA:0,_RNCNCNvMNtCsiekp5I1RHQt_16threadkit_common5redisNtB6_11RedisClient16load_lua_scripts0s0_0Cs9KKNa6Ped6o_14threadkit_http
FNDA:0,_RNCNCNvMNtCsiekp5I1RHQt_16threadkit_common5redisNtB6_11RedisClient16load_lua_scripts0s1_0Cs9KKNa6Ped6o_14threadkit_http
FNDA:0,_RNCNCNvMNtCsiekp5I1RHQt_16threadkit_common5redisNtB6_11RedisClient16load_lua_scripts0s2_0Cs9KKNa6Ped6o_14threadkit_http
FNDA:0,_RNCNCNvMNtCsiekp5I1RHQt_16threadkit_common5redisNtB6_11RedisClient16load_lua_scripts0s3_0Cs9KKNa6Ped6o_14threadkit_http
FNDA:0,_RNCNCNvMNtCsiekp5I1RHQt_16threadkit_common5redisNtB6_11RedisClient16load_lua_scripts0s4_0Cs9KKNa6Ped6o_14threadkit_http
FNDA:0,_RNCNCNvMNtCsiekp5I1RHQt_16threadkit_common5redisNtB6_11RedisClient16load_lua_scripts0s5_0Cs9KKNa6Ped6o_14threadkit_http
FNDA:0,_RNCNCNvMNtCsiekp5I1RHQt_16threadkit_common5redisNtB6_11RedisClient16load_lua_scripts0s6_0Cs9KKNa6Ped6o_14threadkit_http
FNDA:0,_RNCNCNvMNtCsiekp5I1RHQt_16threadkit_common5redisNtB6_11RedisClient16load_lua_scripts0s_0Cs9KKNa6Ped6o_14threadkit_http
FNDA:0,_RNCNvMNtCsiekp5I1RHQt_16threadkit_common5redisNtB4_11RedisClient16load_lua_scripts0Cs9KKNa6Ped6o_14threadkit_http
FNDA:0,_RNCNvMNtCsiekp5I1RHQt_16threadkit_common5redisNtB4_11RedisClient3new0Cs9KKNa6Ped6o_14threadkit_http
FNDA:0,_RNCNvMNtCsiekp5I1RHQt_16threadkit_common5redisNtB4_11RedisClient4ping0Cs9KKNa6Ped6o_14threadkit_http
FNDA:0,_RINvMNtCsiekp5I1RHQt_16threadkit_common5redisNtB3_11RedisClient12hgetall_jsonNtNtB5_5types4UserECskwAV7ptXVKm_14threadkit_http
FNDA:0,_RINvMNtCsiekp5I1RHQt_16threadkit_common5redisNtB3_11RedisClient12hgetall_jsonNtNtB5_5types7CommentECskwAV7ptXVKm_14threadkit_http
FNDA:0,_RINvMNtCsiekp5I1RHQt_16threadkit_common5redisNtB3_11RedisClient12hgetall_jsonNtNtB5_5types9MediaInfoECskwAV7ptXVKm_14threadkit_http
FNDA:0,_RINvMNtCsiekp5I1RHQt_16threadkit_common5redisNtB3_11RedisClient12hsetall_jsonNtNtB5_5types4UserECskwAV7ptXVKm_14threadkit_http
FNDA:0,_RINvMNtCsiekp5I1RHQt_16threadkit_common5redisNtB3_11RedisClient12hsetall_jsonNtNtB5_5types9MediaInfoECskwAV7ptXVKm_14threadkit_http
FNDA:0,_RNCINvMNtCsiekp5I1RHQt_16threadkit_common5redisNtB5_11RedisClient12hgetall_jsonNtNtB7_5types4UserE0CskwAV7ptXVKm_14threadkit_http
FNDA:0,_RNCINvMNtCsiekp5I1RHQt_16threadkit_common5redisNtB5_11RedisClient12hgetall_jsonNtNtB7_5types7CommentE0CskwAV7ptXVKm_14threadkit_http
FNDA:0,_RNCINvMNtCsiekp5I1RHQt_16threadkit_common5redisNtB5_11RedisClient12hgetall_jsonNtNtB7_5types9MediaInfoE0CskwAV7ptXVKm_14threadkit_http
FNDA:0,_RNCINvMNtCsiekp5I1RHQt_16threadkit_common5redisNtB5_11RedisClient12hsetall_jsonNtNtB7_5types4UserE0CskwAV7ptXVKm_14threadkit_http
FNDA:0,_RNCINvMNtCsiekp5I1RHQt_16threadkit_common5redisNtB5_11RedisClient12hsetall_jsonNtNtB7_5types9MediaInfoE0CskwAV7ptXVKm_14threadkit_http
FNDA:0,_RNCNCINvMNtCsiekp5I1RHQt_16threadkit_common5redisNtB7_11RedisClient12hgetall_jsonNtNtB9_5types4UserE00CskwAV7ptXVKm_14threadkit_http
FNDA:0,_RNCNCINvMNtCsiekp5I1RHQt_16threadkit_common5redisNtB7_11RedisClient12hgetall_jsonNtNtB9_5types7CommentE00CskwAV7ptXVKm_14threadkit_http
FNDA:0,_RNCNCINvMNtCsiekp5I1RHQt_16threadkit_common5redisNtB7_11RedisClient12hgetall_jsonNtNtB9_5types9MediaInfoE00CskwAV7ptXVKm_14threadkit_http
FNDA:0,_RNCNCINvMNtCsiekp5I1RHQt_16threadkit_common5redisNtB7_11RedisClient12hsetall_jsonNtNtB9_5types4UserE00CskwAV7ptXVKm_14threadkit_http
FNDA:0,_RNCNCINvMNtCsiekp5I1RHQt_16threadkit_common5redisNtB7_11RedisClient12hsetall_jsonNtNtB9_5types9MediaInfoE00CskwAV7ptXVKm_14threadkit_http
FNDA:0,_RNCNCNCNvMNtCsiekp5I1RHQt_16threadkit_common5redisNtB8_11RedisClient19get_pinned_comments000CskwAV7ptXVKm_14threadkit_http
FNDA:0,_RNCNCNvMNtCsiekp5I1RHQt_16threadkit_common5redisNtB6_11RedisClient10get_admins00CskwAV7ptXVKm_14threadkit_http
FNDA:0,_RNCNCNvMNtCsiekp5I1RHQt_16threadkit_common5redisNtB6_11RedisClient11atomic_vote00CskwAV7ptXVKm_14threadkit_http
FNDA:0,_RNCNCNvMNtCsiekp5I1RHQt_16threadkit_common5redisNtB6_11RedisClient11atomic_vote0s0_0CskwAV7ptXVKm_14threadkit_http
FNDA:0,_RNCNCNvMNtCsiekp5I1RHQt_16threadkit_common5redisNtB6_11RedisClient11atomic_vote0s1_0CskwAV7ptXVKm_14threadkit_http
FNDA:0,_RNCNCNvMNtCsiekp5I1RHQt_16threadkit_common5redisNtB6_11RedisClient11atomic_vote0s2_0CskwAV7ptXVKm_14threadkit_http
FNDA:0,_RNCNCNvMNtCsiekp5I1RHQt_16threadkit_common5redisNtB6_11RedisClient11atomic_vote0s3_0CskwAV7ptXVKm_14threadkit_http
FNDA:0,_RNCNCNvMNtCsiekp5I1RHQt_16threadkit_common5redisNtB6_11RedisClient11atomic_vote0s4_0CskwAV7ptXVKm_14threadkit_http
FNDA:0,_RNCNCNvMNtCsiekp5I1RHQt_16threadkit_common5redisNtB6_11RedisClient11atomic_vote0s5_0CskwAV7ptXVKm_14threadkit_http
FNDA:0,_RNCNCNvMNtCsiekp5I1RHQt_16threadkit_common5redisNtB6_11RedisClient11atomic_vote0s_0CskwAV7ptXVKm_14threadkit_http
FNDA:0,_RNCNCNvMNtCsiekp5I1RHQt_16threadkit_common5redisNtB6_11RedisClient13get_page_tree00CskwAV7ptXVKm_14threadkit_http
FNDA:0,_RNCNCNvMNtCsiekp5I1RHQt_16threadkit_common5redisNtB6_11RedisClient14get_blocked_by00CskwAV7ptXVKm_14threadkit_http
FNDA:0,_RNCNCNvMNtCsiekp5I1RHQt_16threadkit_common5redisNtB6_11RedisClient14get_moderators00CskwAV7ptXVKm_14threadkit_http
FNDA:0,_RNCNCNvMNtCsiekp5I1RHQt_16threadkit_common5redisNtB6_11RedisClient14get_reports_v200CskwAV7ptXVKm_14threadkit_http
FNDA:0,_RNCNCNvMNtCsiekp5I1RHQt_16threadkit_common5redisNtB6_11RedisClient14get_user_votes00CskwAV7ptXVKm_14threadkit_http
FNDA:0,_RNCNCNvMNtCsiekp5I1RHQt_16threadkit_common5redisNtB6_11RedisClient15get_modqueue_v200CskwAV7ptXVKm_14threadkit_http
FNDA:0,_RNCNCNvMNtCsiekp5I1RHQt_16threadkit_common5redisNtB6_11RedisClient15get_site_config00CskwAV7ptXVKm_14threadkit_http
FNDA:0,_RNCNCNvMNtCsiekp5I1RHQt_16threadkit_common5redisNtB6_11RedisClient16get_session_user00CskwAV7ptXVKm_14threadkit_http
FNDA:0,_RNCNCNvMNtCsiekp5I1RHQt_16threadkit_common5redisNtB6_11RedisClient17get_blocked_users00CskwAV7ptXVKm_14threadkit_http
FNDA:0,_RNCNCNvMNtCsiekp5I1RHQt_16threadkit_common5redisNtB6_11RedisClient17get_notifications00CskwAV7ptXVKm_14threadkit_http
FNDA:0,_RNCNCNvMNtCsiekp5I1RHQt_16threadkit_common5redisNtB6_11RedisClient17get_user_by_email00CskwAV7ptXVKm_14threadkit_http
FNDA:0,_RNCNCNvMNtCsiekp5I1RHQt_16threadkit_common5redisNtB6_11RedisClient17get_user_comments00CskwAV7ptXVKm_14threadkit_http
FNDA:0,_RNCNCNvMNtCsiekp5I1RHQt_16threadkit_common5redisNtB6_11RedisClient18get_user_by_wallet00CskwAV7ptXVKm_14threadkit_http
FNDA:0,_RNCNCNvMNtCsiekp5I1RHQt_16threadkit_common5redisNtB6_11RedisClient19get_pinned_comments00CskwAV7ptXVKm_14threadkit_http
FNDA:0,_RNCNCNvMNtCsiekp5I1RHQt_16threadkit_common5redisNtB6_11RedisClient20get_user_by_provider00CskwAV7ptXVKm_14threadkit_http
FNDA:0,_RNCNCNvMNtCsiekp5I1RHQt_16threadkit_common5redisNtB6_11RedisClient20get_user_by_username00CskwAV7ptXVKm_14threadkit_http
FNDA:0,_RNCNCNvMNtCsiekp5I1RHQt_16threadkit_common5redisNtB6_11RedisClient20update_site_settings00CskwAV7ptXVKm_14threadkit_http
FNDA:0,_RNCNCNvMNtCsiekp5I1RHQt_16threadkit_common5redisNtB6_11RedisClient21get_cached_project_id00CskwAV7ptXVKm_14threadkit_http
FNDA:0,_RNCNCNvMNtCsiekp5I1RHQt_16threadkit_common5redisNtB6_11RedisClient21get_verification_code00CskwAV7ptXVKm_14threadkit_http
FNDA:0,_RNCNCNvMNtCsiekp5I1RHQt_16threadkit_common5redisNtB6_11RedisClient22get_site_by_project_id00CskwAV7ptXVKm_14threadkit_http
FNDA:0,_RNCNCNvMNtCsiekp5I1RHQt_16threadkit_common5redisNtB6_11RedisClient22get_site_by_project_id0s_0CskwAV7ptXVKm_14threadkit_http
FNDA:0,_RNCNCNvMNtCsiekp5I1RHQt_16threadkit_common5redisNtB6_11RedisClient22get_site_comment_index00CskwAV7ptXVKm_14threadkit_http
FNDA:0,_RNCNCNvMNtCsiekp5I1RHQt_16threadkit_common5redisNtB6_11RedisClient22get_user_site_comments00CskwAV7ptXVKm_14threadkit_http
FNDA:0,_RNCNCNvMNtCsiekp5I1RHQt_16threadkit_common5redisNtB6_11RedisClient8get_vote00CskwAV7ptXVKm_14threadkit_http
FNDA:0,_RNCNvMNtCsiekp5I1RHQt_16threadkit_common5redisNtB4_11RedisClient10block_user0CskwAV7ptXVKm_14threadkit_http
FNDA:0,_RNCNvMNtCsiekp5I1RHQt_16threadkit_common5redisNtB4_11RedisClient10get_admins0CskwAV7ptXVKm_14threadkit_http
FNDA:0,_RNCNvMNtCsiekp5I1RHQt_16threadkit_common5redisNtB4_11RedisClient11atomic_vote0CskwAV7ptXVKm_14threadkit_http
FNDA:0,_RNCNvMNtCsiekp5I1RHQt_16threadkit_common5redisNtB4_11RedisClient11get_comment0CskwAV7ptXVKm_14threadkit_http
FNDA:0,_RNCNvMNtCsiekp5I1RHQt_16threadkit_common5redisNtB4_11RedisClient11pin_comment0CskwAV7ptXVKm_14threadkit_http
FNDA:0,_RNCNvMNtCsiekp5I1RHQt_16threadkit_common5redisNtB4_11RedisClient11unlock_page0CskwAV7ptXVKm_14threadkit_http
FNDA:0,_RNCNvMNtCsiekp5I1RHQt_16threadkit_common5redisNtB4_11RedisClient12remove_admin0CskwAV7ptXVKm_14threadkit_http
FNDA:0,_RNCNvMNtCsiekp5I1RHQt_16threadkit_common5redisNtB4_11RedisClient12unblock_user0CskwAV7ptXVKm_14threadkit_http
FNDA:0,_RNCNvMNtCsiekp5I1RHQt_16threadkit_common5redisNtB4_11RedisClient13add_moderator0CskwAV7ptXVKm_14threadkit_http
FNDA:0,_RNCNvMNtCsiekp5I1RHQt_16threadkit_common5redisNtB4_11RedisClient13add_report_v20CskwAV7ptXVKm_14threadkit_http
FNDA:0,_RNCNvMNtCsiekp5I1RHQt_16threadkit_common5redisNtB4_11RedisClient13get_page_tree0CskwAV7ptXVKm_14threadkit_http
FNDA:0,_RNCNvMNtCsiekp5I1RHQt_16threadkit_common5redisNtB4_11RedisClient13get_pageviews0CskwAV7ptXVKm_14threadkit_http
FNDA:0,_RNCNvMNtCsiekp5I1RHQt_16threadkit_common5redisNtB4_11RedisClient13get_user_role0CskwAV7ptXVKm_14threadkit_http
FNDA:0,_RNCNvMNtCsiekp5I1RHQt_16threadkit_common5redisNtB4_11RedisClient13set_page_tree0CskwAV7ptXVKm_14threadkit_http
FNDA:0,_RNCNvMNtCsiekp5I1RHQt_16threadkit_common5redisNtB4_11RedisClient13unpin_comment0CskwAV7ptXVKm_14threadkit_http
FNDA:0,_RNCNvMNtCsiekp5I1RHQt_16threadkit_common5redisNtB4_11RedisClient14add_user_media0CskwAV7ptXVKm_14threadkit_http
FNDA:0,_RNCNvMNtCsiekp5I1RHQt_16threadkit_common5redisNtB4_11RedisClient14create_session0CskwAV7ptXVKm_14threadkit_http
FNDA:0,_RNCNvMNtCsiekp5I1RHQt_16threadkit_common5redisNtB4_11RedisClient14delete_session0CskwAV7ptXVKm_14threadkit_http
FNDA:0,_RNCNvMNtCsiekp5I1RHQt_16threadkit_common5redisNtB4_11RedisClient14get_blocked_by0CskwAV7ptXVKm_14threadkit_http
FNDA:0,_RNCNvMNtCsiekp5I1RHQt_16threadkit_common5redisNtB4_11RedisClient14get_media_info0CskwAV7ptXVKm_14threadkit_http
FNDA:0,_RNCNvMNtCsiekp5I1RHQt_16threadkit_common5redisNtB4_11RedisClient14get_moderators0CskwAV7ptXVKm_14threadkit_http
FNDA:0,_RNCNvMNtCsiekp5I1RHQt_16threadkit_common5redisNtB4_11RedisClient14get_page_votes0CskwAV7ptXVKm_14threadkit_http
FNDA:0,_RNCNvMNtCsiekp5I1RHQt_16threadkit_common5redisNtB4_11RedisClient14get_reports_v20CskwAV7ptXVKm_14threadkit_http
FNDA:0,_RNCNvMNtCsiekp5I1RHQt_16threadkit_common5redisNtB4_11RedisClient14get_user_votes0CskwAV7ptXVKm_14threadkit_http
FNDA:0,_RNCNvMNtCsiekp5I1RHQt_16threadkit_common5redisNtB4_11RedisClient14get_web3_nonce0CskwAV7ptXVKm_14threadkit_http
FNDA:0,_RNCNvMNtCsiekp5I1RHQt_16threadkit_common5redisNtB4_11RedisClient14is_page_locked0CskwAV7ptXVKm_14threadkit_http
FNDA:0,_RNCNvMNtCsiekp5I1RHQt_16threadkit_common5redisNtB4_11RedisClient14set_media_info0CskwAV7ptXVKm_14threadkit_http
FNDA:0,_RNCNvMNtCsiekp5I1RHQt_16threadkit_common5redisNtB4_11RedisClient14set_web3_nonce0CskwAV7ptXVKm_14threadkit_http
FNDA:0,_RNCNvMNtCsiekp5I1RHQt_16threadkit_common5redisNtB4_11RedisClient14shadowban_user0CskwAV7ptXVKm_14threadkit_http
FNDA:0,_RNCNvMNtCsiekp5I1RHQt_16threadkit_common5redisNtB4_11RedisClient15add_to_modqueue0CskwAV7ptXVKm_14threadkit_http
FNDA:0,_RNCNvMNtCsiekp5I1RHQt_16threadkit_common5redisNtB4_11RedisClient15get_modqueue_v20CskwAV7ptXVKm_14threadkit_http
FNDA:0,_RNCNvMNtCsiekp5I1RHQt_16threadkit_common5redisNtB4_11RedisClient15get_site_config0CskwAV7ptXVKm_14threadkit_http
FNDA:0,_RNCNvMNtCsiekp5I1RHQt_16threadkit_common5redisNtB4_11RedisClient15increment_usage0CskwAV7ptXVKm_14threadkit_http
FNDA:0,_RNCNvMNtCsiekp5I1RHQt_16threadkit_common5redisNtB4_11RedisClient15is_shadowbanned0CskwAV7ptXVKm_14threadkit_http
FNDA:0,_RNCNvMNtCsiekp5I1RHQt_16threadkit_common5redisNtB4_11RedisClient15set_site_config0CskwAV7ptXVKm_14threadkit_http
FNDA:0,_RNCNvMNtCsiekp5I1RHQt_16threadkit_common5redisNtB4_11RedisClient16add_notification0CskwAV7ptXVKm_14threadkit_http
FNDA:0,_RNCNvMNtCsiekp5I1RHQt_16threadkit_common5redisNtB4_11RedisClient16check_rate_limit0CskwAV7ptXVKm_14threadkit_http
FNDA:0,_RNCNvMNtCsiekp5I1RHQt_16threadkit_common5redisNtB4_11RedisClient16get_session_user0CskwAV7ptXVKm_14threadkit_http
FNDA:0,_RNCNvMNtCsiekp5I1RHQt_16threadkit_common5redisNtB4_11RedisClient16get_unread_count0CskwAV7ptXVKm_14threadkit_http
FNDA:0,_RNCNvMNtCsiekp5I1RHQt_16threadkit_common5redisNtB4_11RedisClient16remove_moderator0CskwAV7ptXVKm_14threadkit_http
FNDA:0,_RNCNvMNtCsiekp5I1RHQt_16threadkit_common5redisNtB4_11RedisClient17delete_media_info0CskwAV7ptXVKm_14threadkit_http
FNDA:0,_RNCNvMNtCsiekp5I1RHQt_16threadkit_common5redisNtB4_11RedisClient17delete_web3_nonce0CskwAV7ptXVKm_14threadkit_http
FNDA:0,_RNCNvMNtCsiekp5I1RHQt_16threadkit_common5redisNtB4_11RedisClient17get_blocked_users0CskwAV7ptXVKm_14threadkit_http
FNDA:0,_RNCNvMNtCsiekp5I1RHQt_16threadkit_common5redisNtB4_11RedisClient17get_notifications0CskwAV7ptXVKm_14threadkit_http
FNDA:0,_RNCNvMNtCsiekp5I1RHQt_16threadkit_common5redisNtB4_11RedisClient17get_user_by_email0CskwAV7ptXVKm_14threadkit_http
FNDA:0,_RNCNvMNtCsiekp5I1RHQt_16threadkit_common5redisNtB4_11RedisClient17get_user_comments0CskwAV7ptXVKm_14threadkit_http
FNDA:0,_RNCNvMNtCsiekp5I1RHQt_16threadkit_common5redisNtB4_11RedisClient17is_comment_pinned0CskwAV7ptXVKm_14threadkit_http
FNDA:0,_RNCNvMNtCsiekp5I1RHQt_16threadkit_common5redisNtB4_11RedisClient17remove_user_media0CskwAV7ptXVKm_14threadkit_http
FNDA:0,_RNCNvMNtCsiekp5I1RHQt_16threadkit_common5redisNtB4_11RedisClient17update_user_karma0CskwAV7ptXVKm_14threadkit_http
FNDA:0,_RNCNvMNtCsiekp5I1RHQt_16threadkit_common5redisNtB4_11RedisClient18block_user_by_user0CskwAV7ptXVKm_14threadkit_http
FNDA:0,_RNCNvMNtCsiekp5I1RHQt_16threadkit_common5redisNtB4_11RedisClient18get_user_by_wallet0CskwAV7ptXVKm_14threadkit_http
FNDA:0,_RNCNvMNtCsiekp5I1RHQt_16threadkit_common5redisNtB4_11RedisClient19delete_user_account0CskwAV7ptXVKm_14threadkit_http
FNDA:0,_RNCNvMNtCsiekp5I1RHQt_16threadkit_common5redisNtB4_11RedisClient19get_pinned_comments0CskwAV7ptXVKm_14threadkit_http
FNDA:0,_RNCNvMNtCsiekp5I1RHQt_16threadkit_common5redisNtB4_11RedisClient20get_user_by_provider0CskwAV7ptXVKm_14threadkit_http
FNDA:0,_RNCNvMNtCsiekp5I1RHQt_16threadkit_common5redisNtB4_11RedisClient20get_user_by_username0CskwAV7ptXVKm_14threadkit_http
FNDA:0,_RNCNvMNtCsiekp5I1RHQt_16threadkit_common5redisNtB4_11RedisClient20set_user_email_index0CskwAV7ptXVKm_14threadkit_http
FNDA:0,_RNCNvMNtCsiekp5I1RHQt_16threadkit_common5redisNtB4_11RedisClient20unblock_user_by_user0CskwAV7ptXVKm_14threadkit_http
FNDA:0,_RNCNvMNtCsiekp5I1RHQt_16threadkit_common5redisNtB4_11RedisClient20update_comment_votes0CskwAV7ptXVKm_14threadkit_http
FNDA:0,_RNCNvMNtCsiekp5I1RHQt_16threadkit_common5redisNtB4_11RedisClient20update_site_settings0CskwAV7ptXVKm_14threadkit_http
FNDA:0,_RNCNvMNtCsiekp5I1RHQt_16threadkit_common5redisNtB4_11RedisClient21get_cached_project_id0CskwAV7ptXVKm_14threadkit_http
FNDA:0,_RNCNvMNtCsiekp5I1RHQt_16threadkit_common5redisNtB4_11RedisClient21get_verification_code0CskwAV7ptXVKm_14threadkit_http
FNDA:0,_RNCNvMNtCsiekp5I1RHQt_16threadkit_common5redisNtB4_11RedisClient21is_username_available0CskwAV7ptXVKm_14threadkit_http
FNDA:0,_RNCNvMNtCsiekp5I1RHQt_16threadkit_common5redisNtB4_11RedisClient21set_user_wallet_index0CskwAV7ptXVKm_14threadkit_http
FNDA:0,_RNCNvMNtCsiekp5I1RHQt_16threadkit_common5redisNtB4_11RedisClient21set_verification_code0CskwAV7ptXVKm_14threadkit_http
FNDA:0,_RNCNvMNtCsiekp5I1RHQt_16threadkit_common5redisNtB4_11RedisClient22add_site_comment_index0CskwAV7ptXVKm_14threadkit_http
FNDA:0,_RNCNvMNtCsiekp5I1RHQt_16threadkit_common5redisNtB4_11RedisClient22add_user_comment_index0CskwAV7ptXVKm_14threadkit_http
FNDA:0,_RNCNvMNtCsiekp5I1RHQt_16threadkit_common5redisNtB4_11RedisClient22get_site_by_project_id0CskwAV7ptXVKm_14threadkit_http
FNDA:0,_RNCNvMNtCsiekp5I1RHQt_16threadkit_common5redisNtB4_11RedisClient22get_site_comment_index0CskwAV7ptXVKm_14threadkit_http
FNDA:0,_RNCNvMNtCsiekp5I1RHQt_16threadkit_common5redisNtB4_11RedisClient22get_user_site_comments0CskwAV7ptXVKm_14threadkit_http
FNDA:0,_RNCNvMNtCsiekp5I1RHQt_16threadkit_common5redisNtB4_11RedisClient23get_or_create_page_tree0CskwAV7ptXVKm_14threadkit_http
FNDA:0,_RNCNvMNtCsiekp5I1RHQt_16threadkit_common5redisNtB4_11RedisClient23mark_notifications_read0CskwAV7ptXVKm_14threadkit_http
FNDA:0,_RNCNvMNtCsiekp5I1RHQt_16threadkit_common5redisNtB4_11RedisClient23remove_from_modqueue_v20CskwAV7ptXVKm_14threadkit_http
FNDA:0,_RNCNvMNtCsiekp5I1RHQt_16threadkit_common5redisNtB4_11RedisClient23set_user_provider_index0CskwAV7ptXVKm_14threadkit_http
FNDA:0,_RNCNvMNtCsiekp5I1RHQt_16threadkit_common5redisNtB4_11RedisClient23set_user_username_index0CskwAV7ptXVKm_14threadkit_http
FNDA:0,_RNCNvMNtCsiekp5I1RHQt_16threadkit_common5redisNtB4_11RedisClient24delete_verification_code0CskwAV7ptXVKm_14threadkit_http
FNDA:0,_RNCNvMNtCsiekp5I1RHQt_16threadkit_common5redisNtB4_11RedisClient26delete_user_username_index0CskwAV7ptXVKm_14threadkit_http
FNDA:0,_RNCNvMNtCsiekp5I1RHQt_16threadkit_common5redisNtB4_11RedisClient26get_site_config_by_api_key0CskwAV7ptXVKm_14threadkit_http
FNDA:0,_RNCNvMNtCsiekp5I1RHQt_16threadkit_common5redisNtB4_11RedisClient27add_user_site_comment_index0CskwAV7ptXVKm_14threadkit_http
FNDA:0,_RNCNvMNtCsiekp5I1RHQt_16threadkit_common5redisNtB4_11RedisClient28increment_user_comment_count0CskwAV7ptXVKm_14threadkit_http
FNDA:0,_RNCNvMNtCsiekp5I1RHQt_16threadkit_common5redisNtB4_11RedisClient29increment_pageview_with_usage0CskwAV7ptXVKm_14threadkit_http
FNDA:0,_RNCNvMNtCsiekp5I1RHQt_16threadkit_common5redisNtB4_11RedisClient7publish0CskwAV7ptXVKm_14threadkit_http
FNDA:0,_RNCNvMNtCsiekp5I1RHQt_16threadkit_common5redisNtB4_11RedisClient8get_user0CskwAV7ptXVKm_14threadkit_http
FNDA:0,_RNCNvMNtCsiekp5I1RHQt_16threadkit_common5redisNtB4_11RedisClient8get_vote0CskwAV7ptXVKm_14threadkit_http
FNDA:0,_RNCNvMNtCsiekp5I1RHQt_16threadkit_common5redisNtB4_11RedisClient8set_user0CskwAV7ptXVKm_14threadkit_http
FNDA:0,_RNCNvMNtCsiekp5I1RHQt_16threadkit_common5redisNtB4_11RedisClient9add_admin0CskwAV7ptXVKm_14threadkit_http
FNDA:0,_RNCNvMNtCsiekp5I1RHQt_16threadkit_common5redisNtB4_11RedisClient9lock_page0CskwAV7ptXVKm_14threadkit_http
FNDA:0,_RNCNCNvMNtCsiekp5I1RHQt_16threadkit_common5redisNtB6_11RedisClient16load_lua_scripts00Cs7VmwUquk1Lm_19threadkit_websocket
FNDA:0,_RNCNCNvMNtCsiekp5I1RHQt_16threadkit_common5redisNtB6_11RedisClient16load_lua_scripts0s0_0Cs7VmwUquk1Lm_19threadkit_websocket
FNDA:0,_RNCNCNvMNtCsiekp5I1RHQt_16threadkit_common5redisNtB6_11RedisClient16load_lua_scripts0s1_0Cs7VmwUquk1Lm_19threadkit_websocket
FNDA:0,_RNCNCNvMNtCsiekp5I1RHQt_16threadkit_common5redisNtB6_11RedisClient16load_lua_scripts0s2_0Cs7VmwUquk1Lm_19threadkit_websocket
FNDA:0,_RNCNCNvMNtCsiekp5I1RHQt_16threadkit_common5redisNtB6_11RedisClient16load_lua_scripts0s3_0Cs7VmwUquk1Lm_19threadkit_websocket
FNDA:0,_RNCNCNvMNtCsiekp5I1RHQt_16threadkit_common5redisNtB6_11RedisClient16load_lua_scripts0s4_0Cs7VmwUquk1Lm_19threadkit_websocket
FNDA:0,_RNCNCNvMNtCsiekp5I1RHQt_16threadkit_common5redisNtB6_11RedisClient16load_lua_scripts0s5_0Cs7VmwUquk1Lm_19threadkit_websocket
FNDA:0,_RNCNCNvMNtCsiekp5I1RHQt_16threadkit_common5redisNtB6_11RedisClient16load_lua_scripts0s6_0Cs7VmwUquk1Lm_19threadkit_websocket
FNDA:0,_RNCNCNvMNtCsiekp5I1RHQt_16threadkit_common5redisNtB6_11RedisClient16load_lua_scripts0s_0Cs7VmwUquk1Lm_19threadkit_websocket
FNDA:0,_RNCNvMNtCsiekp5I1RHQt_16threadkit_common5redisNtB4_11RedisClient15set_with_expiry0Cs7VmwUquk1Lm_19threadkit_websocket
FNDA:0,_RNCNvMNtCsiekp5I1RHQt_16threadkit_common5redisNtB4_11RedisClient16load_lua_scripts0Cs7VmwUquk1Lm_19threadkit_websocket
FNDA:0,_RNCNvMNtCsiekp5I1RHQt_16threadkit_common5redisNtB4_11RedisClient3new0Cs7VmwUquk1Lm_19threadkit_websocket
FNDA:0,_RNCNCNvMNtCsiekp5I1RHQt_16threadkit_common5redisNtB6_11RedisClient15get_site_config00CscZ3GRALPr5A_19threadkit_websocket
FNDA:0,_RNCNvMNtCsiekp5I1RHQt_16threadkit_common5redisNtB4_11RedisClient15get_site_config0CscZ3GRALPr5A_19threadkit_websocket
FNDA:0,_RNCNvMNtCsiekp5I1RHQt_16threadkit_common5redisNtB4_11RedisClient16cache_project_id0CscZ3GRALPr5A_19threadkit_websocket
FNDA:0,_RNCNvMNtCsiekp5I1RHQt_16threadkit_common5redisNtB4_11RedisClient26get_site_config_by_api_key0CscZ3GRALPr5A_19threadkit_websocket
FNDA:34,_RNCNCNvMNtCsiekp5I1RHQt_16threadkit_common5redisNtB6_11RedisClient16load_lua_scripts00CsiJNGSUnbjrr_15turnstile_tests
FNDA:0,_RNCNCNvMNtCsiekp5I1RHQt_16threadkit_common5redisNtB6_11RedisClient16load_lua_scripts0s0_0CsiJNGSUnbjrr_15turnstile_tests
FNDA:0,_RNCNCNvMNtCsiekp5I1RHQt_16threadkit_common5redisNtB6_11RedisClient16load_lua_scripts0s1_0CsiJNGSUnbjrr_15turnstile_tests
FNDA:34,_RNCNCNvMNtCsiekp5I1RHQt_16threadkit_common5redisNtB6_11RedisClient16load_lua_scripts0s2_0CsiJNGSUnbjrr_15turnstile_tests
FNDA:34,_RNCNCNvMNtCsiekp5I1RHQt_16threadkit_common5redisNtB6_11RedisClient16load_lua_scripts0s3_0CsiJNGSUnbjrr_15turnstile_tests
FNDA:0,_RNCNCNvMNtCsiekp5I1RHQt_16threadkit_common5redisNtB6_11RedisClient16load_lua_scripts0s4_0CsiJNGSUnbjrr_15turnstile_tests
FNDA:0,_RNCNCNvMNtCsiekp5I1RHQt_16threadkit_common5redisNtB6_11RedisClient16load_lua_scripts0s5_0CsiJNGSUnbjrr_15turnstile_tests
FNDA:0,_RNCNCNvMNtCsiekp5I1RHQt_16threadkit_common5redisNtB6_11RedisClient16load_lua_scripts0s6_0CsiJNGSUnbjrr_15turnstile_tests
FNDA:0,_RNCNCNvMNtCsiekp5I1RHQt_16threadkit_common5redisNtB6_11RedisClient16load_lua_scripts0s_0CsiJNGSUnbjrr_15turnstile_tests
FNDA:34,_RNCNvMNtCsiekp5I1RHQt_16threadkit_common5redisNtB4_11RedisClient16load_lua_scripts0CsiJNGSUnbjrr_15turnstile_tests
FNDA:6,_RNCNvMNtCsiekp5I1RHQt_16threadkit_common5redisNtB4_11RedisClient27invalidate_project_id_cache0CsiJNGSUnbjrr_15turnstile_tests
FNDA:34,_RNCNvMNtCsiekp5I1RHQt_16threadkit_common5redisNtB4_11RedisClient3new0CsiJNGSUnbjrr_15turnstile_tests
FNF:328
FNH:125
DA:40,198
DA:41,198
DA:42,198
DA:43,198
DA:46,198
DA:48,198
DA:49,198
DA:52,198
DA:53,198
DA:55,198
DA:56,198
DA:57,198
DA:58,198
DA:59,198
DA:61,198
DA:62,0
DA:63,198
DA:66,198
DA:67,198
DA:68,198
DA:70,198
DA:71,198
DA:72,198
DA:73,198
DA:75,198
DA:76,198
DA:79,198
DA:80,198
DA:81,198
DA:82,198
DA:83,198
DA:86,198
DA:87,198
DA:88,198
DA:89,198
DA:91,0
DA:94,198
DA:95,198
DA:96,0
DA:99,198
DA:100,198
DA:103,0
DA:104,0
DA:105,0
DA:106,0
DA:109,0
DA:110,0
DA:111,0
DA:112,0
DA:115,0
DA:116,0
DA:117,0
DA:118,0
DA:119,0
DA:120,0
DA:121,0
DA:122,0
DA:123,0
DA:124,0
DA:125,0
DA:126,0
DA:132,179
DA:133,179
DA:134,179
DA:136,82
DA:137,82
DA:138,82
DA:140,66
DA:141,66
DA:142,66
DA:143,66
DA:145,66
DA:146,66
DA:147,66
DA:148,66
DA:149,66
DA:150,66
DA:151,66
DA:152,66
DA:153,66
DA:154,66
DA:155,66
DA:156,66
DA:158,66
DA:159,66
DA:160,66
DA:161,66
DA:163,66
DA:164,66
DA:165,66
DA:166,66
DA:167,66
DA:168,66
DA:169,66
DA:170,66
DA:171,66
DA:172,66
DA:173,66
DA:174,66
DA:176,0
DA:177,0
DA:178,0
DA:179,0
DA:180,0
DA:181,0
DA:184,0
DA:185,0
DA:186,0
DA:187,0
DA:189,0
DA:192,0
DA:194,0
DA:195,0
DA:196,0
DA:197,0
DA:199,0
DA:200,0
DA:201,0
DA:202,0
DA:203,0
DA:204,0
DA:205,0
DA:206,0
DA:207,0
DA:208,0
DA:209,0
DA:210,0
DA:212,0
DA:213,0
DA:214,0
DA:215,0
DA:217,0
DA:218,0
DA:219,0
DA:220,0
DA:221,0
DA:222,0
DA:224,0
DA:225,0
DA:226,0
DA:227,0
DA:229,0
DA:230,0
DA:231,0
DA:232,0
DA:233,0
DA:234,0
DA:235,0
DA:236,0
DA:237,0
DA:238,0
DA:239,0
DA:240,0
DA:247,94
DA:249,94
DA:250,94
DA:251,94
DA:252,94
DA:254,94
DA:255,94
DA:258,91
DA:259,91
DA:260,91
DA:261,91
DA:264,49
DA:265,49
DA:266,49
DA:267,49
DA:268,49
DA:269,49
DA:270,49
DA:273,54
DA:274,54
DA:275,15
DA:276,39
DA:278,54
DA:281,37
DA:282,37
DA:283,37
DA:284,37
DA:285,37
DA:286,37
DA:287,37
DA:288,37
DA:289,37
DA:290,37
DA:291,37
DA:292,37
DA:293,37
DA:294,37
DA:295,37
DA:298,37
DA:299,37
DA:300,37
DA:301,37
DA:302,37
DA:303,37
DA:304,37
DA:305,37
DA:306,37
DA:307,37
DA:308,37
DA:309,37
DA:310,37
DA:311,37
DA:312,37
DA:315,37
DA:316,37
DA:317,37
DA:318,37
DA:319,37
DA:320,37
DA:321,37
DA:322,37
DA:323,37
DA:324,37
DA:325,37
DA:326,37
DA:327,37
DA:328,37
DA:329,37
DA:333,0
DA:334,0
DA:335,0
DA:336,0
DA:337,0
DA:338,0
DA:339,0
DA:340,0
DA:341,0
DA:342,0
DA:344,0
DA:345,0
DA:346,0
DA:347,0
DA:348,0
DA:349,0
DA:351,0
DA:353,0
DA:354,0
DA:355,0
DA:359,0
DA:360,0
DA:361,0
DA:362,0
DA:363,0
DA:364,0
DA:365,0
DA:366,0
DA:367,0
DA:368,0
DA:370,0
DA:371,0
DA:372,0
DA:373,0
DA:374,0
DA:375,0
DA:377,0
DA:379,0
DA:380,0
DA:381,0
DA:385,0
DA:386,0
DA:387,0
DA:388,0
DA:389,0
DA:390,0
DA:391,0
DA:392,0
DA:393,0
DA:394,0
DA:396,0
DA:397,0
DA:398,0
DA:399,0
DA:400,0
DA:401,0
DA:403,0
DA:405,0
DA:406,0
DA:407,0
DA:411,4
DA:412,4
DA:413,4
DA:414,4
DA:415,4
DA:416,4
DA:417,4
DA:418,4
DA:419,4
DA:420,4
DA:421,4
DA:422,4
DA:423,4
DA:424,4
DA:425,4
DA:428,2
DA:429,2
DA:430,2
DA:431,2
DA:432,2
DA:433,2
DA:434,2
DA:438,1
DA:439,1
DA:440,1
DA:441,1
DA:442,1
DA:443,1
DA:444,1
DA:445,1
DA:446,1
DA:447,1
DA:448,1
DA:449,1
DA:450,1
DA:452,1
DA:453,1
DA:454,1
DA:455,1
DA:456,1
DA:457,1
DA:459,0
DA:461,1
DA:462,1
DA:463,1
DA:466,3
DA:467,3
DA:468,3
DA:469,3
DA:470,3
DA:471,3
DA:472,3
DA:473,3
DA:474,3
DA:475,3
DA:476,3
DA:477,3
DA:478,3
DA:479,3
DA:480,3
DA:484,1
DA:485,1
DA:486,1
DA:487,1
DA:488,1
DA:489,1
DA:490,1
DA:491,1
DA:492,1
DA:493,1
DA:494,1
DA:495,1
DA:496,1
DA:498,1
DA:499,1
DA:500,1
DA:501,1
DA:502,1
DA:503,1
DA:505,0
DA:507,1
DA:508,1
DA:509,1
DA:515,0
DA:516,0
DA:517,0
DA:519,0
DA:520,0
DA:521,0
DA:524,0
DA:525,0
DA:526,0
DA:527,0
DA:528,0
DA:529,0
DA:530,0
DA:531,0
DA:532,0
DA:533,0
DA:534,0
DA:537,0
DA:538,0
DA:539,0
DA:540,0
DA:541,0
DA:542,0
DA:543,0
DA:544,0
DA:545,0
DA:546,0
DA:549,0
DA:550,0
DA:551,0
DA:552,0
DA:553,0
DA:554,0
DA:555,0
DA:556,0
DA:557,0
DA:558,0
DA:559,0
DA:562,0
DA:563,0
DA:564,0
DA:565,0
DA:568,0
DA:569,0
DA:570,0
DA:571,0
DA:572,0
DA:573,0
DA:574,0
DA:575,0
DA:576,0
DA:577,0
DA:578,0
DA:579,0
DA:581,0
DA:582,0
DA:584,0
DA:585,0
DA:586,0
DA:587,0
DA:588,0
DA:589,0
DA:590,0
DA:591,0
DA:592,0
DA:593,0
DA:594,0
DA:595,0
DA:598,0
DA:599,0
DA:600,0
DA:601,0
DA:603,0
DA:604,0
DA:606,0
DA:607,0
DA:608,0
DA:609,0
DA:610,0
DA:611,0
DA:612,0
DA:613,0
DA:614,0
DA:615,0
DA:616,0
DA:617,0
DA:618,0
DA:620,0
DA:621,0
DA:624,0
DA:625,0
DA:626,0
DA:627,0
DA:629,0
DA:630,0
DA:631,0
DA:632,0
DA:634,0
DA:635,0
DA:636,0
DA:639,0
DA:640,0
DA:641,0
DA:642,0
DA:645,0
DA:647,0
DA:648,0
DA:649,0
DA:650,0
DA:652,0
DA:653,0
DA:654,0
DA:655,0
DA:656,0
DA:657,0
DA:660,0
DA:661,0
DA:662,0
DA:663,0
DA:665,0
DA:666,0
DA:667,0
DA:668,0
DA:670,0
DA:671,0
DA:672,0
DA:673,0
DA:674,0
DA:675,0
DA:677,0
DA:678,0
DA:681,0
DA:682,0
DA:683,0
DA:684,0
DA:685,0
DA:686,0
DA:687,0
DA:688,0
DA:689,0
DA:692,0
DA:693,0
DA:694,0
DA:695,0
DA:696,0
DA:697,0
DA:698,0
DA:699,0
DA:700,0
DA:701,0
DA:702,0
DA:704,0
DA:705,0
DA:711,0
DA:712,0
DA:713,0
DA:714,0
DA:715,0
DA:717,0
DA:718,0
DA:719,0
DA:720,0
DA:721,0
DA:722,0
DA:724,0
DA:725,0
DA:726,0
DA:727,0
DA:729,0
DA:730,0
DA:731,0
DA:732,0
DA:733,0
DA:734,0
DA:735,0
DA:736,0
DA:737,0
DA:738,0
DA:739,0
DA:741,0
DA:742,0
DA:743,0
DA:744,0
DA:745,0
DA:746,0
DA:754,0
DA:755,0
DA:756,0
DA:757,0
DA:759,0
DA:760,0
DA:761,0
DA:762,0
DA:763,0
DA:764,0
DA:765,0
DA:766,0
DA:769,0
DA:770,0
DA:771,0
DA:772,0
DA:773,0
DA:774,0
DA:775,0
DA:776,0
DA:777,0
DA:781,0
DA:782,0
DA:783,0
DA:784,0
DA:785,0
DA:787,0
DA:788,0
DA:789,0
DA:790,0
DA:791,0
DA:792,0
DA:793,0
DA:795,0
DA:796,0
DA:797,0
DA:798,0
DA:800,0
DA:801,0
DA:805,24
DA:806,24
DA:807,24
DA:808,24
DA:809,24
DA:810,24
DA:811,24
DA:812,24
DA:813,24
DA:814,24
DA:815,24
DA:816,16
DA:817,8
DA:819,24
DA:820,24
DA:822,24
DA:823,24
DA:826,24
DA:827,24
DA:828,24
DA:829,24
DA:830,24
DA:831,24
DA:833,24
DA:834,24
DA:835,24
DA:836,24
DA:837,24
DA:840,24
DA:841,24
DA:842,24
DA:843,120
DA:844,24
DA:845,24
DA:847,0
DA:848,0
DA:850,0
DA:851,0
DA:852,0
DA:854,0
DA:855,0
DA:860,24
DA:861,24
DA:862,20
DA:863,20
DA:864,7
DA:865,0
DA:868,4
DA:871,24
DA:872,24
DA:873,24
DA:874,24
DA:876,24
DA:877,24
DA:883,86
DA:885,86
DA:886,86
DA:887,86
DA:888,86
DA:889,86
DA:890,1
DA:891,85
DA:894,85
DA:895,85
DA:896,85
DA:897,85
DA:898,85
DA:899,0
DA:900,85
DA:903,85
DA:904,85
DA:905,85
DA:906,85
DA:907,85
DA:908,6
DA:909,79
DA:911,79
DA:912,86
DA:914,0
DA:915,0
DA:916,0
DA:917,0
DA:918,0
DA:919,0
DA:921,0
DA:922,0
DA:923,0
DA:924,0
DA:925,0
DA:926,0
DA:928,0
DA:929,0
DA:930,0
DA:931,0
DA:932,0
DA:933,0
DA:934,0
DA:936,6
DA:937,6
DA:938,6
DA:939,6
DA:940,6
DA:941,6
DA:943,0
DA:944,0
DA:945,0
DA:946,0
DA:947,0
DA:948,0
DA:950,0
DA:951,0
DA:952,0
DA:953,0
DA:954,0
DA:955,0
DA:956,0
DA:958,1
DA:959,1
DA:960,1
DA:961,1
DA:962,1
DA:963,1
DA:965,0
DA:966,0
DA:967,0
DA:968,0
DA:969,0
DA:970,0
DA:972,1
DA:973,1
DA:974,1
DA:975,1
DA:976,1
DA:977,1
DA:979,46
DA:980,46
DA:981,46
DA:982,46
DA:983,46
DA:984,46
DA:985,46
DA:992,0
DA:993,0
DA:994,0
DA:995,0
DA:996,0
DA:997,0
DA:1000,0
DA:1001,0
DA:1002,0
DA:1003,0
DA:1004,0
DA:1005,0
DA:1006,0
DA:1009,0
DA:1010,0
DA:1011,0
DA:1012,0
DA:1013,0
DA:1014,0
DA:1021,16
DA:1022,16
DA:1023,16
DA:1024,16
DA:1025,16
DA:1026,16
DA:1027,16
DA:1030,37
DA:1031,37
DA:1032,37
DA:1033,37
DA:1034,37
DA:1035,37
DA:1036,37
DA:1039,0
DA:1040,0
DA:1041,0
DA:1042,0
DA:1043,0
DA:1044,0
DA:1045,0
DA:1052,0
DA:1054,0
DA:1055,0
DA:1056,0
DA:1058,0
DA:1059,0
DA:1060,0
DA:1061,0
DA:1062,0
DA:1065,0
DA:1066,0
DA:1067,0
DA:1068,0
DA:1069,0
DA:1070,0
DA:1071,0
DA:1072,0
DA:1073,0
DA:1076,0
DA:1077,0
DA:1078,0
DA:1079,0
DA:1080,0
DA:1081,0
DA:1082,0
DA:1085,1
DA:1086,1
DA:1087,1
DA:1088,1
DA:1089,1
DA:1090,1
DA:1091,1
DA:1094,0
DA:1095,0
DA:1096,0
DA:1097,0
DA:1098,0
DA:1099,0
DA:1100,0
DA:1106,0
DA:1107,0
DA:1108,0
DA:1110,0
DA:1111,0
DA:1112,0
DA:1113,0
DA:1114,0
DA:1115,0
DA:1116,0
DA:1117,0
DA:1118,0
DA:1119,0
DA:1121,0
DA:1122,0
DA:1123,0
DA:1125,0
DA:1126,0
DA:1128,0
DA:1129,0
DA:1130,0
DA:1131,0
DA:1132,0
DA:1133,0
DA:1134,0
DA:1135,0
DA:1136,0
DA:1137,0
DA:1139,0
DA:1140,0
DA:1141,0
DA:1142,0
DA:1144,0
DA:1145,0
DA:1147,0
DA:1148,0
DA:1149,0
DA:1150,0
DA:1151,0
DA:1152,0
DA:1153,0
DA:1154,0
DA:1156,0
DA:1157,0
DA:1158,0
DA:1159,0
DA:1160,0
DA:1161,0
DA:1167,4
DA:1168,4
DA:1169,4
DA:1170,4
DA:1171,4
DA:1172,4
DA:1173,4
DA:1174,4
DA:1175,4
DA:1176,4
DA:1177,4
DA:1178,4
DA:1179,4
DA:1181,3
DA:1182,3
DA:1183,3
DA:1184,3
DA:1186,0
DA:1187,0
DA:1188,0
DA:1189,0
DA:1196,0
DA:1197,0
DA:1198,0
DA:1199,0
DA:1200,0
DA:1201,0
DA:1202,0
DA:1203,0
DA:1204,0
DA:1205,0
DA:1206,0
DA:1207,0
DA:1210,0
DA:1211,0
DA:1212,0
DA:1213,0
DA:1214,0
DA:1215,0
DA:1216,0
DA:1219,0
DA:1220,0
DA:1221,0
DA:1222,0
DA:1223,0
DA:1224,0
DA:1227,0
DA:1228,0
DA:1229,0
DA:1230,0
DA:1231,0
DA:1232,0
DA:1233,0
DA:1236,0
DA:1237,0
DA:1238,0
DA:1239,0
DA:1240,0
DA:1241,0
DA:1242,0
DA:1243,0
DA:1244,0
DA:1245,0
DA:1246,0
DA:1247,0
DA:1254,0
DA:1255,0
DA:1256,0
DA:1259,0
DA:1260,0
DA:1261,0
DA:1264,0
DA:1265,0
DA:1266,0
DA:1267,0
DA:1270,0
DA:1271,0
DA:1272,0
DA:1273,0
DA:1274,0
DA:1277,0
DA:1278,0
DA:1279,0
DA:1280,0
DA:1281,0
DA:1284,0
DA:1285,0
DA:1286,0
DA:1287,0
DA:1288,0
DA:1294,66
DA:1295,66
DA:1296,66
DA:1297,66
DA:1298,66
DA:1299,66
DA:1300,66
DA:1301,66
DA:1302,66
DA:1303,66
DA:1304,66
DA:1305,66
DA:1306,66
DA:1307,66
DA:1309,66
DA:1310,66
DA:1312,90
DA:1313,90
DA:1314,90
DA:1315,90
DA:1316,90
DA:1317,90
DA:1318,90
DA:1320,1
DA:1321,1
DA:1322,1
DA:1323,1
DA:1324,1
DA:1325,1
DA:1331,1
DA:1332,1
DA:1333,1
DA:1334,1
DA:1335,1
DA:1336,1
DA:1337,1
DA:1338,1
DA:1339,1
DA:1340,1
DA:1341,1
DA:1342,1
DA:1343,1
DA:1344,1
DA:1346,0
DA:1347,0
DA:1350,0
DA:1351,0
DA:1352,0
DA:1355,0
DA:1356,0
DA:1357,0
DA:1358,0
DA:1360,0
DA:1361,0
DA:1363,15
DA:1364,15
DA:1365,15
DA:1366,15
DA:1367,15
DA:1368,15
DA:1370,1
DA:1371,1
DA:1372,1
DA:1373,1
DA:1374,1
DA:1375,1
DA:1377,31
DA:1378,31
DA:1379,31
DA:1380,31
DA:1381,31
DA:1382,31
DA:1383,31
DA:1389,0
DA:1390,0
DA:1391,0
DA:1392,0
DA:1393,0
DA:1394,0
DA:1395,0
DA:1398,9
DA:1399,9
DA:1400,9
DA:1403,9
DA:1404,0
DA:1407,0
DA:1408,0
DA:1409,9
DA:1411,9
DA:1412,9
DA:1413,9
DA:1414,9
DA:1415,9
DA:1416,9
DA:1417,9
DA:1418,9
DA:1424,73
DA:1425,73
DA:1426,73
DA:1427,73
DA:1428,73
DA:1429,73
DA:1430,73
DA:1432,15
DA:1435,15
DA:1436,15
DA:1439,15
DA:1440,15
DA:1441,15
DA:1442,15
DA:1443,15
DA:1449,126
DA:1450,126
DA:1451,126
DA:1452,126
DA:1453,126
DA:1454,126
DA:1455,126
DA:1456,126
DA:1457,126
DA:1458,126
DA:1459,126
DA:1460,126
DA:1461,126
DA:1463,408
DA:1464,408
DA:1465,408
DA:1466,408
DA:1469,11
DA:1470,11
DA:1471,11
DA:1472,11
DA:1478,296
DA:1479,296
DA:1480,296
DA:1481,296
DA:1484,285
DA:1486,285
DA:1488,285
DA:1489,285
DA:1490,285
DA:1491,0
DA:1492,0
DA:1494,0
DA:1495,285
DA:1499,0
DA:1500,0
DA:1501,0
DA:1502,0
DA:1503,0
DA:1504,0
DA:1506,97
DA:1507,97
DA:1508,97
DA:1509,97
DA:1510,97
DA:1513,97
DA:1514,97
DA:1515,97
DA:1516,97
DA:1517,97
DA:1518,97
DA:1519,97
DA:1520,97
DA:1521,97
DA:1522,97
DA:1523,97
DA:1524,97
DA:1525,97
DA:1526,97
DA:1527,97
DA:1528,97
DA:1529,97
DA:1530,97
DA:1532,97
DA:1533,97
DA:1536,0
DA:1538,0
DA:1539,0
DA:1540,0
DA:1543,0
DA:1546,0
DA:1547,0
DA:1548,0
DA:1554,0
DA:1555,0
DA:1556,0
DA:1557,0
DA:1558,0
DA:1559,0
DA:1560,0
DA:1561,0
DA:1562,0
DA:1563,0
DA:1564,0
DA:1565,0
DA:1566,0
DA:1568,0
DA:1569,0
DA:1571,0
DA:1572,0
DA:1573,0
DA:1574,0
DA:1575,0
DA:1576,0
DA:1582,0
DA:1583,0
DA:1584,0
DA:1586,0
DA:1587,0
DA:1588,0
DA:1589,0
DA:1590,0
DA:1591,0
DA:1592,0
DA:1593,0
DA:1594,0
DA:1595,0
DA:1596,0
DA:1597,0
DA:1599,0
DA:1600,0
DA:1601,0
DA:1602,0
DA:1603,0
DA:1604,0
DA:1605,0
DA:1606,0
DA:1607,0
DA:1608,0
DA:1609,0
DA:1610,0
DA:1611,0
DA:1613,0
DA:1614,0
DA:1615,0
DA:1616,0
DA:1617,0
DA:1623,58
DA:1624,58
DA:1625,58
DA:1626,58
DA:1633,0
DA:1634,0
DA:1637,0
DA:1640,0
DA:1641,0
DA:1643,0
DA:1645,0
DA:1646,0
DA:1647,0
DA:1648,0
DA:1649,0
DA:1650,0
DA:1651,0
DA:1652,0
DA:1653,0
DA:1654,0
DA:1655,0
DA:1656,0
DA:1657,0
DA:1658,0
DA:1659,0
DA:1660,0
DA:1661,0
DA:1662,0
DA:1665,0
DA:1666,0
DA:1667,0
DA:1668,0
DA:1670,0
DA:1671,0
DA:1672,0
DA:1673,0
DA:1676,0
DA:1677,0
DA:1678,0
DA:1679,0
DA:1682,0
DA:1684,0
DA:1685,0
DA:1689,0
DA:1692,0
DA:1693,0
DA:1695,0
DA:1697,0
DA:1698,0
DA:1699,0
DA:1700,0
DA:1702,0
DA:1703,0
DA:1704,0
DA:1705,0
DA:1706,0
DA:1707,0
DA:1708,0
DA:1710,0
DA:1713,0
DA:1714,0
DA:1718,0
DA:1719,0
DA:1720,0
DA:1721,0
DA:1722,0
DA:1724,0
DA:1727,0
DA:1728,0
DA:1729,0
DA:1730,0
DA:1731,0
DA:1733,0
DA:1736,0
DA:1737,0
DA:1738,0
DA:1739,0
DA:1741,0
DA:1742,0
DA:1748,0
DA:1750,0
DA:1751,0
DA:1754,0
DA:1755,0
DA:1756,0
DA:1757,0
DA:1758,0
DA:1759,0
DA:1762,0
DA:1763,0
DA:1764,0
DA:1765,0
DA:1766,0
DA:1767,0
DA:1770,0
DA:1771,0
DA:1772,0
DA:1773,0
DA:1774,0
DA:1775,0
DA:1776,0
DA:1784,460
DA:1785,460
DA:1786,460
DA:1787,460
DA:1788,460
DA:1789,460
DA:1790,460
DA:1791,460
DA:1792,460
DA:1795,460
DA:1796,460
DA:1797,460
DA:1800,460
DA:1802,460
DA:1805,460
DA:1807,460
DA:1808,460
DA:1809,460
DA:1810,460
DA:1813,460
DA:1814,460
DA:1815,460
DA:1817,460
DA:1818,460
DA:1819,460
DA:1820,460
DA:1821,460
DA:1822,460
DA:1823,460
DA:1825,0
DA:1826,0
DA:1827,0
DA:1828,0
DA:1829,0
DA:1830,0
DA:1832,460
DA:1835,0
DA:1836,0
DA:1837,0
DA:1838,0
DA:1839,0
DA:1840,0
DA:1841,0
DA:1842,0
DA:1843,0
DA:1846,0
DA:1847,0
DA:1848,0
DA:1850,0
DA:1851,0
DA:1852,0
DA:1854,0
DA:1855,0
DA:1856,0
DA:1857,0
DA:1858,0
DA:1859,0
DA:1860,0
DA:1867,0
DA:1868,0
DA:1869,0
DA:1870,0
DA:1871,0
DA:1872,0
DA:1873,0
DA:1874,0
DA:1875,0
DA:1876,0
DA:1877,0
DA:1878,0
DA:1879,0
DA:1882,0
DA:1883,0
DA:1884,0
DA:1885,0
DA:1886,0
DA:1887,0
DA:1891,9
DA:1893,9
DA:1894,9
DA:1895,9
DA:1896,9
DA:1897,9
DA:1898,9
DA:1899,9
DA:1900,9
DA:1901,9
DA:1902,9
DA:1904,9
DA:1905,9
DA:1906,9
DA:1907,0
DA:1908,0
DA:1909,9
DA:1910,9
DA:1913,0
DA:1914,0
DA:1915,0
DA:1916,0
DA:1917,0
DA:1918,0
DA:1919,0
DA:1926,0
DA:1927,0
DA:1928,0
DA:1929,0
DA:1930,0
DA:1931,0
DA:1934,0
DA:1935,0
DA:1936,0
DA:1937,0
DA:1938,0
DA:1939,0
DA:1942,49
DA:1943,49
DA:1944,49
DA:1945,49
DA:1946,49
DA:1947,49
DA:1948,49
DA:1951,0
DA:1952,0
DA:1953,0
DA:1954,0
DA:1955,0
DA:1956,0
DA:1957,0
DA:1964,0
DA:1966,0
DA:1967,0
DA:1968,0
DA:1969,0
DA:1972,0
DA:1975,0
DA:1976,0
DA:1982,179
DA:1983,179
DA:1984,179
DA:1985,0
DA:1986,179
DA:1990,179
DA:1993,179
DA:1994,2685
DA:1996,2506
DA:1997,179
DA:2000,2327
DA:2002,2506
DA:2005,179
DA:2006,179
DA:2007,179
DA:2009,82
DA:2010,82
DA:2011,82
DA:2012,82
DA:2013,82
DA:2014,1148
DA:2015,1148
DA:2016,410
DA:2017,738
DA:2019,1148
DA:2020,1148
DA:2021,82
DA:2023,82
DA:2024,82
DA:2025,0
DA:2026,0
DA:2027,82
DA:2028,82
BRF:0
BRH:0
LF:1650
LH:661
end_of_record
SF:/Users/jt/code/threadkit/server/crates/common/src/storage.rs
FN:18,_RNCNvMNtCsiekp5I1RHQt_16threadkit_common7storageNtB4_13StorageClient3new0CsfD1Skel4Vam_10auth_tests
FN:86,_RNCNvMNtCsiekp5I1RHQt_16threadkit_common7storageNtB4_13StorageClient11delete_file0CsaszyX3GTrYE_14threadkit_http
FN:65,_RNCNvMNtCsiekp5I1RHQt_16threadkit_common7storageNtB4_13StorageClient11upload_file0CsaszyX3GTrYE_14threadkit_http
FN:86,_RNvMNtCsiekp5I1RHQt_16threadkit_common7storageNtB2_13StorageClient11delete_file
FN:59,_RNvMNtCsiekp5I1RHQt_16threadkit_common7storageNtB2_13StorageClient11upload_file
FN:18,_RNvMNtCsiekp5I1RHQt_16threadkit_common7storageNtB2_13StorageClient3new
FN:105,_RNvNtCsiekp5I1RHQt_16threadkit_common7storage17mime_to_extension
FN:18,_RNCNvMNtCsiekp5I1RHQt_16threadkit_common7storageNtB4_13StorageClient3new0Cs7z9qMl5nAho_13comment_tests
FN:18,_RNCNvMNtCsiekp5I1RHQt_16threadkit_common7storageNtB4_13StorageClient3new0Cs2N948IYtZ75_11media_tests
FN:18,_RNCNvMNtCsiekp5I1RHQt_16threadkit_common7storageNtB4_13StorageClient3new0Cs9WZ6y3JiwVO_16moderation_tests
FN:18,_RNCNvMNtCsiekp5I1RHQt_16threadkit_common7storageNtB4_13StorageClient3new0CskHzlUDlR1w5_16rate_limit_tests
FN:86,_RNCNvMNtCs9dCHYEAjrI1_16threadkit_common7storageNtB4_13StorageClient11delete_file0B6_
FN:65,_RNCNvMNtCs9dCHYEAjrI1_16threadkit_common7storageNtB4_13StorageClient11upload_file0B6_
FN:18,_RNCNvMNtCs9dCHYEAjrI1_16threadkit_common7storageNtB4_13StorageClient3new0B6_
FN:86,_RNvMNtCs9dCHYEAjrI1_16threadkit_common7storageNtB2_13StorageClient11delete_file
FN:59,_RNvMNtCs9dCHYEAjrI1_16threadkit_common7storageNtB2_13StorageClient11upload_file
FN:18,_RNvMNtCs9dCHYEAjrI1_16threadkit_common7storageNtB2_13StorageClient3new
FN:105,_RNvNtCs9dCHYEAjrI1_16threadkit_common7storage17mime_to_extension
FN:18,_RNCNvMNtCsiekp5I1RHQt_16threadkit_common7storageNtB4_13StorageClient3new0Cs9KKNa6Ped6o_14threadkit_http
FN:86,_RNCNvMNtCsiekp5I1RHQt_16threadkit_common7storageNtB4_13StorageClient11delete_file0CskwAV7ptXVKm_14threadkit_http
FN:65,_RNCNvMNtCsiekp5I1RHQt_16threadkit_common7storageNtB4_13StorageClient11upload_file0CskwAV7ptXVKm_14threadkit_http
FN:18,_RNCNvMNtCsiekp5I1RHQt_16threadkit_common7storageNtB4_13StorageClient3new0CsiJNGSUnbjrr_15turnstile_tests
FNDA:0,_RNCNvMNtCsiekp5I1RHQt_16threadkit_common7storageNtB4_13StorageClient3new0CsfD1Skel4Vam_10auth_tests
FNDA:0,_RNCNvMNtCsiekp5I1RHQt_16threadkit_common7storageNtB4_13StorageClient11delete_file0CsaszyX3GTrYE_14threadkit_http
FNDA:0,_RNCNvMNtCsiekp5I1RHQt_16threadkit_common7storageNtB4_13StorageClient11upload_file0CsaszyX3GTrYE_14threadkit_http
FNDA:0,_RNvMNtCsiekp5I1RHQt_16threadkit_common7storageNtB2_13StorageClient11delete_file
FNDA:0,_RNvMNtCsiekp5I1RHQt_16threadkit_common7storageNtB2_13StorageClient11upload_file
FNDA:1,_RNvMNtCsiekp5I1RHQt_16threadkit_common7storageNtB2_13StorageClient3new
FNDA:0,_RNvNtCsiekp5I1RHQt_16threadkit_common7storage17mime_to_extension
FNDA:0,_RNCNvMNtCsiekp5I1RHQt_16threadkit_common7storageNtB4_13StorageClient3new0Cs7z9qMl5nAho_13comment_tests
FNDA:1,_RNCNvMNtCsiekp5I1RHQt_16threadkit_common7storageNtB4_13StorageClient3new0Cs2N948IYtZ75_11media_tests
FNDA:0,_RNCNvMNtCsiekp5I1RHQt_16threadkit_common7storageNtB4_13StorageClient3new0Cs9WZ6y3JiwVO_16moderation_tests
FNDA:0,_RNCNvMNtCsiekp5I1RHQt_16threadkit_common7storageNtB4_13StorageClient3new0CskHzlUDlR1w5_16rate_limit_tests
FNDA:0,_RNCNvMNtCs9dCHYEAjrI1_16threadkit_common7storageNtB4_13StorageClient11delete_file0B6_
FNDA:0,_RNCNvMNtCs9dCHYEAjrI1_16threadkit_common7storageNtB4_13StorageClient11upload_file0B6_
FNDA:0,_RNCNvMNtCs9dCHYEAjrI1_16threadkit_common7storageNtB4_13StorageClient3new0B6_
FNDA:0,_RNvMNtCs9dCHYEAjrI1_16threadkit_common7storageNtB2_13StorageClient11delete_file
FNDA:0,_RNvMNtCs9dCHYEAjrI1_16threadkit_common7storageNtB2_13StorageClient11upload_file
FNDA:0,_RNvMNtCs9dCHYEAjrI1_16threadkit_common7storageNtB2_13StorageClient3new
FNDA:0,_RNvNtCs9dCHYEAjrI1_16threadkit_common7storage17mime_to_extension
FNDA:0,_RNCNvMNtCsiekp5I1RHQt_16threadkit_common7storageNtB4_13StorageClient3new0Cs9KKNa6Ped6o_14threadkit_http
FNDA:0,_RNCNvMNtCsiekp5I1RHQt_16threadkit_common7storageNtB4_13StorageClient11delete_file0CskwAV7ptXVKm_14threadkit_http
FNDA:0,_RNCNvMNtCsiekp5I1RHQt_16threadkit_common7storageNtB4_13StorageClient11upload_file0CskwAV7ptXVKm_14threadkit_http
FNDA:0,_RNCNvMNtCsiekp5I1RHQt_16threadkit_common7storageNtB4_13StorageClient3new0CsiJNGSUnbjrr_15turnstile_tests
FNF:7
FNH:2
DA:18,1
DA:19,1
DA:20,1
DA:21,1
DA:22,1
DA:23,1
DA:27,1
DA:29,1
DA:30,1
DA:31,1
DA:32,1
DA:33,1
DA:34,1
DA:36,1
DA:37,1
DA:38,1
DA:40,1
DA:42,1
DA:43,1
DA:44,1
DA:45,1
DA:46,1
DA:47,1
DA:59,0
DA:60,0
DA:61,0
DA:62,0
DA:63,0
DA:64,0
DA:65,0
DA:66,0
DA:67,0
DA:69,0
DA:70,0
DA:71,0
DA:72,0
DA:73,0
DA:74,0
DA:75,0
DA:76,0
DA:77,0
DA:79,0
DA:80,0
DA:86,0
DA:88,0
DA:89,0
DA:90,0
DA:92,0
DA:93,0
DA:94,0
DA:95,0
DA:96,0
DA:97,0
DA:98,0
DA:100,0
DA:101,0
DA:105,0
DA:106,0
DA:108,0
DA:109,0
DA:110,0
DA:111,0
DA:112,0
DA:114,0
DA:115,0
DA:116,0
DA:118,0
DA:119,0
DA:120,0
DA:122,0
DA:124,0
BRF:0
BRH:0
LF:74
LH:24
end_of_record
SF:/Users/jt/code/threadkit/server/crates/common/src/types.rs
FN:374,_RNvMs0_NtCsiekp5I1RHQt_16threadkit_common5typesNtB5_8PageTree11total_count
FN:331,_RNvMs0_NtCsiekp5I1RHQt_16threadkit_common5typesNtB5_8PageTree12find_by_path
FN:326,_RNvMs0_NtCsiekp5I1RHQt_16threadkit_common5typesNtB5_8PageTree13find_root_mut
FN:344,_RNvMs0_NtCsiekp5I1RHQt_16threadkit_common5typesNtB5_8PageTree16find_by_path_mut
FN:392,_RNvMs0_NtCsiekp5I1RHQt_16threadkit_common5typesNtB5_8PageTree17flatten_recursive
FN:313,_RNvMs0_NtCsiekp5I1RHQt_16threadkit_common5typesNtB5_8PageTree3new
FN:384,_RNvMs0_NtCsiekp5I1RHQt_16threadkit_common5typesNtB5_8PageTree7flatten
FN:357,_RNvMs0_NtCsiekp5I1RHQt_16threadkit_common5typesNtB5_8PageTree8add_root
FN:363,_RNvMs0_NtCsiekp5I1RHQt_16threadkit_common5typesNtB5_8PageTree9add_reply
FN:321,_RNvMs0_NtCsiekp5I1RHQt_16threadkit_common5typesNtB5_8PageTree9find_root
FN:759,_RNvMs5_NtCsiekp5I1RHQt_16threadkit_common5typesNtB5_20ModerationCategories10is_blocked
FN:230,_RNvMs_NtCsiekp5I1RHQt_16threadkit_common5typesNtB4_11TreeComment10is_deleted
FN:286,_RNvMs_NtCsiekp5I1RHQt_16threadkit_common5typesNtB4_11TreeComment11reply_count
FN:246,_RNvMs_NtCsiekp5I1RHQt_16threadkit_common5typesNtB4_11TreeComment12find_by_path
FN:235,_RNvMs_NtCsiekp5I1RHQt_16threadkit_common5typesNtB4_11TreeComment12mark_deleted
FN:295,_RNvMs_NtCsiekp5I1RHQt_16threadkit_common5typesNtB4_11TreeComment16effective_status
FN:266,_RNvMs_NtCsiekp5I1RHQt_16threadkit_common5typesNtB4_11TreeComment16find_by_path_mut
FN:58,_RNvNtCsiekp5I1RHQt_16threadkit_common5types20default_username_set
FN:86,_RNvXNtCsiekp5I1RHQt_16threadkit_common5typesNtB2_10UserPublicINtNtCs85QQFkKrybG_4core7convert4FromNtB2_4UserE4from
FN:474,_RNvXs1_NtCsiekp5I1RHQt_16threadkit_common5typesNtB5_17TurnstileSettingsNtNtCs85QQFkKrybG_4core7default7Default7default
FN:512,_RNvXs2_NtCsiekp5I1RHQt_16threadkit_common5typesNtB5_25ContentModerationSettingsNtNtCs85QQFkKrybG_4core7default7Default7default
FN:535,_RNvXs3_NtCsiekp5I1RHQt_16threadkit_common5typesNtB5_17BlockedCategoriesNtNtCs85QQFkKrybG_4core7default7Default7default
FN:603,_RNvXs4_NtCsiekp5I1RHQt_16threadkit_common5typesNtB5_15DisplaySettingsNtNtCs85QQFkKrybG_4core7default7Default7default
FN:327,_RNCNvMs0_NtCsiekp5I1RHQt_16threadkit_common5typesNtB7_8PageTree13find_root_mut0B9_
FN:322,_RNCNvMs0_NtCsiekp5I1RHQt_16threadkit_common5typesNtB7_8PageTree9find_root0B9_
FN:327,_RNCNvMs0_NtCs9dCHYEAjrI1_16threadkit_common5typesNtB7_8PageTree13find_root_mut0B9_
FN:322,_RNCNvMs0_NtCs9dCHYEAjrI1_16threadkit_common5typesNtB7_8PageTree9find_root0B9_
FN:374,_RNvMs0_NtCs9dCHYEAjrI1_16threadkit_common5typesNtB5_8PageTree11total_count
FN:331,_RNvMs0_NtCs9dCHYEAjrI1_16threadkit_common5typesNtB5_8PageTree12find_by_path
FN:326,_RNvMs0_NtCs9dCHYEAjrI1_16threadkit_common5typesNtB5_8PageTree13find_root_mut
FN:344,_RNvMs0_NtCs9dCHYEAjrI1_16threadkit_common5typesNtB5_8PageTree16find_by_path_mut
FN:392,_RNvMs0_NtCs9dCHYEAjrI1_16threadkit_common5typesNtB5_8PageTree17flatten_recursive
FN:313,_RNvMs0_NtCs9dCHYEAjrI1_16threadkit_common5typesNtB5_8PageTree3new
FN:384,_RNvMs0_NtCs9dCHYEAjrI1_16threadkit_common5typesNtB5_8PageTree7flatten
FN:357,_RNvMs0_NtCs9dCHYEAjrI1_16threadkit_common5typesNtB5_8PageTree8add_root
FN:363,_RNvMs0_NtCs9dCHYEAjrI1_16threadkit_common5typesNtB5_8PageTree9add_reply
FN:321,_RNvMs0_NtCs9dCHYEAjrI1_16threadkit_common5typesNtB5_8PageTree9find_root
FN:230,_RNvMs_NtCs9dCHYEAjrI1_16threadkit_common5typesNtB4_11TreeComment10is_deleted
FN:286,_RNvMs_NtCs9dCHYEAjrI1_16threadkit_common5typesNtB4_11TreeComment11reply_count
FN:246,_RNvMs_NtCs9dCHYEAjrI1_16threadkit_common5typesNtB4_11TreeComment12find_by_path
FN:235,_RNvMs_NtCs9dCHYEAjrI1_16threadkit_common5typesNtB4_11TreeComment12mark_deleted
FN:295,_RNvMs_NtCs9dCHYEAjrI1_16threadkit_common5typesNtB4_11TreeComment16effective_status
FN:266,_RNvMs_NtCs9dCHYEAjrI1_16threadkit_common5typesNtB4_11TreeComment16find_by_path_mut
FN:58,_RNvNtCs9dCHYEAjrI1_16threadkit_common5types20default_username_set
FN:86,_RNvXNtCs9dCHYEAjrI1_16threadkit_common5typesNtB2_10UserPublicINtNtCs85QQFkKrybG_4core7convert4FromNtB2_4UserE4from
FN:474,_RNvXs1_NtCs9dCHYEAjrI1_16threadkit_common5typesNtB5_17TurnstileSettingsNtNtCs85QQFkKrybG_4core7default7Default7default
FN:512,_RNvXs2_NtCs9dCHYEAjrI1_16threadkit_common5typesNtB5_25ContentModerationSettingsNtNtCs85QQFkKrybG_4core7default7Default7default
FN:603,_RNvXs4_NtCs9dCHYEAjrI1_16threadkit_common5typesNtB5_15DisplaySettingsNtNtCs85QQFkKrybG_4core7default7Default7default
FN:759,_RNvMs5_NtCs9dCHYEAjrI1_16threadkit_common5typesNtB5_20ModerationCategories10is_blocked
FN:535,_RNvXs3_NtCs9dCHYEAjrI1_16threadkit_common5typesNtB5_17BlockedCategoriesNtNtCs85QQFkKrybG_4core7default7Default7default
FNDA:9,_RNvMs0_NtCsiekp5I1RHQt_16threadkit_common5typesNtB5_8PageTree11total_count
FNDA:28,_RNvMs0_NtCsiekp5I1RHQt_16threadkit_common5typesNtB5_8PageTree12find_by_path
FNDA:0,_RNvMs0_NtCsiekp5I1RHQt_16threadkit_common5typesNtB5_8PageTree13find_root_mut
FNDA:6,_RNvMs0_NtCsiekp5I1RHQt_16threadkit_common5typesNtB5_8PageTree16find_by_path_mut
FNDA:0,_RNvMs0_NtCsiekp5I1RHQt_16threadkit_common5typesNtB5_8PageTree17flatten_recursive
FNDA:39,_RNvMs0_NtCsiekp5I1RHQt_16threadkit_common5typesNtB5_8PageTree3new
FNDA:0,_RNvMs0_NtCsiekp5I1RHQt_16threadkit_common5typesNtB5_8PageTree7flatten
FNDA:44,_RNvMs0_NtCsiekp5I1RHQt_16threadkit_common5typesNtB5_8PageTree8add_root
FNDA:1,_RNvMs0_NtCsiekp5I1RHQt_16threadkit_common5typesNtB5_8PageTree9add_reply
FNDA:0,_RNvMs0_NtCsiekp5I1RHQt_16threadkit_common5typesNtB5_8PageTree9find_root
FNDA:0,_RNvMs5_NtCsiekp5I1RHQt_16threadkit_common5typesNtB5_20ModerationCategories10is_blocked
FNDA:0,_RNvMs_NtCsiekp5I1RHQt_16threadkit_common5typesNtB4_11TreeComment10is_deleted
FNDA:5,_RNvMs_NtCsiekp5I1RHQt_16threadkit_common5typesNtB4_11TreeComment11reply_count
FNDA:28,_RNvMs_NtCsiekp5I1RHQt_16threadkit_common5typesNtB4_11TreeComment12find_by_path
FNDA:1,_RNvMs_NtCsiekp5I1RHQt_16threadkit_common5typesNtB4_11TreeComment12mark_deleted
FNDA:7,_RNvMs_NtCsiekp5I1RHQt_16threadkit_common5typesNtB4_11TreeComment16effective_status
FNDA:6,_RNvMs_NtCsiekp5I1RHQt_16threadkit_common5typesNtB4_11TreeComment16find_by_path_mut
FNDA:0,_RNvNtCsiekp5I1RHQt_16threadkit_common5types20default_username_set
FNDA:116,_RNvXNtCsiekp5I1RHQt_16threadkit_common5typesNtB2_10UserPublicINtNtCs85QQFkKrybG_4core7convert4FromNtB2_4UserE4from
FNDA:86,_RNvXs1_NtCsiekp5I1RHQt_16threadkit_common5typesNtB5_17TurnstileSettingsNtNtCs85QQFkKrybG_4core7default7Default7default
FNDA:86,_RNvXs2_NtCsiekp5I1RHQt_16threadkit_common5typesNtB5_25ContentModerationSettingsNtNtCs85QQFkKrybG_4core7default7Default7default
FNDA:86,_RNvXs3_NtCsiekp5I1RHQt_16threadkit_common5typesNtB5_17BlockedCategoriesNtNtCs85QQFkKrybG_4core7default7Default7default
FNDA:86,_RNvXs4_NtCsiekp5I1RHQt_16threadkit_common5typesNtB5_15DisplaySettingsNtNtCs85QQFkKrybG_4core7default7Default7default
FNDA:0,_RNCNvMs0_NtCsiekp5I1RHQt_16threadkit_common5typesNtB7_8PageTree13find_root_mut0B9_
FNDA:0,_RNCNvMs0_NtCsiekp5I1RHQt_16threadkit_common5typesNtB7_8PageTree9find_root0B9_
FNDA:0,_RNCNvMs0_NtCs9dCHYEAjrI1_16threadkit_common5typesNtB7_8PageTree13find_root_mut0B9_
FNDA:0,_RNCNvMs0_NtCs9dCHYEAjrI1_16threadkit_common5typesNtB7_8PageTree9find_root0B9_
FNDA:0,_RNvMs0_NtCs9dCHYEAjrI1_16threadkit_common5typesNtB5_8PageTree11total_count
FNDA:0,_RNvMs0_NtCs9dCHYEAjrI1_16threadkit_common5typesNtB5_8PageTree12find_by_path
FNDA:0,_RNvMs0_NtCs9dCHYEAjrI1_16threadkit_common5typesNtB5_8PageTree13find_root_mut
FNDA:0,_RNvMs0_NtCs9dCHYEAjrI1_16threadkit_common5typesNtB5_8PageTree16find_by_path_mut
FNDA:0,_RNvMs0_NtCs9dCHYEAjrI1_16threadkit_common5typesNtB5_8PageTree17flatten_recursive
FNDA:0,_RNvMs0_NtCs9dCHYEAjrI1_16threadkit_common5typesNtB5_8PageTree3new
FNDA:0,_RNvMs0_NtCs9dCHYEAjrI1_16threadkit_common5typesNtB5_8PageTree7flatten
FNDA:0,_RNvMs0_NtCs9dCHYEAjrI1_16threadkit_common5typesNtB5_8PageTree8add_root
FNDA:0,_RNvMs0_NtCs9dCHYEAjrI1_16threadkit_common5typesNtB5_8PageTree9add_reply
FNDA:0,_RNvMs0_NtCs9dCHYEAjrI1_16threadkit_common5typesNtB5_8PageTree9find_root
FNDA:0,_RNvMs_NtCs9dCHYEAjrI1_16threadkit_common5typesNtB4_11TreeComment10is_deleted
FNDA:0,_RNvMs_NtCs9dCHYEAjrI1_16threadkit_common5typesNtB4_11TreeComment11reply_count
FNDA:0,_RNvMs_NtCs9dCHYEAjrI1_16threadkit_common5typesNtB4_11TreeComment12find_by_path
FNDA:0,_RNvMs_NtCs9dCHYEAjrI1_16threadkit_common5typesNtB4_11TreeComment12mark_deleted
FNDA:0,_RNvMs_NtCs9dCHYEAjrI1_16threadkit_common5typesNtB4_11TreeComment16effective_status
FNDA:0,_RNvMs_NtCs9dCHYEAjrI1_16threadkit_common5typesNtB4_11TreeComment16find_by_path_mut
FNDA:0,_RNvNtCs9dCHYEAjrI1_16threadkit_common5types20default_username_set
FNDA:0,_RNvXNtCs9dCHYEAjrI1_16threadkit_common5typesNtB2_10UserPublicINtNtCs85QQFkKrybG_4core7convert4FromNtB2_4UserE4from
FNDA:0,_RNvXs1_NtCs9dCHYEAjrI1_16threadkit_common5typesNtB5_17TurnstileSettingsNtNtCs85QQFkKrybG_4core7default7Default7default
FNDA:0,_RNvXs2_NtCs9dCHYEAjrI1_16threadkit_common5typesNtB5_25ContentModerationSettingsNtNtCs85QQFkKrybG_4core7default7Default7default
FNDA:0,_RNvXs4_NtCs9dCHYEAjrI1_16threadkit_common5typesNtB5_15DisplaySettingsNtNtCs85QQFkKrybG_4core7default7Default7default
FNDA:3,_RNvMs5_NtCs9dCHYEAjrI1_16threadkit_common5typesNtB5_20ModerationCategories10is_blocked
FNDA:3,_RNvXs3_NtCs9dCHYEAjrI1_16threadkit_common5typesNtB5_17BlockedCategoriesNtNtCs85QQFkKrybG_4core7default7Default7default
FNF:25
FNH:17
DA:58,0
DA:59,0
DA:60,0
DA:86,116
DA:88,116
DA:89,116
DA:90,116
DA:91,116
DA:92,116
DA:93,116
DA:94,116
DA:95,116
DA:96,116
DA:99,116
DA:100,116
DA:101,116
DA:102,116
DA:103,116
DA:104,116
DA:105,116
DA:107,116
DA:230,0
DA:231,0
DA:232,0
DA:235,1
DA:236,1
DA:237,1
DA:238,1
DA:239,1
DA:240,1
DA:241,1
DA:242,1
DA:243,1
DA:246,28
DA:247,28
DA:248,0
DA:249,28
DA:250,28
DA:251,0
DA:252,28
DA:253,28
DA:254,28
DA:255,0
DA:257,0
DA:258,0
DA:259,0
DA:260,0
DA:262,0
DA:263,28
DA:266,6
DA:267,6
DA:268,0
DA:269,6
DA:270,6
DA:271,0
DA:272,6
DA:273,6
DA:274,6
DA:275,0
DA:277,0
DA:278,0
DA:279,0
DA:280,0
DA:282,0
DA:283,6
DA:286,5
DA:287,5
DA:288,5
DA:289,0
DA:290,0
DA:291,5
DA:292,5
DA:295,7
DA:296,7
DA:297,7
DA:313,39
DA:314,39
DA:315,39
DA:316,39
DA:317,39
DA:318,39
DA:321,0
DA:322,0
DA:323,0
DA:326,0
DA:327,0
DA:328,0
DA:331,28
DA:332,28
DA:333,0
DA:334,28
DA:335,28
DA:336,28
DA:337,28
DA:338,0
DA:340,0
DA:341,28
DA:344,6
DA:345,6
DA:346,0
DA:347,6
DA:348,6
DA:349,6
DA:350,6
DA:351,0
DA:353,0
DA:354,6
DA:357,44
DA:358,44
DA:359,44
DA:360,44
DA:363,1
DA:364,1
DA:365,1
DA:366,1
DA:367,1
DA:369,0
DA:371,1
DA:374,9
DA:375,9
DA:376,14
DA:377,5
DA:378,5
DA:379,9
DA:380,9
DA:384,0
DA:385,0
DA:386,0
DA:387,0
DA:388,0
DA:389,0
DA:390,0
DA:392,0
DA:393,0
DA:394,0
DA:395,0
DA:396,0
DA:397,0
DA:398,0
DA:399,0
DA:400,0
DA:401,0
DA:402,0
DA:403,0
DA:404,0
DA:405,0
DA:406,0
DA:407,0
DA:474,86
DA:475,86
DA:476,86
DA:477,86
DA:478,86
DA:479,86
DA:480,86
DA:512,86
DA:513,86
DA:514,86
DA:515,86
DA:516,86
DA:517,86
DA:518,86
DA:519,86
DA:535,89
DA:536,89
DA:537,89
DA:538,89
DA:539,89
DA:540,89
DA:541,89
DA:542,89
DA:543,89
DA:544,89
DA:545,89
DA:603,86
DA:604,86
DA:605,86
DA:606,86
DA:607,86
DA:608,86
DA:609,86
DA:759,3
DA:760,3
DA:761,1
DA:762,2
DA:763,2
DA:764,0
DA:765,2
DA:766,2
DA:767,0
DA:768,2
DA:769,2
DA:770,0
DA:771,2
DA:772,2
DA:773,0
DA:774,2
DA:775,2
DA:776,0
DA:777,2
DA:778,2
DA:779,0
DA:780,2
DA:781,2
DA:782,3
BRF:0
BRH:0
LF:207
LH:139
end_of_record
SF:/Users/jt/code/threadkit/server/crates/common/src/username.rs
FN:54,_RNvNtCsiekp5I1RHQt_16threadkit_common8username17validate_username
FN:17,_RNvNtCsiekp5I1RHQt_16threadkit_common8username18normalize_username
FN:130,_RNvNtNtCs9dCHYEAjrI1_16threadkit_common8username5testss_22test_validate_username
FN:109,_RNvNtNtCs9dCHYEAjrI1_16threadkit_common8username5testss_23test_normalize_username
FN:54,_RNvNtCs9dCHYEAjrI1_16threadkit_common8username17validate_username
FN:17,_RNvNtCs9dCHYEAjrI1_16threadkit_common8username18normalize_username
FNDA:0,_RNvNtCsiekp5I1RHQt_16threadkit_common8username17validate_username
FNDA:0,_RNvNtCsiekp5I1RHQt_16threadkit_common8username18normalize_username
FNDA:1,_RNvNtNtCs9dCHYEAjrI1_16threadkit_common8username5testss_22test_validate_username
FNDA:1,_RNvNtNtCs9dCHYEAjrI1_16threadkit_common8username5testss_23test_normalize_username
FNDA:15,_RNvNtCs9dCHYEAjrI1_16threadkit_common8username17validate_username
FNDA:10,_RNvNtCs9dCHYEAjrI1_16threadkit_common8username18normalize_username
FNF:4
FNH:4
DA:17,10
DA:18,10
DA:19,10
DA:21,98
DA:22,98
DA:23,81
DA:24,81
DA:25,81
DA:27,13
DA:28,6
DA:29,6
DA:30,7
DA:31,4
DA:36,12
DA:37,2
DA:38,2
DA:41,10
DA:42,0
DA:44,0
DA:45,0
DA:46,0
DA:47,10
DA:49,10
DA:50,10
DA:54,15
DA:55,15
DA:56,1
DA:57,14
DA:59,14
DA:60,0
DA:61,14
DA:63,14
DA:64,0
DA:65,14
DA:68,14
DA:69,3
DA:70,11
DA:73,65
DA:74,65
DA:75,2
DA:76,63
DA:80,9
DA:81,9
DA:83,9
DA:84,1
DA:85,8
DA:87,8
DA:88,1
DA:89,7
DA:92,7
DA:93,40
DA:94,40
DA:95,40
DA:96,1
DA:97,39
DA:98,39
DA:101,6
DA:102,15
DA:109,1
DA:111,1
DA:112,1
DA:113,1
DA:116,1
DA:117,1
DA:118,1
DA:121,1
DA:122,1
DA:125,1
DA:126,1
DA:127,1
DA:130,1
DA:132,1
DA:133,1
DA:134,1
DA:135,1
DA:136,1
DA:137,1
DA:140,1
DA:141,1
DA:142,1
DA:143,1
DA:144,1
DA:145,1
DA:148,1
DA:149,1
DA:150,1
DA:151,1
BRF:0
BRH:0
LF:87
LH:81
end_of_record
SF:/Users/jt/code/threadkit/server/crates/common/src/web3.rs
FN:11,_RNCNvNtCsiekp5I1RHQt_16threadkit_common4web314generate_nonce0B5_
FN:28,_RNCNvNtCsiekp5I1RHQt_16threadkit_common4web323validate_solana_address0B5_
FN:177,_RNCNvNtCsiekp5I1RHQt_16threadkit_common4web323verify_solana_signature0B5_
FN:184,_RNCNvNtCsiekp5I1RHQt_16threadkit_common4web323verify_solana_signatures0_0B5_
FN:189,_RNCNvNtCsiekp5I1RHQt_16threadkit_common4web323verify_solana_signatures1_0B5_
FN:193,_RNCNvNtCsiekp5I1RHQt_16threadkit_common4web323verify_solana_signatures2_0B5_
FN:181,_RNCNvNtCsiekp5I1RHQt_16threadkit_common4web323verify_solana_signatures_0B5_
FN:18,_RNCNvNtCsiekp5I1RHQt_16threadkit_common4web325validate_ethereum_address0B5_
FN:126,_RNCNvNtCsiekp5I1RHQt_16threadkit_common4web325verify_ethereum_signature0B5_
FN:138,_RNCNvNtCsiekp5I1RHQt_16threadkit_common4web325verify_ethereum_signatures0_0B5_
FN:160,_RNCNvNtCsiekp5I1RHQt_16threadkit_common4web325verify_ethereum_signatures1_0B5_
FN:165,_RNCNvNtCsiekp5I1RHQt_16threadkit_common4web325verify_ethereum_signatures2_0B5_
FN:135,_RNCNvNtCsiekp5I1RHQt_16threadkit_common4web325verify_ethereum_signatures_0B5_
FN:8,_RNvNtCsiekp5I1RHQt_16threadkit_common4web314generate_nonce
FN:202,_RNvNtCsiekp5I1RHQt_16threadkit_common4web316truncate_address
FN:104,_RNvNtCsiekp5I1RHQt_16threadkit_common4web321generate_solana_nonce
FN:88,_RNvNtCsiekp5I1RHQt_16threadkit_common4web323generate_ethereum_nonce
FN:25,_RNvNtCsiekp5I1RHQt_16threadkit_common4web323validate_solana_address
FN:171,_RNvNtCsiekp5I1RHQt_16threadkit_common4web323verify_solana_signature
FN:16,_RNvNtCsiekp5I1RHQt_16threadkit_common4web325validate_ethereum_address
FN:120,_RNvNtCsiekp5I1RHQt_16threadkit_common4web325verify_ethereum_signature
FN:60,_RNvNtCsiekp5I1RHQt_16threadkit_common4web329construct_solana_sign_message
FN:37,_RNvNtCsiekp5I1RHQt_16threadkit_common4web331construct_ethereum_sign_message
FN:242,_RNCNvNtNtCs9dCHYEAjrI1_16threadkit_common4web35testss_19test_generate_nonce0B7_
FN:11,_RNCNvNtCs9dCHYEAjrI1_16threadkit_common4web314generate_nonce0B5_
FN:28,_RNCNvNtCs9dCHYEAjrI1_16threadkit_common4web323validate_solana_address0B5_
FN:18,_RNCNvNtCs9dCHYEAjrI1_16threadkit_common4web325validate_ethereum_address0B5_
FN:8,_RNvNtCs9dCHYEAjrI1_16threadkit_common4web314generate_nonce
FN:202,_RNvNtCs9dCHYEAjrI1_16threadkit_common4web316truncate_address
FN:25,_RNvNtCs9dCHYEAjrI1_16threadkit_common4web323validate_solana_address
FN:16,_RNvNtCs9dCHYEAjrI1_16threadkit_common4web325validate_ethereum_address
FN:239,_RNvNtNtCs9dCHYEAjrI1_16threadkit_common4web35testss_19test_generate_nonce
FN:246,_RNvNtNtCs9dCHYEAjrI1_16threadkit_common4web35testss_21test_truncate_address
FN:230,_RNvNtNtCs9dCHYEAjrI1_16threadkit_common4web35testss_28test_validate_solana_address
FN:218,_RNvNtNtCs9dCHYEAjrI1_16threadkit_common4web35testss_30test_validate_ethereum_address
FN:177,_RNCNvNtCs9dCHYEAjrI1_16threadkit_common4web323verify_solana_signature0B5_
FN:184,_RNCNvNtCs9dCHYEAjrI1_16threadkit_common4web323verify_solana_signatures0_0B5_
FN:189,_RNCNvNtCs9dCHYEAjrI1_16threadkit_common4web323verify_solana_signatures1_0B5_
FN:193,_RNCNvNtCs9dCHYEAjrI1_16threadkit_common4web323verify_solana_signatures2_0B5_
FN:181,_RNCNvNtCs9dCHYEAjrI1_16threadkit_common4web323verify_solana_signatures_0B5_
FN:126,_RNCNvNtCs9dCHYEAjrI1_16threadkit_common4web325verify_ethereum_signature0B5_
FN:138,_RNCNvNtCs9dCHYEAjrI1_16threadkit_common4web325verify_ethereum_signatures0_0B5_
FN:160,_RNCNvNtCs9dCHYEAjrI1_16threadkit_common4web325verify_ethereum_signatures1_0B5_
FN:165,_RNCNvNtCs9dCHYEAjrI1_16threadkit_common4web325verify_ethereum_signatures2_0B5_
FN:135,_RNCNvNtCs9dCHYEAjrI1_16threadkit_common4web325verify_ethereum_signatures_0B5_
FN:104,_RNvNtCs9dCHYEAjrI1_16threadkit_common4web321generate_solana_nonce
FN:88,_RNvNtCs9dCHYEAjrI1_16threadkit_common4web323generate_ethereum_nonce
FN:171,_RNvNtCs9dCHYEAjrI1_16threadkit_common4web323verify_solana_signature
FN:120,_RNvNtCs9dCHYEAjrI1_16threadkit_common4web325verify_ethereum_signature
FN:60,_RNvNtCs9dCHYEAjrI1_16threadkit_common4web329construct_solana_sign_message
FN:37,_RNvNtCs9dCHYEAjrI1_16threadkit_common4web331construct_ethereum_sign_message
FNDA:0,_RNCNvNtCsiekp5I1RHQt_16threadkit_common4web314generate_nonce0B5_
FNDA:0,_RNCNvNtCsiekp5I1RHQt_16threadkit_common4web323validate_solana_address0B5_
FNDA:0,_RNCNvNtCsiekp5I1RHQt_16threadkit_common4web323verify_solana_signature0B5_
FNDA:0,_RNCNvNtCsiekp5I1RHQt_16threadkit_common4web323verify_solana_signatures0_0B5_
FNDA:0,_RNCNvNtCsiekp5I1RHQt_16threadkit_common4web323verify_solana_signatures1_0B5_
FNDA:0,_RNCNvNtCsiekp5I1RHQt_16threadkit_common4web323verify_solana_signatures2_0B5_
FNDA:0,_RNCNvNtCsiekp5I1RHQt_16threadkit_common4web323verify_solana_signatures_0B5_
FNDA:0,_RNCNvNtCsiekp5I1RHQt_16threadkit_common4web325validate_ethereum_address0B5_
FNDA:0,_RNCNvNtCsiekp5I1RHQt_16threadkit_common4web325verify_ethereum_signature0B5_
FNDA:0,_RNCNvNtCsiekp5I1RHQt_16threadkit_common4web325verify_ethereum_signatures0_0B5_
FNDA:0,_RNCNvNtCsiekp5I1RHQt_16threadkit_common4web325verify_ethereum_signatures1_0B5_
FNDA:0,_RNCNvNtCsiekp5I1RHQt_16threadkit_common4web325verify_ethereum_signatures2_0B5_
FNDA:0,_RNCNvNtCsiekp5I1RHQt_16threadkit_common4web325verify_ethereum_signatures_0B5_
FNDA:0,_RNvNtCsiekp5I1RHQt_16threadkit_common4web314generate_nonce
FNDA:0,_RNvNtCsiekp5I1RHQt_16threadkit_common4web316truncate_address
FNDA:0,_RNvNtCsiekp5I1RHQt_16threadkit_common4web321generate_solana_nonce
FNDA:0,_RNvNtCsiekp5I1RHQt_16threadkit_common4web323generate_ethereum_nonce
FNDA:0,_RNvNtCsiekp5I1RHQt_16threadkit_common4web323validate_solana_address
FNDA:0,_RNvNtCsiekp5I1RHQt_16threadkit_common4web323verify_solana_signature
FNDA:0,_RNvNtCsiekp5I1RHQt_16threadkit_common4web325validate_ethereum_address
FNDA:0,_RNvNtCsiekp5I1RHQt_16threadkit_common4web325verify_ethereum_signature
FNDA:0,_RNvNtCsiekp5I1RHQt_16threadkit_common4web329construct_solana_sign_message
FNDA:0,_RNvNtCsiekp5I1RHQt_16threadkit_common4web331construct_ethereum_sign_message
FNDA:32,_RNCNvNtNtCs9dCHYEAjrI1_16threadkit_common4web35testss_19test_generate_nonce0B7_
FNDA:32,_RNCNvNtCs9dCHYEAjrI1_16threadkit_common4web314generate_nonce0B5_
FNDA:1,_RNCNvNtCs9dCHYEAjrI1_16threadkit_common4web323validate_solana_address0B5_
FNDA:80,_RNCNvNtCs9dCHYEAjrI1_16threadkit_common4web325validate_ethereum_address0B5_
FNDA:1,_RNvNtCs9dCHYEAjrI1_16threadkit_common4web314generate_nonce
FNDA:2,_RNvNtCs9dCHYEAjrI1_16threadkit_common4web316truncate_address
FNDA:2,_RNvNtCs9dCHYEAjrI1_16threadkit_common4web323validate_solana_address
FNDA:5,_RNvNtCs9dCHYEAjrI1_16threadkit_common4web325validate_ethereum_address
FNDA:1,_RNvNtNtCs9dCHYEAjrI1_16threadkit_common4web35testss_19test_generate_nonce
FNDA:1,_RNvNtNtCs9dCHYEAjrI1_16threadkit_common4web35testss_21test_truncate_address
FNDA:1,_RNvNtNtCs9dCHYEAjrI1_16threadkit_common4web35testss_28test_validate_solana_address
FNDA:1,_RNvNtNtCs9dCHYEAjrI1_16threadkit_common4web35testss_30test_validate_ethereum_address
FNDA:0,_RNCNvNtCs9dCHYEAjrI1_16threadkit_common4web323verify_solana_signature0B5_
FNDA:0,_RNCNvNtCs9dCHYEAjrI1_16threadkit_common4web323verify_solana_signatures0_0B5_
FNDA:0,_RNCNvNtCs9dCHYEAjrI1_16threadkit_common4web323verify_solana_signatures1_0B5_
FNDA:0,_RNCNvNtCs9dCHYEAjrI1_16threadkit_common4web323verify_solana_signatures2_0B5_
FNDA:0,_RNCNvNtCs9dCHYEAjrI1_16threadkit_common4web323verify_solana_signatures_0B5_
FNDA:0,_RNCNvNtCs9dCHYEAjrI1_16threadkit_common4web325verify_ethereum_signature0B5_
FNDA:0,_RNCNvNtCs9dCHYEAjrI1_16threadkit_common4web325verify_ethereum_signatures0_0B5_
FNDA:0,_RNCNvNtCs9dCHYEAjrI1_16threadkit_common4web325verify_ethereum_signatures1_0B5_
FNDA:0,_RNCNvNtCs9dCHYEAjrI1_16threadkit_common4web325verify_ethereum_signatures2_0B5_
FNDA:0,_RNCNvNtCs9dCHYEAjrI1_16threadkit_common4web325verify_ethereum_signatures_0B5_
FNDA:0,_RNvNtCs9dCHYEAjrI1_16threadkit_common4web321generate_solana_nonce
FNDA:0,_RNvNtCs9dCHYEAjrI1_16threadkit_common4web323generate_ethereum_nonce
FNDA:0,_RNvNtCs9dCHYEAjrI1_16threadkit_common4web323verify_solana_signature
FNDA:0,_RNvNtCs9dCHYEAjrI1_16threadkit_common4web325verify_ethereum_signature
FNDA:0,_RNvNtCs9dCHYEAjrI1_16threadkit_common4web329construct_solana_sign_message
FNDA:0,_RNvNtCs9dCHYEAjrI1_16threadkit_common4web331construct_ethereum_sign_message
FNF:28
FNH:12
DA:8,1
DA:9,1
DA:10,1
DA:11,32
DA:12,1
DA:13,1
DA:16,5
DA:17,5
DA:18,80
DA:19,3
DA:20,2
DA:21,2
DA:22,5
DA:25,2
DA:26,2
DA:27,2
DA:28,2
DA:30,1
DA:31,0
DA:32,1
DA:33,1
DA:34,2
DA:37,0
DA:38,0
DA:39,0
DA:40,0
DA:41,0
DA:42,0
DA:43,0
DA:44,0
DA:45,0
DA:46,0
DA:47,0
DA:48,0
DA:49,0
DA:50,0
DA:51,0
DA:54,0
DA:55,0
DA:57,0
DA:60,0
DA:61,0
DA:62,0
DA:63,0
DA:64,0
DA:65,0
DA:66,0
DA:67,0
DA:68,0
DA:69,0
DA:70,0
DA:71,0
DA:74,0
DA:75,0
DA:77,0
DA:88,0
DA:89,0
DA:90,0
DA:91,0
DA:92,0
DA:93,0
DA:95,0
DA:96,0
DA:97,0
DA:98,0
DA:99,0
DA:100,0
DA:101,0
DA:104,0
DA:105,0
DA:106,0
DA:107,0
DA:108,0
DA:109,0
DA:111,0
DA:112,0
DA:113,0
DA:114,0
DA:115,0
DA:116,0
DA:117,0
DA:120,0
DA:124,0
DA:125,0
DA:126,0
DA:128,0
DA:129,0
DA:130,0
DA:133,0
DA:134,0
DA:135,0
DA:136,0
DA:137,0
DA:138,0
DA:141,0
DA:142,0
DA:143,0
DA:144,0
DA:147,0
DA:148,0
DA:149,0
DA:150,0
DA:154,0
DA:155,0
DA:158,0
DA:159,0
DA:160,0
DA:163,0
DA:164,0
DA:165,0
DA:167,0
DA:168,0
DA:171,0
DA:175,0
DA:176,0
DA:177,0
DA:179,0
DA:180,0
DA:181,0
DA:183,0
DA:184,0
DA:187,0
DA:188,0
DA:189,0
DA:191,0
DA:192,0
DA:193,0
DA:195,0
DA:198,0
DA:199,0
DA:202,2
DA:203,2
DA:204,0
DA:205,2
DA:206,2
DA:207,2
DA:208,2
DA:209,2
DA:211,2
DA:218,1
DA:220,1
DA:221,1
DA:222,1
DA:225,1
DA:226,1
DA:227,1
DA:230,1
DA:232,1
DA:235,1
DA:236,1
DA:239,1
DA:240,1
DA:241,1
DA:242,32
DA:243,1
DA:246,1
DA:247,1
DA:248,1
DA:250,1
DA:251,1
DA:252,1
BRF:0
BRH:0
LF:175
LH:55
end_of_record
SF:/Users/jt/code/threadkit/server/crates/http/src/bin/openapi.rs
FN:7,_RNvCscdGcOpPZwgk_7openapi4main
FN:7,_RNvCs7F1CFwFAyJS_7openapi4main
FNDA:0,_RNvCscdGcOpPZwgk_7openapi4main
FNDA:0,_RNvCs7F1CFwFAyJS_7openapi4main
FNF:1
FNH:0
DA:7,0
DA:8,0
DA:9,0
DA:10,0
BRF:0
BRH:0
LF:4
LH:0
end_of_record
SF:/Users/jt/code/threadkit/server/crates/http/src/extractors.rs
FN:285,_RNvMs1_NtCsaszyX3GTrYE_14threadkit_http10extractorsNtB5_16AuthUserWithRole13require_admin
FN:277,_RNvMs1_NtCsaszyX3GTrYE_14threadkit_http10extractorsNtB5_16AuthUserWithRole17require_moderator
FN:293,_RNvMs1_NtCsaszyX3GTrYE_14threadkit_http10extractorsNtB5_16AuthUserWithRole20require_username_set
FN:350,_RNvMs3_NtCsaszyX3GTrYE_14threadkit_http10extractorsNtB5_21MaybeAuthUserWithRole16is_authenticated
FN:354,_RNvMs3_NtCsaszyX3GTrYE_14threadkit_http10extractorsNtB5_21MaybeAuthUserWithRole20require_username_set
FN:169,_RNvNtCsaszyX3GTrYE_14threadkit_http10extractors15validate_origin
FN:36,_RNvNtCsaszyX3GTrYE_14threadkit_http10extractors17is_origin_allowed
FN:15,_RNvNtCsaszyX3GTrYE_14threadkit_http10extractors22extract_request_origin
FN:92,_RNCNCNvXNtCsaszyX3GTrYE_14threadkit_http10extractorsNtB6_9ProjectIdINtNtCslj7euEoKKLr_9axum_core7extract16FromRequestPartsNtNtB8_5state8AppStateE18from_request_parts00B8_
FN:142,_RNCNCNvXNtCsaszyX3GTrYE_14threadkit_http10extractorsNtB6_9ProjectIdINtNtCslj7euEoKKLr_9axum_core7extract16FromRequestPartsNtNtB8_5state8AppStateE18from_request_parts0s0_0B8_
FN:118,_RNCNCNvXNtCsaszyX3GTrYE_14threadkit_http10extractorsNtB6_9ProjectIdINtNtCslj7euEoKKLr_9axum_core7extract16FromRequestPartsNtNtB8_5state8AppStateE18from_request_parts0s_0B8_
FN:317,_RNCNCNvXs2_NtCsaszyX3GTrYE_14threadkit_http10extractorsNtB9_16AuthUserWithRoleINtNtCslj7euEoKKLr_9axum_core7extract16FromRequestPartsNtNtBb_5state8AppStateE18from_request_parts00Bb_
FN:328,_RNCNCNvXs2_NtCsaszyX3GTrYE_14threadkit_http10extractorsNtB9_16AuthUserWithRoleINtNtCslj7euEoKKLr_9axum_core7extract16FromRequestPartsNtNtBb_5state8AppStateE18from_request_parts0s_0Bb_
FN:221,_RNCNCNvXs_NtCsaszyX3GTrYE_14threadkit_http10extractorsNtB8_8AuthUserINtNtCslj7euEoKKLr_9axum_core7extract16FromRequestPartsNtNtBa_5state8AppStateE18from_request_parts00Ba_
FN:236,_RNCNCNvXs_NtCsaszyX3GTrYE_14threadkit_http10extractorsNtB8_8AuthUserINtNtCslj7euEoKKLr_9axum_core7extract16FromRequestPartsNtNtBa_5state8AppStateE18from_request_parts0s0_0Ba_
FN:229,_RNCNCNvXs_NtCsaszyX3GTrYE_14threadkit_http10extractorsNtB8_8AuthUserINtNtCslj7euEoKKLr_9axum_core7extract16FromRequestPartsNtNtBa_5state8AppStateE18from_request_parts0s_0Ba_
FN:17,_RNCNvNtCsaszyX3GTrYE_14threadkit_http10extractors22extract_request_origin0B5_
FN:25,_RNCNvNtCsaszyX3GTrYE_14threadkit_http10extractors22extract_request_origins0_0B5_
FN:27,_RNCNvNtCsaszyX3GTrYE_14threadkit_http10extractors22extract_request_origins1_0B5_
FN:20,_RNCNvNtCsaszyX3GTrYE_14threadkit_http10extractors22extract_request_origins_0B5_
FN:86,_RNCNvXNtCsaszyX3GTrYE_14threadkit_http10extractorsNtB4_9ProjectIdINtNtCslj7euEoKKLr_9axum_core7extract16FromRequestPartsNtNtB6_5state8AppStateE18from_request_parts0B6_
FN:260,_RNCNvXs0_NtCsaszyX3GTrYE_14threadkit_http10extractorsNtB7_13MaybeAuthUserINtNtCslj7euEoKKLr_9axum_core7extract16FromRequestPartsNtNtB9_5state8AppStateE18from_request_parts0B9_
FN:309,_RNCNvXs2_NtCsaszyX3GTrYE_14threadkit_http10extractorsNtB7_16AuthUserWithRoleINtNtCslj7euEoKKLr_9axum_core7extract16FromRequestPartsNtNtB9_5state8AppStateE18from_request_parts0B9_
FN:374,_RNCNvXs4_NtCsaszyX3GTrYE_14threadkit_http10extractorsNtB7_21MaybeAuthUserWithRoleINtNtCslj7euEoKKLr_9axum_core7extract16FromRequestPartsNtNtB9_5state8AppStateE18from_request_parts0B9_
FN:411,_RNCNvXs5_NtCsaszyX3GTrYE_14threadkit_http10extractorsNtB7_11OwnerAccessINtNtCslj7euEoKKLr_9axum_core7extract16FromRequestPartsNtNtB9_5state8AppStateE18from_request_parts0B9_
FN:215,_RNCNvXs_NtCsaszyX3GTrYE_14threadkit_http10extractorsNtB6_8AuthUserINtNtCslj7euEoKKLr_9axum_core7extract16FromRequestPartsNtNtB8_5state8AppStateE18from_request_parts0B8_
FN:86,_RNvXNtCsaszyX3GTrYE_14threadkit_http10extractorsNtB2_9ProjectIdINtNtCslj7euEoKKLr_9axum_core7extract16FromRequestPartsNtNtB4_5state8AppStateE18from_request_partsB4_
FN:260,_RNvXs0_NtCsaszyX3GTrYE_14threadkit_http10extractorsNtB5_13MaybeAuthUserINtNtCslj7euEoKKLr_9axum_core7extract16FromRequestPartsNtNtB7_5state8AppStateE18from_request_partsB7_
FN:309,_RNvXs2_NtCsaszyX3GTrYE_14threadkit_http10extractorsNtB5_16AuthUserWithRoleINtNtCslj7euEoKKLr_9axum_core7extract16FromRequestPartsNtNtB7_5state8AppStateE18from_request_partsB7_
FN:374,_RNvXs4_NtCsaszyX3GTrYE_14threadkit_http10extractorsNtB5_21MaybeAuthUserWithRoleINtNtCslj7euEoKKLr_9axum_core7extract16FromRequestPartsNtNtB7_5state8AppStateE18from_request_partsB7_
FN:411,_RNvXs5_NtCsaszyX3GTrYE_14threadkit_http10extractorsNtB5_11OwnerAccessINtNtCslj7euEoKKLr_9axum_core7extract16FromRequestPartsNtNtB7_5state8AppStateE18from_request_partsB7_
FN:215,_RNvXs_NtCsaszyX3GTrYE_14threadkit_http10extractorsNtB4_8AuthUserINtNtCslj7euEoKKLr_9axum_core7extract16FromRequestPartsNtNtB6_5state8AppStateE18from_request_partsB6_
FN:92,_RNCNCNvXININtCskwAV7ptXVKm_14threadkit_http10extractors0pENtB9_9ProjectIdINtNtCslj7euEoKKLr_9axum_core7extract16FromRequestPartspE18from_request_parts00Bb_
FN:142,_RNCNCNvXININtCskwAV7ptXVKm_14threadkit_http10extractors0pENtB9_9ProjectIdINtNtCslj7euEoKKLr_9axum_core7extract16FromRequestPartspE18from_request_parts0s0_0Bb_
FN:118,_RNCNCNvXININtCskwAV7ptXVKm_14threadkit_http10extractors0pENtB9_9ProjectIdINtNtCslj7euEoKKLr_9axum_core7extract16FromRequestPartspE18from_request_parts0s_0Bb_
FN:317,_RNCNCNvXININtCskwAV7ptXVKm_14threadkit_http10extractorss2_0pENtB9_16AuthUserWithRoleINtNtCslj7euEoKKLr_9axum_core7extract16FromRequestPartspE18from_request_parts00Bb_
FN:328,_RNCNCNvXININtCskwAV7ptXVKm_14threadkit_http10extractorss2_0pENtB9_16AuthUserWithRoleINtNtCslj7euEoKKLr_9axum_core7extract16FromRequestPartspE18from_request_parts0s_0Bb_
FN:221,_RNCNCNvXININtCskwAV7ptXVKm_14threadkit_http10extractorss_0pENtB9_8AuthUserINtNtCslj7euEoKKLr_9axum_core7extract16FromRequestPartspE18from_request_parts00Bb_
FN:236,_RNCNCNvXININtCskwAV7ptXVKm_14threadkit_http10extractorss_0pENtB9_8AuthUserINtNtCslj7euEoKKLr_9axum_core7extract16FromRequestPartspE18from_request_parts0s0_0Bb_
FN:229,_RNCNCNvXININtCskwAV7ptXVKm_14threadkit_http10extractorss_0pENtB9_8AuthUserINtNtCslj7euEoKKLr_9axum_core7extract16FromRequestPartspE18from_request_parts0s_0Bb_
FN:86,_RNCNvXININtCskwAV7ptXVKm_14threadkit_http10extractors0pENtB7_9ProjectIdINtNtCslj7euEoKKLr_9axum_core7extract16FromRequestPartspE18from_request_parts0B9_
FN:260,_RNCNvXININtCskwAV7ptXVKm_14threadkit_http10extractorss0_0pENtB7_13MaybeAuthUserINtNtCslj7euEoKKLr_9axum_core7extract16FromRequestPartspE18from_request_parts0B9_
FN:309,_RNCNvXININtCskwAV7ptXVKm_14threadkit_http10extractorss2_0pENtB7_16AuthUserWithRoleINtNtCslj7euEoKKLr_9axum_core7extract16FromRequestPartspE18from_request_parts0B9_
FN:374,_RNCNvXININtCskwAV7ptXVKm_14threadkit_http10extractorss4_0pENtB7_21MaybeAuthUserWithRoleINtNtCslj7euEoKKLr_9axum_core7extract16FromRequestPartspE18from_request_parts0B9_
FN:411,_RNCNvXININtCskwAV7ptXVKm_14threadkit_http10extractorss5_0pENtB7_11OwnerAccessINtNtCslj7euEoKKLr_9axum_core7extract16FromRequestPartspE18from_request_parts0B9_
FN:215,_RNCNvXININtCskwAV7ptXVKm_14threadkit_http10extractorss_0pENtB7_8AuthUserINtNtCslj7euEoKKLr_9axum_core7extract16FromRequestPartspE18from_request_parts0B9_
FN:169,_RNvNtCskwAV7ptXVKm_14threadkit_http10extractors15validate_origin
FN:86,_RNvXININtCskwAV7ptXVKm_14threadkit_http10extractors0pENtB5_9ProjectIdINtNtCslj7euEoKKLr_9axum_core7extract16FromRequestPartspE18from_request_partsB7_
FN:260,_RNvXININtCskwAV7ptXVKm_14threadkit_http10extractorss0_0pENtB5_13MaybeAuthUserINtNtCslj7euEoKKLr_9axum_core7extract16FromRequestPartspE18from_request_partsB7_
FN:309,_RNvXININtCskwAV7ptXVKm_14threadkit_http10extractorss2_0pENtB5_16AuthUserWithRoleINtNtCslj7euEoKKLr_9axum_core7extract16FromRequestPartspE18from_request_partsB7_
FN:374,_RNvXININtCskwAV7ptXVKm_14threadkit_http10extractorss4_0pENtB5_21MaybeAuthUserWithRoleINtNtCslj7euEoKKLr_9axum_core7extract16FromRequestPartspE18from_request_partsB7_
FN:411,_RNvXININtCskwAV7ptXVKm_14threadkit_http10extractorss5_0pENtB5_11OwnerAccessINtNtCslj7euEoKKLr_9axum_core7extract16FromRequestPartspE18from_request_partsB7_
FN:215,_RNvXININtCskwAV7ptXVKm_14threadkit_http10extractorss_0pENtB5_8AuthUserINtNtCslj7euEoKKLr_9axum_core7extract16FromRequestPartspE18from_request_partsB7_
FN:17,_RNCNvNtCskwAV7ptXVKm_14threadkit_http10extractors22extract_request_origin0B5_
FN:25,_RNCNvNtCskwAV7ptXVKm_14threadkit_http10extractors22extract_request_origins0_0B5_
FN:27,_RNCNvNtCskwAV7ptXVKm_14threadkit_http10extractors22extract_request_origins1_0B5_
FN:20,_RNCNvNtCskwAV7ptXVKm_14threadkit_http10extractors22extract_request_origins_0B5_
FN:463,_RNvNtNtCskwAV7ptXVKm_14threadkit_http10extractors5testss_37test_extract_origin_none_when_missing
FN:430,_RNvNtNtCskwAV7ptXVKm_14threadkit_http10extractors5testss_38test_extract_origin_from_origin_header
FN:446,_RNvNtNtCskwAV7ptXVKm_14threadkit_http10extractors5testss_39test_extract_origin_from_referer_header
FN:488,_RNvNtNtCskwAV7ptXVKm_14threadkit_http10extractors5testss_39test_is_origin_allowed_case_insensitive
FN:469,_RNvNtNtCskwAV7ptXVKm_14threadkit_http10extractors5testss_40test_extract_origin_none_for_invalid_url
FN:548,_RNvNtNtCskwAV7ptXVKm_14threadkit_http10extractors5testss_41test_is_origin_allowed_multiple_wildcards
FN:528,_RNvNtNtCskwAV7ptXVKm_14threadkit_http10extractors5testss_41test_is_origin_allowed_wildcard_subdomain
FN:477,_RNvNtNtCskwAV7ptXVKm_14threadkit_http10extractors5testss_43test_is_origin_allowed_exact_primary_domain
FN:482,_RNvNtNtCskwAV7ptXVKm_14threadkit_http10extractors5testss_43test_is_origin_allowed_subdomain_of_primary
FN:495,_RNvNtNtCskwAV7ptXVKm_14threadkit_http10extractors5testss_45test_is_origin_allowed_localhost_when_enabled
FN:503,_RNvNtNtCskwAV7ptXVKm_14threadkit_http10extractors5testss_46test_is_origin_allowed_localhost_when_disabled
FN:454,_RNvNtNtCskwAV7ptXVKm_14threadkit_http10extractors5testss_47test_extract_origin_prefers_origin_over_referer
FN:560,_RNvNtNtCskwAV7ptXVKm_14threadkit_http10extractors5testss_47test_is_origin_allowed_mixed_exact_and_wildcard
FN:438,_RNvNtNtCskwAV7ptXVKm_14threadkit_http10extractors5testss_48test_extract_origin_from_origin_header_with_port
FN:511,_RNvNtNtCskwAV7ptXVKm_14threadkit_http10extractors5testss_48test_is_origin_allowed_different_domain_rejected
FN:539,_RNvNtNtCskwAV7ptXVKm_14threadkit_http10extractors5testss_49test_is_origin_allowed_wildcard_not_partial_match
FN:518,_RNvNtNtCskwAV7ptXVKm_14threadkit_http10extractors5testss_53test_is_origin_allowed_exact_match_in_allowed_origins
FN:285,_RNvMs1_NtCskwAV7ptXVKm_14threadkit_http10extractorsNtB5_16AuthUserWithRole13require_admin
FN:277,_RNvMs1_NtCskwAV7ptXVKm_14threadkit_http10extractorsNtB5_16AuthUserWithRole17require_moderator
FN:293,_RNvMs1_NtCskwAV7ptXVKm_14threadkit_http10extractorsNtB5_16AuthUserWithRole20require_username_set
FN:350,_RNvMs3_NtCskwAV7ptXVKm_14threadkit_http10extractorsNtB5_21MaybeAuthUserWithRole16is_authenticated
FN:354,_RNvMs3_NtCskwAV7ptXVKm_14threadkit_http10extractorsNtB5_21MaybeAuthUserWithRole20require_username_set
FN:36,_RNvNtCskwAV7ptXVKm_14threadkit_http10extractors17is_origin_allowed
FN:15,_RNvNtCskwAV7ptXVKm_14threadkit_http10extractors22extract_request_origin
FNDA:0,_RNvMs1_NtCsaszyX3GTrYE_14threadkit_http10extractorsNtB5_16AuthUserWithRole13require_admin
FNDA:7,_RNvMs1_NtCsaszyX3GTrYE_14threadkit_http10extractorsNtB5_16AuthUserWithRole17require_moderator
FNDA:27,_RNvMs1_NtCsaszyX3GTrYE_14threadkit_http10extractorsNtB5_16AuthUserWithRole20require_username_set
FNDA:99,_RNvMs3_NtCsaszyX3GTrYE_14threadkit_http10extractorsNtB5_21MaybeAuthUserWithRole16is_authenticated
FNDA:49,_RNvMs3_NtCsaszyX3GTrYE_14threadkit_http10extractorsNtB5_21MaybeAuthUserWithRole20require_username_set
FNDA:190,_RNvNtCsaszyX3GTrYE_14threadkit_http10extractors15validate_origin
FNDA:0,_RNvNtCsaszyX3GTrYE_14threadkit_http10extractors17is_origin_allowed
FNDA:124,_RNvNtCsaszyX3GTrYE_14threadkit_http10extractors22extract_request_origin
FNDA:190,_RNCNCNvXNtCsaszyX3GTrYE_14threadkit_http10extractorsNtB6_9ProjectIdINtNtCslj7euEoKKLr_9axum_core7extract16FromRequestPartsNtNtB8_5state8AppStateE18from_request_parts00B8_
FNDA:0,_RNCNCNvXNtCsaszyX3GTrYE_14threadkit_http10extractorsNtB6_9ProjectIdINtNtCslj7euEoKKLr_9axum_core7extract16FromRequestPartsNtNtB8_5state8AppStateE18from_request_parts0s0_0B8_
FNDA:0,_RNCNCNvXNtCsaszyX3GTrYE_14threadkit_http10extractorsNtB6_9ProjectIdINtNtCslj7euEoKKLr_9axum_core7extract16FromRequestPartsNtNtB8_5state8AppStateE18from_request_parts0s_0B8_
FNDA:0,_RNCNCNvXs2_NtCsaszyX3GTrYE_14threadkit_http10extractorsNtB9_16AuthUserWithRoleINtNtCslj7euEoKKLr_9axum_core7extract16FromRequestPartsNtNtBb_5state8AppStateE18from_request_parts00Bb_
FNDA:0,_RNCNCNvXs2_NtCsaszyX3GTrYE_14threadkit_http10extractorsNtB9_16AuthUserWithRoleINtNtCslj7euEoKKLr_9axum_core7extract16FromRequestPartsNtNtBb_5state8AppStateE18from_request_parts0s_0Bb_
FNDA:90,_RNCNCNvXs_NtCsaszyX3GTrYE_14threadkit_http10extractorsNtB8_8AuthUserINtNtCslj7euEoKKLr_9axum_core7extract16FromRequestPartsNtNtBa_5state8AppStateE18from_request_parts00Ba_
FNDA:0,_RNCNCNvXs_NtCsaszyX3GTrYE_14threadkit_http10extractorsNtB8_8AuthUserINtNtCslj7euEoKKLr_9axum_core7extract16FromRequestPartsNtNtBa_5state8AppStateE18from_request_parts0s0_0Ba_
FNDA:0,_RNCNCNvXs_NtCsaszyX3GTrYE_14threadkit_http10extractorsNtB8_8AuthUserINtNtCslj7euEoKKLr_9axum_core7extract16FromRequestPartsNtNtBa_5state8AppStateE18from_request_parts0s_0Ba_
FNDA:0,_RNCNvNtCsaszyX3GTrYE_14threadkit_http10extractors22extract_request_origin0B5_
FNDA:0,_RNCNvNtCsaszyX3GTrYE_14threadkit_http10extractors22extract_request_origins0_0B5_
FNDA:0,_RNCNvNtCsaszyX3GTrYE_14threadkit_http10extractors22extract_request_origins1_0B5_
FNDA:0,_RNCNvNtCsaszyX3GTrYE_14threadkit_http10extractors22extract_request_origins_0B5_
FNDA:193,_RNCNvXNtCsaszyX3GTrYE_14threadkit_http10extractorsNtB4_9ProjectIdINtNtCslj7euEoKKLr_9axum_core7extract16FromRequestPartsNtNtB6_5state8AppStateE18from_request_parts0B6_
FNDA:9,_RNCNvXs0_NtCsaszyX3GTrYE_14threadkit_http10extractorsNtB7_13MaybeAuthUserINtNtCslj7euEoKKLr_9axum_core7extract16FromRequestPartsNtNtB9_5state8AppStateE18from_request_parts0B9_
FNDA:85,_RNCNvXs2_NtCsaszyX3GTrYE_14threadkit_http10extractorsNtB7_16AuthUserWithRoleINtNtCslj7euEoKKLr_9axum_core7extract16FromRequestPartsNtNtB9_5state8AppStateE18from_request_parts0B9_
FNDA:51,_RNCNvXs4_NtCsaszyX3GTrYE_14threadkit_http10extractorsNtB7_21MaybeAuthUserWithRoleINtNtCslj7euEoKKLr_9axum_core7extract16FromRequestPartsNtNtB9_5state8AppStateE18from_request_parts0B9_
FNDA:66,_RNCNvXs5_NtCsaszyX3GTrYE_14threadkit_http10extractorsNtB7_11OwnerAccessINtNtCslj7euEoKKLr_9axum_core7extract16FromRequestPartsNtNtB9_5state8AppStateE18from_request_parts0B9_
FNDA:99,_RNCNvXs_NtCsaszyX3GTrYE_14threadkit_http10extractorsNtB6_8AuthUserINtNtCslj7euEoKKLr_9axum_core7extract16FromRequestPartsNtNtB8_5state8AppStateE18from_request_parts0B8_
FNDA:193,_RNvXNtCsaszyX3GTrYE_14threadkit_http10extractorsNtB2_9ProjectIdINtNtCslj7euEoKKLr_9axum_core7extract16FromRequestPartsNtNtB4_5state8AppStateE18from_request_partsB4_
FNDA:9,_RNvXs0_NtCsaszyX3GTrYE_14threadkit_http10extractorsNtB5_13MaybeAuthUserINtNtCslj7euEoKKLr_9axum_core7extract16FromRequestPartsNtNtB7_5state8AppStateE18from_request_partsB7_
FNDA:85,_RNvXs2_NtCsaszyX3GTrYE_14threadkit_http10extractorsNtB5_16AuthUserWithRoleINtNtCslj7euEoKKLr_9axum_core7extract16FromRequestPartsNtNtB7_5state8AppStateE18from_request_partsB7_
FNDA:51,_RNvXs4_NtCsaszyX3GTrYE_14threadkit_http10extractorsNtB5_21MaybeAuthUserWithRoleINtNtCslj7euEoKKLr_9axum_core7extract16FromRequestPartsNtNtB7_5state8AppStateE18from_request_partsB7_
FNDA:66,_RNvXs5_NtCsaszyX3GTrYE_14threadkit_http10extractorsNtB5_11OwnerAccessINtNtCslj7euEoKKLr_9axum_core7extract16FromRequestPartsNtNtB7_5state8AppStateE18from_request_partsB7_
FNDA:99,_RNvXs_NtCsaszyX3GTrYE_14threadkit_http10extractorsNtB4_8AuthUserINtNtCslj7euEoKKLr_9axum_core7extract16FromRequestPartsNtNtB6_5state8AppStateE18from_request_partsB6_
FNDA:0,_RNCNCNvXININtCskwAV7ptXVKm_14threadkit_http10extractors0pENtB9_9ProjectIdINtNtCslj7euEoKKLr_9axum_core7extract16FromRequestPartspE18from_request_parts00Bb_
FNDA:0,_RNCNCNvXININtCskwAV7ptXVKm_14threadkit_http10extractors0pENtB9_9ProjectIdINtNtCslj7euEoKKLr_9axum_core7extract16FromRequestPartspE18from_request_parts0s0_0Bb_
FNDA:0,_RNCNCNvXININtCskwAV7ptXVKm_14threadkit_http10extractors0pENtB9_9ProjectIdINtNtCslj7euEoKKLr_9axum_core7extract16FromRequestPartspE18from_request_parts0s_0Bb_
FNDA:0,_RNCNCNvXININtCskwAV7ptXVKm_14threadkit_http10extractorss2_0pENtB9_16AuthUserWithRoleINtNtCslj7euEoKKLr_9axum_core7extract16FromRequestPartspE18from_request_parts00Bb_
FNDA:0,_RNCNCNvXININtCskwAV7ptXVKm_14threadkit_http10extractorss2_0pENtB9_16AuthUserWithRoleINtNtCslj7euEoKKLr_9axum_core7extract16FromRequestPartspE18from_request_parts0s_0Bb_
FNDA:0,_RNCNCNvXININtCskwAV7ptXVKm_14threadkit_http10extractorss_0pENtB9_8AuthUserINtNtCslj7euEoKKLr_9axum_core7extract16FromRequestPartspE18from_request_parts00Bb_
FNDA:0,_RNCNCNvXININtCskwAV7ptXVKm_14threadkit_http10extractorss_0pENtB9_8AuthUserINtNtCslj7euEoKKLr_9axum_core7extract16FromRequestPartspE18from_request_parts0s0_0Bb_
FNDA:0,_RNCNCNvXININtCskwAV7ptXVKm_14threadkit_http10extractorss_0pENtB9_8AuthUserINtNtCslj7euEoKKLr_9axum_core7extract16FromRequestPartspE18from_request_parts0s_0Bb_
FNDA:0,_RNCNvXININtCskwAV7ptXVKm_14threadkit_http10extractors0pENtB7_9ProjectIdINtNtCslj7euEoKKLr_9axum_core7extract16FromRequestPartspE18from_request_parts0B9_
FNDA:0,_RNCNvXININtCskwAV7ptXVKm_14threadkit_http10extractorss0_0pENtB7_13MaybeAuthUserINtNtCslj7euEoKKLr_9axum_core7extract16FromRequestPartspE18from_request_parts0B9_
FNDA:0,_RNCNvXININtCskwAV7ptXVKm_14threadkit_http10extractorss2_0pENtB7_16AuthUserWithRoleINtNtCslj7euEoKKLr_9axum_core7extract16FromRequestPartspE18from_request_parts0B9_
FNDA:0,_RNCNvXININtCskwAV7ptXVKm_14threadkit_http10extractorss4_0pENtB7_21MaybeAuthUserWithRoleINtNtCslj7euEoKKLr_9axum_core7extract16FromRequestPartspE18from_request_parts0B9_
FNDA:0,_RNCNvXININtCskwAV7ptXVKm_14threadkit_http10extractorss5_0pENtB7_11OwnerAccessINtNtCslj7euEoKKLr_9axum_core7extract16FromRequestPartspE18from_request_parts0B9_
FNDA:0,_RNCNvXININtCskwAV7ptXVKm_14threadkit_http10extractorss_0pENtB7_8AuthUserINtNtCslj7euEoKKLr_9axum_core7extract16FromRequestPartspE18from_request_parts0B9_
FNDA:0,_RNvNtCskwAV7ptXVKm_14threadkit_http10extractors15validate_origin
FNDA:0,_RNvXININtCskwAV7ptXVKm_14threadkit_http10extractors0pENtB5_9ProjectIdINtNtCslj7euEoKKLr_9axum_core7extract16FromRequestPartspE18from_request_partsB7_
FNDA:0,_RNvXININtCskwAV7ptXVKm_14threadkit_http10extractorss0_0pENtB5_13MaybeAuthUserINtNtCslj7euEoKKLr_9axum_core7extract16FromRequestPartspE18from_request_partsB7_
FNDA:0,_RNvXININtCskwAV7ptXVKm_14threadkit_http10extractorss2_0pENtB5_16AuthUserWithRoleINtNtCslj7euEoKKLr_9axum_core7extract16FromRequestPartspE18from_request_partsB7_
FNDA:0,_RNvXININtCskwAV7ptXVKm_14threadkit_http10extractorss4_0pENtB5_21MaybeAuthUserWithRoleINtNtCslj7euEoKKLr_9axum_core7extract16FromRequestPartspE18from_request_partsB7_
FNDA:0,_RNvXININtCskwAV7ptXVKm_14threadkit_http10extractorss5_0pENtB5_11OwnerAccessINtNtCslj7euEoKKLr_9axum_core7extract16FromRequestPartspE18from_request_partsB7_
FNDA:0,_RNvXININtCskwAV7ptXVKm_14threadkit_http10extractorss_0pENtB5_8AuthUserINtNtCslj7euEoKKLr_9axum_core7extract16FromRequestPartspE18from_request_partsB7_
FNDA:4,_RNCNvNtCskwAV7ptXVKm_14threadkit_http10extractors22extract_request_origin0B5_
FNDA:1,_RNCNvNtCskwAV7ptXVKm_14threadkit_http10extractors22extract_request_origins0_0B5_
FNDA:1,_RNCNvNtCskwAV7ptXVKm_14threadkit_http10extractors22extract_request_origins1_0B5_
FNDA:3,_RNCNvNtCskwAV7ptXVKm_14threadkit_http10extractors22extract_request_origins_0B5_
FNDA:1,_RNvNtNtCskwAV7ptXVKm_14threadkit_http10extractors5testss_37test_extract_origin_none_when_missing
FNDA:1,_RNvNtNtCskwAV7ptXVKm_14threadkit_http10extractors5testss_38test_extract_origin_from_origin_header
FNDA:1,_RNvNtNtCskwAV7ptXVKm_14threadkit_http10extractors5testss_39test_extract_origin_from_referer_header
FNDA:1,_RNvNtNtCskwAV7ptXVKm_14threadkit_http10extractors5testss_39test_is_origin_allowed_case_insensitive
FNDA:1,_RNvNtNtCskwAV7ptXVKm_14threadkit_http10extractors5testss_40test_extract_origin_none_for_invalid_url
FNDA:1,_RNvNtNtCskwAV7ptXVKm_14threadkit_http10extractors5testss_41test_is_origin_allowed_multiple_wildcards
FNDA:1,_RNvNtNtCskwAV7ptXVKm_14threadkit_http10extractors5testss_41test_is_origin_allowed_wildcard_subdomain
FNDA:1,_RNvNtNtCskwAV7ptXVKm_14threadkit_http10extractors5testss_43test_is_origin_allowed_exact_primary_domain
FNDA:1,_RNvNtNtCskwAV7ptXVKm_14threadkit_http10extractors5testss_43test_is_origin_allowed_subdomain_of_primary
FNDA:1,_RNvNtNtCskwAV7ptXVKm_14threadkit_http10extractors5testss_45test_is_origin_allowed_localhost_when_enabled
FNDA:1,_RNvNtNtCskwAV7ptXVKm_14threadkit_http10extractors5testss_46test_is_origin_allowed_localhost_when_disabled
FNDA:1,_RNvNtNtCskwAV7ptXVKm_14threadkit_http10extractors5testss_47test_extract_origin_prefers_origin_over_referer
FNDA:1,_RNvNtNtCskwAV7ptXVKm_14threadkit_http10extractors5testss_47test_is_origin_allowed_mixed_exact_and_wildcard
FNDA:1,_RNvNtNtCskwAV7ptXVKm_14threadkit_http10extractors5testss_48test_extract_origin_from_origin_header_with_port
FNDA:1,_RNvNtNtCskwAV7ptXVKm_14threadkit_http10extractors5testss_48test_is_origin_allowed_different_domain_rejected
FNDA:1,_RNvNtNtCskwAV7ptXVKm_14threadkit_http10extractors5testss_49test_is_origin_allowed_wildcard_not_partial_match
FNDA:1,_RNvNtNtCskwAV7ptXVKm_14threadkit_http10extractors5testss_53test_is_origin_allowed_exact_match_in_allowed_origins
FNDA:0,_RNvMs1_NtCskwAV7ptXVKm_14threadkit_http10extractorsNtB5_16AuthUserWithRole13require_admin
FNDA:0,_RNvMs1_NtCskwAV7ptXVKm_14threadkit_http10extractorsNtB5_16AuthUserWithRole17require_moderator
FNDA:0,_RNvMs1_NtCskwAV7ptXVKm_14threadkit_http10extractorsNtB5_16AuthUserWithRole20require_username_set
FNDA:0,_RNvMs3_NtCskwAV7ptXVKm_14threadkit_http10extractorsNtB5_21MaybeAuthUserWithRole16is_authenticated
FNDA:0,_RNvMs3_NtCskwAV7ptXVKm_14threadkit_http10extractorsNtB5_21MaybeAuthUserWithRole20require_username_set
FNDA:30,_RNvNtCskwAV7ptXVKm_14threadkit_http10extractors17is_origin_allowed
FNDA:6,_RNvNtCskwAV7ptXVKm_14threadkit_http10extractors22extract_request_origin
FNF:49
FNH:42
DA:15,130
DA:17,130
DA:19,4
DA:20,3
DA:21,1
DA:22,126
DA:25,127
DA:26,1
DA:27,1
DA:28,0
DA:29,126
DA:31,126
DA:32,130
DA:36,30
DA:37,30
DA:38,30
DA:39,30
DA:40,30
DA:41,30
DA:42,30
DA:43,30
DA:46,30
DA:47,3
DA:49,3
DA:50,27
DA:53,27
DA:54,7
DA:55,20
DA:58,31
DA:59,20
DA:62,20
DA:63,12
DA:64,6
DA:65,6
DA:66,8
DA:68,3
DA:69,5
DA:72,11
DA:73,30
DA:86,193
DA:87,193
DA:89,193
DA:90,193
DA:91,193
DA:92,193
DA:93,193
DA:95,190
DA:98,190
DA:100,93
DA:101,93
DA:102,97
DA:105,97
DA:106,97
DA:107,55
DA:108,42
DA:109,42
DA:111,0
DA:114,97
DA:115,97
DA:116,97
DA:117,97
DA:118,97
DA:119,97
DA:121,97
DA:122,97
DA:123,97
DA:124,97
DA:125,97
DA:126,97
DA:129,97
DA:132,97
DA:134,97
DA:135,0
DA:138,0
DA:139,0
DA:140,0
DA:141,0
DA:142,0
DA:143,0
DA:145,0
DA:146,0
DA:148,0
DA:151,0
DA:152,0
DA:153,0
DA:154,0
DA:155,0
DA:156,0
DA:159,0
DA:162,0
DA:164,0
DA:165,193
DA:169,190
DA:170,190
DA:171,190
DA:172,190
DA:173,190
DA:175,190
DA:176,66
DA:177,124
DA:182,124
DA:183,124
DA:186,0
DA:187,0
DA:188,0
DA:189,0
DA:190,0
DA:192,0
DA:194,0
DA:195,0
DA:196,0
DA:197,0
DA:199,190
DA:215,99
DA:216,99
DA:218,99
DA:219,99
DA:220,99
DA:221,99
DA:222,99
DA:224,90
DA:225,90
DA:226,90
DA:228,90
DA:229,90
DA:232,90
DA:233,90
DA:234,90
DA:235,90
DA:236,90
DA:238,90
DA:239,0
DA:240,90
DA:242,90
DA:243,90
DA:244,90
DA:245,90
DA:246,90
DA:247,99
DA:260,9
DA:261,9
DA:262,1
DA:263,8
DA:265,9
DA:277,7
DA:278,7
DA:279,6
DA:281,1
DA:283,7
DA:285,0
DA:286,0
DA:287,0
DA:289,0
DA:291,0
DA:293,27
DA:294,27
DA:295,27
DA:297,0
DA:299,27
DA:309,85
DA:310,85
DA:311,85
DA:313,84
DA:314,84
DA:315,84
DA:316,84
DA:317,84
DA:319,84
DA:320,1
DA:321,83
DA:324,83
DA:325,83
DA:326,83
DA:327,83
DA:328,83
DA:329,83
DA:330,83
DA:332,83
DA:333,83
DA:334,83
DA:335,83
DA:336,83
DA:337,83
DA:338,85
DA:350,99
DA:351,99
DA:352,99
DA:354,49
DA:356,49
DA:357,0
DA:358,49
DA:359,49
DA:360,49
DA:362,0
DA:364,49
DA:374,51
DA:375,51
DA:376,49
DA:377,49
DA:378,49
DA:379,49
DA:380,49
DA:381,49
DA:382,2
DA:384,2
DA:385,1
DA:386,1
DA:388,1
DA:389,1
DA:390,1
DA:391,1
DA:392,1
DA:393,1
DA:396,51
DA:411,66
DA:412,66
DA:414,66
DA:415,0
DA:416,66
DA:418,66
DA:419,66
DA:420,66
DA:421,66
DA:430,1
DA:431,1
DA:432,1
DA:434,1
DA:435,1
DA:438,1
DA:439,1
DA:440,1
DA:442,1
DA:443,1
DA:446,1
DA:447,1
DA:448,1
DA:450,1
DA:451,1
DA:454,1
DA:455,1
DA:456,1
DA:457,1
DA:459,1
DA:460,1
DA:463,1
DA:464,1
DA:465,1
DA:466,1
DA:469,1
DA:470,1
DA:471,1
DA:473,1
DA:474,1
DA:477,1
DA:478,1
DA:479,1
DA:482,1
DA:483,1
DA:484,1
DA:485,1
DA:488,1
DA:489,1
DA:490,1
DA:491,1
DA:492,1
DA:495,1
DA:497,1
DA:498,1
DA:499,1
DA:500,1
DA:503,1
DA:505,1
DA:506,1
DA:507,1
DA:508,1
DA:511,1
DA:512,1
DA:513,1
DA:514,1
DA:515,1
DA:518,1
DA:519,1
DA:521,1
DA:522,1
DA:524,1
DA:525,1
DA:528,1
DA:529,1
DA:531,1
DA:532,1
DA:533,1
DA:535,1
DA:536,1
DA:539,1
DA:540,1
DA:543,1
DA:544,1
DA:545,1
DA:548,1
DA:549,1
DA:550,1
DA:551,1
DA:554,1
DA:555,1
DA:556,1
DA:557,1
DA:560,1
DA:561,1
DA:562,1
DA:563,1
DA:566,1
DA:567,1
DA:568,1
DA:569,1
BRF:0
BRH:0
LF:332
LH:285
end_of_record
SF:/Users/jt/code/threadkit/server/crates/http/src/main.rs
FN:430,_RNvCs9KKNa6Ped6o_14threadkit_http11create_site
FN:674,_RNvCs9KKNa6Ped6o_14threadkit_http12generate_key
FN:237,_RNvCs9KKNa6Ped6o_14threadkit_http12health_check
FN:216,_RNvCs9KKNa6Ped6o_14threadkit_http13setup_metrics
FN:254,_RNvCs9KKNa6Ped6o_14threadkit_http15shutdown_signal
FN:261,_RNvCs9KKNa6Ped6o_14threadkit_http17spider_easter_egg
FN:79,_RNvCs9KKNa6Ped6o_14threadkit_http4main
FN:573,_RNvCs9KKNa6Ped6o_14threadkit_http9edit_site
FN:453,_RNCNCNCNvCs9KKNa6Ped6o_14threadkit_http11create_site0s1_00B7_
FN:455,_RNCNCNCNvCs9KKNa6Ped6o_14threadkit_http11create_site0s1_0s_0B7_
FN:447,_RNCNCNCNvCs9KKNa6Ped6o_14threadkit_http11create_site0s_00B7_
FN:171,_RNCNCNCNvCs9KKNa6Ped6o_14threadkit_http4main0s1_00B7_
FN:175,_RNCNCNCNvCs9KKNa6Ped6o_14threadkit_http4main0s2_00B7_
FN:442,_RNCNCNvCs9KKNa6Ped6o_14threadkit_http11create_site00B5_
FN:448,_RNCNCNvCs9KKNa6Ped6o_14threadkit_http11create_site0s0_0B5_
FN:452,_RNCNCNvCs9KKNa6Ped6o_14threadkit_http11create_site0s1_0B5_
FN:456,_RNCNCNvCs9KKNa6Ped6o_14threadkit_http11create_site0s2_0B5_
FN:481,_RNCNCNvCs9KKNa6Ped6o_14threadkit_http11create_site0s3_0B5_
FN:482,_RNCNCNvCs9KKNa6Ped6o_14threadkit_http11create_site0s4_0B5_
FN:511,_RNCNCNvCs9KKNa6Ped6o_14threadkit_http11create_site0s5_0B5_
FN:513,_RNCNCNvCs9KKNa6Ped6o_14threadkit_http11create_site0s6_0B5_
FN:514,_RNCNCNvCs9KKNa6Ped6o_14threadkit_http11create_site0s7_0B5_
FN:515,_RNCNCNvCs9KKNa6Ped6o_14threadkit_http11create_site0s8_0B5_
FN:516,_RNCNCNvCs9KKNa6Ped6o_14threadkit_http11create_site0s9_0B5_
FN:447,_RNCNCNvCs9KKNa6Ped6o_14threadkit_http11create_site0s_0B5_
FN:517,_RNCNCNvCs9KKNa6Ped6o_14threadkit_http11create_site0sa_0B5_
FN:518,_RNCNCNvCs9KKNa6Ped6o_14threadkit_http11create_site0sb_0B5_
FN:83,_RNCNCNvCs9KKNa6Ped6o_14threadkit_http4main00B5_
FN:95,_RNCNCNvCs9KKNa6Ped6o_14threadkit_http4main0s0_0B5_
FN:169,_RNCNCNvCs9KKNa6Ped6o_14threadkit_http4main0s1_0B5_
FN:177,_RNCNCNvCs9KKNa6Ped6o_14threadkit_http4main0s2_0B5_
FN:201,_RNCNCNvCs9KKNa6Ped6o_14threadkit_http4main0s3_0B5_
FN:94,_RNCNCNvCs9KKNa6Ped6o_14threadkit_http4main0s_0B5_
FN:593,_RNCNCNvCs9KKNa6Ped6o_14threadkit_http9edit_site00B5_
FN:649,_RNCNCNvCs9KKNa6Ped6o_14threadkit_http9edit_site0s0_0B5_
FN:650,_RNCNCNvCs9KKNa6Ped6o_14threadkit_http9edit_site0s1_0B5_
FN:651,_RNCNCNvCs9KKNa6Ped6o_14threadkit_http9edit_site0s2_0B5_
FN:652,_RNCNCNvCs9KKNa6Ped6o_14threadkit_http9edit_site0s3_0B5_
FN:653,_RNCNCNvCs9KKNa6Ped6o_14threadkit_http9edit_site0s4_0B5_
FN:654,_RNCNCNvCs9KKNa6Ped6o_14threadkit_http9edit_site0s5_0B5_
FN:655,_RNCNCNvCs9KKNa6Ped6o_14threadkit_http9edit_site0s6_0B5_
FN:594,_RNCNCNvCs9KKNa6Ped6o_14threadkit_http9edit_site0s_0B5_
FN:430,_RNCNvCs9KKNa6Ped6o_14threadkit_http11create_site0B3_
FN:678,_RNCNvCs9KKNa6Ped6o_14threadkit_http12generate_key0B3_
FN:237,_RNCNvCs9KKNa6Ped6o_14threadkit_http12health_check0B3_
FN:254,_RNCNvCs9KKNa6Ped6o_14threadkit_http15shutdown_signal0B3_
FN:261,_RNCNvCs9KKNa6Ped6o_14threadkit_http17spider_easter_egg0B3_
FN:79,_RNCNvCs9KKNa6Ped6o_14threadkit_http4main0B3_
FN:573,_RNCNvCs9KKNa6Ped6o_14threadkit_http9edit_site0B3_
FN:453,_RNCNCNCNvCs8jHcHMoVeRn_14threadkit_http11create_site0s1_00B7_
FN:455,_RNCNCNCNvCs8jHcHMoVeRn_14threadkit_http11create_site0s1_0s_0B7_
FN:447,_RNCNCNCNvCs8jHcHMoVeRn_14threadkit_http11create_site0s_00B7_
FN:171,_RNCNCNCNvCs8jHcHMoVeRn_14threadkit_http4main0s1_00B7_
FN:175,_RNCNCNCNvCs8jHcHMoVeRn_14threadkit_http4main0s2_00B7_
FN:442,_RNCNCNvCs8jHcHMoVeRn_14threadkit_http11create_site00B5_
FN:448,_RNCNCNvCs8jHcHMoVeRn_14threadkit_http11create_site0s0_0B5_
FN:452,_RNCNCNvCs8jHcHMoVeRn_14threadkit_http11create_site0s1_0B5_
FN:456,_RNCNCNvCs8jHcHMoVeRn_14threadkit_http11create_site0s2_0B5_
FN:481,_RNCNCNvCs8jHcHMoVeRn_14threadkit_http11create_site0s3_0B5_
FN:482,_RNCNCNvCs8jHcHMoVeRn_14threadkit_http11create_site0s4_0B5_
FN:511,_RNCNCNvCs8jHcHMoVeRn_14threadkit_http11create_site0s5_0B5_
FN:513,_RNCNCNvCs8jHcHMoVeRn_14threadkit_http11create_site0s6_0B5_
FN:514,_RNCNCNvCs8jHcHMoVeRn_14threadkit_http11create_site0s7_0B5_
FN:515,_RNCNCNvCs8jHcHMoVeRn_14threadkit_http11create_site0s8_0B5_
FN:516,_RNCNCNvCs8jHcHMoVeRn_14threadkit_http11create_site0s9_0B5_
FN:447,_RNCNCNvCs8jHcHMoVeRn_14threadkit_http11create_site0s_0B5_
FN:517,_RNCNCNvCs8jHcHMoVeRn_14threadkit_http11create_site0sa_0B5_
FN:518,_RNCNCNvCs8jHcHMoVeRn_14threadkit_http11create_site0sb_0B5_
FN:83,_RNCNCNvCs8jHcHMoVeRn_14threadkit_http4main00B5_
FN:95,_RNCNCNvCs8jHcHMoVeRn_14threadkit_http4main0s0_0B5_
FN:169,_RNCNCNvCs8jHcHMoVeRn_14threadkit_http4main0s1_0B5_
FN:177,_RNCNCNvCs8jHcHMoVeRn_14threadkit_http4main0s2_0B5_
FN:201,_RNCNCNvCs8jHcHMoVeRn_14threadkit_http4main0s3_0B5_
FN:94,_RNCNCNvCs8jHcHMoVeRn_14threadkit_http4main0s_0B5_
FN:593,_RNCNCNvCs8jHcHMoVeRn_14threadkit_http9edit_site00B5_
FN:649,_RNCNCNvCs8jHcHMoVeRn_14threadkit_http9edit_site0s0_0B5_
FN:650,_RNCNCNvCs8jHcHMoVeRn_14threadkit_http9edit_site0s1_0B5_
FN:651,_RNCNCNvCs8jHcHMoVeRn_14threadkit_http9edit_site0s2_0B5_
FN:652,_RNCNCNvCs8jHcHMoVeRn_14threadkit_http9edit_site0s3_0B5_
FN:653,_RNCNCNvCs8jHcHMoVeRn_14threadkit_http9edit_site0s4_0B5_
FN:654,_RNCNCNvCs8jHcHMoVeRn_14threadkit_http9edit_site0s5_0B5_
FN:655,_RNCNCNvCs8jHcHMoVeRn_14threadkit_http9edit_site0s6_0B5_
FN:594,_RNCNCNvCs8jHcHMoVeRn_14threadkit_http9edit_site0s_0B5_
FN:430,_RNCNvCs8jHcHMoVeRn_14threadkit_http11create_site0B3_
FN:678,_RNCNvCs8jHcHMoVeRn_14threadkit_http12generate_key0B3_
FN:237,_RNCNvCs8jHcHMoVeRn_14threadkit_http12health_check0B3_
FN:254,_RNCNvCs8jHcHMoVeRn_14threadkit_http15shutdown_signal0B3_
FN:261,_RNCNvCs8jHcHMoVeRn_14threadkit_http17spider_easter_egg0B3_
FN:79,_RNCNvCs8jHcHMoVeRn_14threadkit_http4main0B3_
FN:573,_RNCNvCs8jHcHMoVeRn_14threadkit_http9edit_site0B3_
FN:430,_RNvCs8jHcHMoVeRn_14threadkit_http11create_site
FN:674,_RNvCs8jHcHMoVeRn_14threadkit_http12generate_key
FN:237,_RNvCs8jHcHMoVeRn_14threadkit_http12health_check
FN:216,_RNvCs8jHcHMoVeRn_14threadkit_http13setup_metrics
FN:254,_RNvCs8jHcHMoVeRn_14threadkit_http15shutdown_signal
FN:261,_RNvCs8jHcHMoVeRn_14threadkit_http17spider_easter_egg
FN:79,_RNvCs8jHcHMoVeRn_14threadkit_http4main
FN:573,_RNvCs8jHcHMoVeRn_14threadkit_http9edit_site
FNDA:0,_RNvCs9KKNa6Ped6o_14threadkit_http11create_site
FNDA:0,_RNvCs9KKNa6Ped6o_14threadkit_http12generate_key
FNDA:0,_RNvCs9KKNa6Ped6o_14threadkit_http12health_check
FNDA:0,_RNvCs9KKNa6Ped6o_14threadkit_http13setup_metrics
FNDA:0,_RNvCs9KKNa6Ped6o_14threadkit_http15shutdown_signal
FNDA:0,_RNvCs9KKNa6Ped6o_14threadkit_http17spider_easter_egg
FNDA:0,_RNvCs9KKNa6Ped6o_14threadkit_http4main
FNDA:0,_RNvCs9KKNa6Ped6o_14threadkit_http9edit_site
FNDA:0,_RNCNCNCNvCs9KKNa6Ped6o_14threadkit_http11create_site0s1_00B7_
FNDA:0,_RNCNCNCNvCs9KKNa6Ped6o_14threadkit_http11create_site0s1_0s_0B7_
FNDA:0,_RNCNCNCNvCs9KKNa6Ped6o_14threadkit_http11create_site0s_00B7_
FNDA:0,_RNCNCNCNvCs9KKNa6Ped6o_14threadkit_http4main0s1_00B7_
FNDA:0,_RNCNCNCNvCs9KKNa6Ped6o_14threadkit_http4main0s2_00B7_
FNDA:0,_RNCNCNvCs9KKNa6Ped6o_14threadkit_http11create_site00B5_
FNDA:0,_RNCNCNvCs9KKNa6Ped6o_14threadkit_http11create_site0s0_0B5_
FNDA:0,_RNCNCNvCs9KKNa6Ped6o_14threadkit_http11create_site0s1_0B5_
FNDA:0,_RNCNCNvCs9KKNa6Ped6o_14threadkit_http11create_site0s2_0B5_
FNDA:0,_RNCNCNvCs9KKNa6Ped6o_14threadkit_http11create_site0s3_0B5_
FNDA:0,_RNCNCNvCs9KKNa6Ped6o_14threadkit_http11create_site0s4_0B5_
FNDA:0,_RNCNCNvCs9KKNa6Ped6o_14threadkit_http11create_site0s5_0B5_
FNDA:0,_RNCNCNvCs9KKNa6Ped6o_14threadkit_http11create_site0s6_0B5_
FNDA:0,_RNCNCNvCs9KKNa6Ped6o_14threadkit_http11create_site0s7_0B5_
FNDA:0,_RNCNCNvCs9KKNa6Ped6o_14threadkit_http11create_site0s8_0B5_
FNDA:0,_RNCNCNvCs9KKNa6Ped6o_14threadkit_http11create_site0s9_0B5_
FNDA:0,_RNCNCNvCs9KKNa6Ped6o_14threadkit_http11create_site0s_0B5_
FNDA:0,_RNCNCNvCs9KKNa6Ped6o_14threadkit_http11create_site0sa_0B5_
FNDA:0,_RNCNCNvCs9KKNa6Ped6o_14threadkit_http11create_site0sb_0B5_
FNDA:0,_RNCNCNvCs9KKNa6Ped6o_14threadkit_http4main00B5_
FNDA:0,_RNCNCNvCs9KKNa6Ped6o_14threadkit_http4main0s0_0B5_
FNDA:0,_RNCNCNvCs9KKNa6Ped6o_14threadkit_http4main0s1_0B5_
FNDA:0,_RNCNCNvCs9KKNa6Ped6o_14threadkit_http4main0s2_0B5_
FNDA:0,_RNCNCNvCs9KKNa6Ped6o_14threadkit_http4main0s3_0B5_
FNDA:0,_RNCNCNvCs9KKNa6Ped6o_14threadkit_http4main0s_0B5_
FNDA:0,_RNCNCNvCs9KKNa6Ped6o_14threadkit_http9edit_site00B5_
FNDA:0,_RNCNCNvCs9KKNa6Ped6o_14threadkit_http9edit_site0s0_0B5_
FNDA:0,_RNCNCNvCs9KKNa6Ped6o_14threadkit_http9edit_site0s1_0B5_
FNDA:0,_RNCNCNvCs9KKNa6Ped6o_14threadkit_http9edit_site0s2_0B5_
FNDA:0,_RNCNCNvCs9KKNa6Ped6o_14threadkit_http9edit_site0s3_0B5_
FNDA:0,_RNCNCNvCs9KKNa6Ped6o_14threadkit_http9edit_site0s4_0B5_
FNDA:0,_RNCNCNvCs9KKNa6Ped6o_14threadkit_http9edit_site0s5_0B5_
FNDA:0,_RNCNCNvCs9KKNa6Ped6o_14threadkit_http9edit_site0s6_0B5_
FNDA:0,_RNCNCNvCs9KKNa6Ped6o_14threadkit_http9edit_site0s_0B5_
FNDA:0,_RNCNvCs9KKNa6Ped6o_14threadkit_http11create_site0B3_
FNDA:0,_RNCNvCs9KKNa6Ped6o_14threadkit_http12generate_key0B3_
FNDA:0,_RNCNvCs9KKNa6Ped6o_14threadkit_http12health_check0B3_
FNDA:0,_RNCNvCs9KKNa6Ped6o_14threadkit_http15shutdown_signal0B3_
FNDA:0,_RNCNvCs9KKNa6Ped6o_14threadkit_http17spider_easter_egg0B3_
FNDA:0,_RNCNvCs9KKNa6Ped6o_14threadkit_http4main0B3_
FNDA:0,_RNCNvCs9KKNa6Ped6o_14threadkit_http9edit_site0B3_
FNDA:0,_RNCNCNCNvCs8jHcHMoVeRn_14threadkit_http11create_site0s1_00B7_
FNDA:0,_RNCNCNCNvCs8jHcHMoVeRn_14threadkit_http11create_site0s1_0s_0B7_
FNDA:0,_RNCNCNCNvCs8jHcHMoVeRn_14threadkit_http11create_site0s_00B7_
FNDA:0,_RNCNCNCNvCs8jHcHMoVeRn_14threadkit_http4main0s1_00B7_
FNDA:0,_RNCNCNCNvCs8jHcHMoVeRn_14threadkit_http4main0s2_00B7_
FNDA:0,_RNCNCNvCs8jHcHMoVeRn_14threadkit_http11create_site00B5_
FNDA:0,_RNCNCNvCs8jHcHMoVeRn_14threadkit_http11create_site0s0_0B5_
FNDA:0,_RNCNCNvCs8jHcHMoVeRn_14threadkit_http11create_site0s1_0B5_
FNDA:0,_RNCNCNvCs8jHcHMoVeRn_14threadkit_http11create_site0s2_0B5_
FNDA:0,_RNCNCNvCs8jHcHMoVeRn_14threadkit_http11create_site0s3_0B5_
FNDA:0,_RNCNCNvCs8jHcHMoVeRn_14threadkit_http11create_site0s4_0B5_
FNDA:0,_RNCNCNvCs8jHcHMoVeRn_14threadkit_http11create_site0s5_0B5_
FNDA:0,_RNCNCNvCs8jHcHMoVeRn_14threadkit_http11create_site0s6_0B5_
FNDA:0,_RNCNCNvCs8jHcHMoVeRn_14threadkit_http11create_site0s7_0B5_
FNDA:0,_RNCNCNvCs8jHcHMoVeRn_14threadkit_http11create_site0s8_0B5_
FNDA:0,_RNCNCNvCs8jHcHMoVeRn_14threadkit_http11create_site0s9_0B5_
FNDA:0,_RNCNCNvCs8jHcHMoVeRn_14threadkit_http11create_site0s_0B5_
FNDA:0,_RNCNCNvCs8jHcHMoVeRn_14threadkit_http11create_site0sa_0B5_
FNDA:0,_RNCNCNvCs8jHcHMoVeRn_14threadkit_http11create_site0sb_0B5_
FNDA:0,_RNCNCNvCs8jHcHMoVeRn_14threadkit_http4main00B5_
FNDA:0,_RNCNCNvCs8jHcHMoVeRn_14threadkit_http4main0s0_0B5_
FNDA:0,_RNCNCNvCs8jHcHMoVeRn_14threadkit_http4main0s1_0B5_
FNDA:0,_RNCNCNvCs8jHcHMoVeRn_14threadkit_http4main0s2_0B5_
FNDA:0,_RNCNCNvCs8jHcHMoVeRn_14threadkit_http4main0s3_0B5_
FNDA:0,_RNCNCNvCs8jHcHMoVeRn_14threadkit_http4main0s_0B5_
FNDA:0,_RNCNCNvCs8jHcHMoVeRn_14threadkit_http9edit_site00B5_
FNDA:0,_RNCNCNvCs8jHcHMoVeRn_14threadkit_http9edit_site0s0_0B5_
FNDA:0,_RNCNCNvCs8jHcHMoVeRn_14threadkit_http9edit_site0s1_0B5_
FNDA:0,_RNCNCNvCs8jHcHMoVeRn_14threadkit_http9edit_site0s2_0B5_
FNDA:0,_RNCNCNvCs8jHcHMoVeRn_14threadkit_http9edit_site0s3_0B5_
FNDA:0,_RNCNCNvCs8jHcHMoVeRn_14threadkit_http9edit_site0s4_0B5_
FNDA:0,_RNCNCNvCs8jHcHMoVeRn_14threadkit_http9edit_site0s5_0B5_
FNDA:0,_RNCNCNvCs8jHcHMoVeRn_14threadkit_http9edit_site0s6_0B5_
FNDA:0,_RNCNCNvCs8jHcHMoVeRn_14threadkit_http9edit_site0s_0B5_
FNDA:0,_RNCNvCs8jHcHMoVeRn_14threadkit_http11create_site0B3_
FNDA:0,_RNCNvCs8jHcHMoVeRn_14threadkit_http12generate_key0B3_
FNDA:0,_RNCNvCs8jHcHMoVeRn_14threadkit_http12health_check0B3_
FNDA:0,_RNCNvCs8jHcHMoVeRn_14threadkit_http15shutdown_signal0B3_
FNDA:0,_RNCNvCs8jHcHMoVeRn_14threadkit_http17spider_easter_egg0B3_
FNDA:0,_RNCNvCs8jHcHMoVeRn_14threadkit_http4main0B3_
FNDA:0,_RNCNvCs8jHcHMoVeRn_14threadkit_http9edit_site0B3_
FNDA:0,_RNvCs8jHcHMoVeRn_14threadkit_http11create_site
FNDA:0,_RNvCs8jHcHMoVeRn_14threadkit_http12generate_key
FNDA:0,_RNvCs8jHcHMoVeRn_14threadkit_http12health_check
FNDA:0,_RNvCs8jHcHMoVeRn_14threadkit_http13setup_metrics
FNDA:0,_RNvCs8jHcHMoVeRn_14threadkit_http15shutdown_signal
FNDA:0,_RNvCs8jHcHMoVeRn_14threadkit_http17spider_easter_egg
FNDA:0,_RNvCs8jHcHMoVeRn_14threadkit_http4main
FNDA:0,_RNvCs8jHcHMoVeRn_14threadkit_http9edit_site
FNF:49
FNH:0
DA:79,0
DA:80,0
DA:83,0
DA:84,0
DA:85,0
DA:86,0
DA:87,0
DA:88,0
DA:91,0
DA:92,0
DA:93,0
DA:94,0
DA:95,0
DA:97,0
DA:98,0
DA:99,0
DA:100,0
DA:103,0
DA:104,0
DA:105,0
DA:106,0
DA:107,0
DA:110,0
DA:111,0
DA:112,0
DA:115,0
DA:116,0
DA:117,0
DA:120,0
DA:121,0
DA:122,0
DA:123,0
DA:125,0
DA:129,0
DA:130,0
DA:131,0
DA:132,0
DA:133,0
DA:134,0
DA:135,0
DA:136,0
DA:137,0
DA:138,0
DA:139,0
DA:140,0
DA:141,0
DA:142,0
DA:143,0
DA:145,0
DA:146,0
DA:149,0
DA:150,0
DA:151,0
DA:152,0
DA:155,0
DA:158,0
DA:161,0
DA:163,0
DA:165,0
DA:167,0
DA:168,0
DA:169,0
DA:170,0
DA:171,0
DA:172,0
DA:175,0
DA:176,0
DA:177,0
DA:179,0
DA:181,0
DA:183,0
DA:185,0
DA:186,0
DA:189,0
DA:190,0
DA:191,0
DA:192,0
DA:193,0
DA:194,0
DA:195,0
DA:196,0
DA:198,0
DA:201,0
DA:202,0
DA:203,0
DA:204,0
DA:205,0
DA:206,0
DA:208,0
DA:209,0
DA:210,0
DA:211,0
DA:213,0
DA:214,0
DA:216,0
DA:221,0
DA:222,0
DA:223,0
DA:224,0
DA:226,0
DA:227,0
DA:228,0
DA:229,0
DA:237,0
DA:238,0
DA:240,0
DA:241,0
DA:242,0
DA:245,0
DA:246,0
DA:248,0
DA:251,0
DA:252,0
DA:254,0
DA:255,0
DA:256,0
DA:257,0
DA:258,0
DA:259,0
DA:261,0
DA:262,0
DA:263,0
DA:264,0
DA:265,0
DA:266,0
DA:267,0
DA:268,0
DA:269,0
DA:270,0
DA:271,0
DA:272,0
DA:273,0
DA:274,0
DA:275,0
DA:276,0
DA:277,0
DA:278,0
DA:279,0
DA:280,0
DA:281,0
DA:282,0
DA:283,0
DA:284,0
DA:285,0
DA:286,0
DA:287,0
DA:288,0
DA:289,0
DA:290,0
DA:291,0
DA:292,0
DA:293,0
DA:294,0
DA:295,0
DA:296,0
DA:297,0
DA:298,0
DA:299,0
DA:300,0
DA:301,0
DA:302,0
DA:303,0
DA:304,0
DA:305,0
DA:306,0
DA:307,0
DA:308,0
DA:309,0
DA:310,0
DA:311,0
DA:312,0
DA:313,0
DA:314,0
DA:315,0
DA:316,0
DA:317,0
DA:318,0
DA:319,0
DA:320,0
DA:321,0
DA:322,0
DA:323,0
DA:324,0
DA:325,0
DA:326,0
DA:327,0
DA:328,0
DA:329,0
DA:330,0
DA:331,0
DA:332,0
DA:333,0
DA:334,0
DA:335,0
DA:336,0
DA:337,0
DA:338,0
DA:339,0
DA:340,0
DA:341,0
DA:342,0
DA:343,0
DA:344,0
DA:345,0
DA:346,0
DA:347,0
DA:348,0
DA:349,0
DA:350,0
DA:351,0
DA:352,0
DA:353,0
DA:354,0
DA:355,0
DA:356,0
DA:357,0
DA:358,0
DA:359,0
DA:360,0
DA:361,0
DA:362,0
DA:363,0
DA:364,0
DA:365,0
DA:366,0
DA:367,0
DA:368,0
DA:369,0
DA:370,0
DA:371,0
DA:372,0
DA:373,0
DA:374,0
DA:375,0
DA:376,0
DA:377,0
DA:378,0
DA:379,0
DA:380,0
DA:381,0
DA:382,0
DA:383,0
DA:384,0
DA:385,0
DA:386,0
DA:387,0
DA:388,0
DA:389,0
DA:390,0
DA:391,0
DA:392,0
DA:393,0
DA:394,0
DA:395,0
DA:396,0
DA:397,0
DA:398,0
DA:399,0
DA:400,0
DA:401,0
DA:402,0
DA:403,0
DA:404,0
DA:405,0
DA:406,0
DA:407,0
DA:408,0
DA:409,0
DA:410,0
DA:411,0
DA:412,0
DA:413,0
DA:414,0
DA:415,0
DA:416,0
DA:417,0
DA:418,0
DA:419,0
DA:420,0
DA:421,0
DA:422,0
DA:423,0
DA:424,0
DA:425,0
DA:430,0
DA:440,0
DA:441,0
DA:442,0
DA:445,0
DA:446,0
DA:447,0
DA:448,0
DA:450,0
DA:451,0
DA:452,0
DA:453,0
DA:454,0
DA:455,0
DA:456,0
DA:459,0
DA:460,0
DA:461,0
DA:462,0
DA:464,0
DA:465,0
DA:470,0
DA:471,0
DA:472,0
DA:473,0
DA:474,0
DA:475,0
DA:476,0
DA:477,0
DA:480,0
DA:481,0
DA:482,0
DA:485,0
DA:486,0
DA:487,0
DA:488,0
DA:489,0
DA:494,0
DA:495,0
DA:497,0
DA:498,0
DA:500,0
DA:501,0
DA:502,0
DA:503,0
DA:504,0
DA:505,0
DA:508,0
DA:511,0
DA:512,0
DA:513,0
DA:514,0
DA:515,0
DA:516,0
DA:517,0
DA:518,0
DA:522,0
DA:523,0
DA:524,0
DA:525,0
DA:526,0
DA:527,0
DA:528,0
DA:529,0
DA:530,0
DA:531,0
DA:532,0
DA:533,0
DA:534,0
DA:535,0
DA:536,0
DA:537,0
DA:538,0
DA:541,0
DA:542,0
DA:543,0
DA:544,0
DA:547,0
DA:548,0
DA:549,0
DA:550,0
DA:551,0
DA:552,0
DA:555,0
DA:556,0
DA:557,0
DA:558,0
DA:559,0
DA:560,0
DA:561,0
DA:562,0
DA:564,0
DA:565,0
DA:566,0
DA:568,0
DA:569,0
DA:573,0
DA:578,0
DA:579,0
DA:580,0
DA:583,0
DA:584,0
DA:586,0
DA:587,0
DA:592,0
DA:593,0
DA:594,0
DA:597,0
DA:598,0
DA:599,0
DA:600,0
DA:601,0
DA:606,0
DA:607,0
DA:609,0
DA:610,0
DA:612,0
DA:613,0
DA:614,0
DA:619,0
DA:620,0
DA:621,0
DA:622,0
DA:623,0
DA:624,0
DA:625,0
DA:626,0
DA:628,0
DA:629,0
DA:633,0
DA:634,0
DA:635,0
DA:636,0
DA:637,0
DA:638,0
DA:640,0
DA:641,0
DA:642,0
DA:643,0
DA:644,0
DA:645,0
DA:647,0
DA:649,0
DA:650,0
DA:651,0
DA:652,0
DA:653,0
DA:654,0
DA:655,0
DA:658,0
DA:659,0
DA:664,0
DA:665,0
DA:666,0
DA:667,0
DA:670,0
DA:671,0
DA:674,0
DA:677,0
DA:678,0
DA:679,0
DA:680,0
DA:681,0
DA:682,0
DA:683,0
BRF:0
BRH:0
LF:489
LH:0
end_of_record
SF:/Users/jt/code/threadkit/server/crates/http/src/middleware.rs
FN:49,_RNvMNtCsaszyX3GTrYE_14threadkit_http10middlewareNtB2_9RouteType11window_secs
FN:26,_RNvMNtCsaszyX3GTrYE_14threadkit_http10middlewareNtB2_9RouteType12from_request
FN:110,_RNvNtCsaszyX3GTrYE_14threadkit_http10middleware10rate_limit
FN:318,_RNvNtCsaszyX3GTrYE_14threadkit_http10middleware16security_headers
FN:59,_RNvNtCsaszyX3GTrYE_14threadkit_http10middleware17extract_client_ip
FN:281,_RNvNtCsaszyX3GTrYE_14threadkit_http10middleware19rate_limit_response
FN:102,_RNvNtCsaszyX3GTrYE_14threadkit_http10middleware7hash_ip
FN:133,_RNCNCNvNtCsaszyX3GTrYE_14threadkit_http10middleware10rate_limit00B7_
FN:140,_RNCNCNvNtCsaszyX3GTrYE_14threadkit_http10middleware10rate_limit0s0_0B7_
FN:141,_RNCNCNvNtCsaszyX3GTrYE_14threadkit_http10middleware10rate_limit0s1_0B7_
FN:142,_RNCNCNvNtCsaszyX3GTrYE_14threadkit_http10middleware10rate_limit0s2_0B7_
FN:212,_RNCNCNvNtCsaszyX3GTrYE_14threadkit_http10middleware10rate_limit0s9_0B7_
FN:134,_RNCNCNvNtCsaszyX3GTrYE_14threadkit_http10middleware10rate_limit0s_0B7_
FN:229,_RNCNCNvNtCsaszyX3GTrYE_14threadkit_http10middleware10rate_limit0sa_0B7_
FN:246,_RNCNCNvNtCsaszyX3GTrYE_14threadkit_http10middleware10rate_limit0sb_0B7_
FN:114,_RNCNvNtCsaszyX3GTrYE_14threadkit_http10middleware10rate_limit0B5_
FN:321,_RNCNvNtCsaszyX3GTrYE_14threadkit_http10middleware16security_headers0B5_
FN:64,_RNCNvNtCsaszyX3GTrYE_14threadkit_http10middleware17extract_client_ip0B5_
FN:72,_RNCNvNtCsaszyX3GTrYE_14threadkit_http10middleware17extract_client_ips0_0B5_
FN:87,_RNCNvNtCsaszyX3GTrYE_14threadkit_http10middleware17extract_client_ips1_0B5_
FN:68,_RNCNvNtCsaszyX3GTrYE_14threadkit_http10middleware17extract_client_ips_0B5_
FN:110,_RNvNtCskwAV7ptXVKm_14threadkit_http10middleware10rate_limit
FN:318,_RNvNtCskwAV7ptXVKm_14threadkit_http10middleware16security_headers
FN:49,_RNvMNtCskwAV7ptXVKm_14threadkit_http10middlewareNtB2_9RouteType11window_secs
FN:26,_RNvMNtCskwAV7ptXVKm_14threadkit_http10middlewareNtB2_9RouteType12from_request
FN:59,_RNvNtCskwAV7ptXVKm_14threadkit_http10middleware17extract_client_ip
FN:281,_RNvNtCskwAV7ptXVKm_14threadkit_http10middleware19rate_limit_response
FN:102,_RNvNtCskwAV7ptXVKm_14threadkit_http10middleware7hash_ip
FN:133,_RNCNCNvNtCskwAV7ptXVKm_14threadkit_http10middleware10rate_limit00B7_
FN:140,_RNCNCNvNtCskwAV7ptXVKm_14threadkit_http10middleware10rate_limit0s0_0B7_
FN:141,_RNCNCNvNtCskwAV7ptXVKm_14threadkit_http10middleware10rate_limit0s1_0B7_
FN:142,_RNCNCNvNtCskwAV7ptXVKm_14threadkit_http10middleware10rate_limit0s2_0B7_
FN:212,_RNCNCNvNtCskwAV7ptXVKm_14threadkit_http10middleware10rate_limit0s9_0B7_
FN:134,_RNCNCNvNtCskwAV7ptXVKm_14threadkit_http10middleware10rate_limit0s_0B7_
FN:229,_RNCNCNvNtCskwAV7ptXVKm_14threadkit_http10middleware10rate_limit0sa_0B7_
FN:246,_RNCNCNvNtCskwAV7ptXVKm_14threadkit_http10middleware10rate_limit0sb_0B7_
FN:114,_RNCNvNtCskwAV7ptXVKm_14threadkit_http10middleware10rate_limit0B5_
FN:321,_RNCNvNtCskwAV7ptXVKm_14threadkit_http10middleware16security_headers0B5_
FN:64,_RNCNvNtCskwAV7ptXVKm_14threadkit_http10middleware17extract_client_ip0B5_
FN:72,_RNCNvNtCskwAV7ptXVKm_14threadkit_http10middleware17extract_client_ips0_0B5_
FN:87,_RNCNvNtCskwAV7ptXVKm_14threadkit_http10middleware17extract_client_ips1_0B5_
FN:68,_RNCNvNtCskwAV7ptXVKm_14threadkit_http10middleware17extract_client_ips_0B5_
FNDA:195,_RNvMNtCsaszyX3GTrYE_14threadkit_http10middlewareNtB2_9RouteType11window_secs
FNDA:195,_RNvMNtCsaszyX3GTrYE_14threadkit_http10middlewareNtB2_9RouteType12from_request
FNDA:195,_RNvNtCsaszyX3GTrYE_14threadkit_http10middleware10rate_limit
FNDA:0,_RNvNtCsaszyX3GTrYE_14threadkit_http10middleware16security_headers
FNDA:195,_RNvNtCsaszyX3GTrYE_14threadkit_http10middleware17extract_client_ip
FNDA:0,_RNvNtCsaszyX3GTrYE_14threadkit_http10middleware19rate_limit_response
FNDA:195,_RNvNtCsaszyX3GTrYE_14threadkit_http10middleware7hash_ip
FNDA:190,_RNCNCNvNtCsaszyX3GTrYE_14threadkit_http10middleware10rate_limit00B7_
FNDA:90,_RNCNCNvNtCsaszyX3GTrYE_14threadkit_http10middleware10rate_limit0s0_0B7_
FNDA:90,_RNCNCNvNtCsaszyX3GTrYE_14threadkit_http10middleware10rate_limit0s1_0B7_
FNDA:90,_RNCNCNvNtCsaszyX3GTrYE_14threadkit_http10middleware10rate_limit0s2_0B7_
FNDA:0,_RNCNCNvNtCsaszyX3GTrYE_14threadkit_http10middleware10rate_limit0s9_0B7_
FNDA:190,_RNCNCNvNtCsaszyX3GTrYE_14threadkit_http10middleware10rate_limit0s_0B7_
FNDA:0,_RNCNCNvNtCsaszyX3GTrYE_14threadkit_http10middleware10rate_limit0sa_0B7_
FNDA:0,_RNCNCNvNtCsaszyX3GTrYE_14threadkit_http10middleware10rate_limit0sb_0B7_
FNDA:195,_RNCNvNtCsaszyX3GTrYE_14threadkit_http10middleware10rate_limit0B5_
FNDA:0,_RNCNvNtCsaszyX3GTrYE_14threadkit_http10middleware16security_headers0B5_
FNDA:0,_RNCNvNtCsaszyX3GTrYE_14threadkit_http10middleware17extract_client_ip0B5_
FNDA:0,_RNCNvNtCsaszyX3GTrYE_14threadkit_http10middleware17extract_client_ips0_0B5_
FNDA:0,_RNCNvNtCsaszyX3GTrYE_14threadkit_http10middleware17extract_client_ips1_0B5_
FNDA:0,_RNCNvNtCsaszyX3GTrYE_14threadkit_http10middleware17extract_client_ips_0B5_
FNDA:0,_RNvNtCskwAV7ptXVKm_14threadkit_http10middleware10rate_limit
FNDA:0,_RNvNtCskwAV7ptXVKm_14threadkit_http10middleware16security_headers
FNDA:0,_RNvMNtCskwAV7ptXVKm_14threadkit_http10middlewareNtB2_9RouteType11window_secs
FNDA:0,_RNvMNtCskwAV7ptXVKm_14threadkit_http10middlewareNtB2_9RouteType12from_request
FNDA:0,_RNvNtCskwAV7ptXVKm_14threadkit_http10middleware17extract_client_ip
FNDA:0,_RNvNtCskwAV7ptXVKm_14threadkit_http10middleware19rate_limit_response
FNDA:0,_RNvNtCskwAV7ptXVKm_14threadkit_http10middleware7hash_ip
FNDA:0,_RNCNCNvNtCskwAV7ptXVKm_14threadkit_http10middleware10rate_limit00B7_
FNDA:0,_RNCNCNvNtCskwAV7ptXVKm_14threadkit_http10middleware10rate_limit0s0_0B7_
FNDA:0,_RNCNCNvNtCskwAV7ptXVKm_14threadkit_http10middleware10rate_limit0s1_0B7_
FNDA:0,_RNCNCNvNtCskwAV7ptXVKm_14threadkit_http10middleware10rate_limit0s2_0B7_
FNDA:0,_RNCNCNvNtCskwAV7ptXVKm_14threadkit_http10middleware10rate_limit0s9_0B7_
FNDA:0,_RNCNCNvNtCskwAV7ptXVKm_14threadkit_http10middleware10rate_limit0s_0B7_
FNDA:0,_RNCNCNvNtCskwAV7ptXVKm_14threadkit_http10middleware10rate_limit0sa_0B7_
FNDA:0,_RNCNCNvNtCskwAV7ptXVKm_14threadkit_http10middleware10rate_limit0sb_0B7_
FNDA:0,_RNCNvNtCskwAV7ptXVKm_14threadkit_http10middleware10rate_limit0B5_
FNDA:0,_RNCNvNtCskwAV7ptXVKm_14threadkit_http10middleware16security_headers0B5_
FNDA:0,_RNCNvNtCskwAV7ptXVKm_14threadkit_http10middleware17extract_client_ip0B5_
FNDA:0,_RNCNvNtCskwAV7ptXVKm_14threadkit_http10middleware17extract_client_ips0_0B5_
FNDA:0,_RNCNvNtCskwAV7ptXVKm_14threadkit_http10middleware17extract_client_ips1_0B5_
FNDA:0,_RNCNvNtCskwAV7ptXVKm_14threadkit_http10middleware17extract_client_ips_0B5_
FNF:21
FNH:11
DA:26,195
DA:29,195
DA:30,195
DA:31,195
DA:32,195
DA:33,195
DA:34,195
DA:35,195
DA:36,195
DA:38,0
DA:39,195
DA:42,195
DA:43,29
DA:44,166
DA:46,195
DA:49,195
DA:50,195
DA:51,0
DA:52,166
DA:53,29
DA:55,195
DA:59,195
DA:61,195
DA:62,195
DA:63,195
DA:64,195
DA:68,0
DA:71,0
DA:72,0
DA:73,0
DA:74,0
DA:78,0
DA:79,0
DA:80,0
DA:81,195
DA:84,195
DA:85,195
DA:86,195
DA:87,195
DA:89,0
DA:90,195
DA:93,195
DA:94,0
DA:95,195
DA:98,195
DA:99,195
DA:102,195
DA:103,195
DA:104,195
DA:105,195
DA:106,195
DA:107,195
DA:110,195
DA:111,195
DA:112,195
DA:113,195
DA:114,195
DA:116,195
DA:117,0
DA:118,195
DA:120,195
DA:121,195
DA:122,195
DA:123,195
DA:126,195
DA:127,195
DA:130,195
DA:131,195
DA:132,195
DA:133,195
DA:134,195
DA:137,195
DA:138,195
DA:139,195
DA:140,195
DA:141,195
DA:142,195
DA:143,195
DA:146,195
DA:147,190
DA:148,93
DA:149,97
DA:150,97
DA:151,97
DA:152,97
DA:154,0
DA:157,0
DA:160,0
DA:163,5
DA:167,195
DA:168,195
DA:170,0
DA:171,0
DA:172,0
DA:173,0
DA:174,0
DA:177,166
DA:178,166
DA:179,166
DA:180,166
DA:181,166
DA:182,166
DA:183,166
DA:184,166
DA:185,166
DA:188,29
DA:189,29
DA:190,29
DA:191,29
DA:192,29
DA:193,29
DA:194,29
DA:195,29
DA:196,29
DA:200,195
DA:201,0
DA:202,166
DA:203,29
DA:207,195
DA:208,195
DA:209,195
DA:210,195
DA:211,195
DA:212,195
DA:213,0
DA:214,0
DA:215,0
DA:217,195
DA:218,0
DA:219,195
DA:222,195
DA:223,164
DA:224,164
DA:225,164
DA:226,164
DA:227,164
DA:228,164
DA:229,164
DA:230,0
DA:231,0
DA:232,0
DA:234,164
DA:235,0
DA:236,164
DA:237,31
DA:240,195
DA:241,90
DA:242,90
DA:243,90
DA:244,90
DA:245,90
DA:246,90
DA:247,0
DA:248,0
DA:249,0
DA:251,90
DA:252,0
DA:253,90
DA:254,90
DA:256,105
DA:260,195
DA:263,195
DA:264,195
DA:266,195
DA:268,195
DA:270,195
DA:272,195
DA:274,195
DA:277,195
DA:278,195
DA:281,0
DA:282,0
DA:283,0
DA:284,0
DA:285,0
DA:288,0
DA:289,0
DA:290,0
DA:291,0
DA:292,0
DA:294,0
DA:295,0
DA:297,0
DA:299,0
DA:300,0
DA:302,0
DA:304,0
DA:306,0
DA:307,0
DA:308,0
DA:309,0
DA:310,0
DA:313,0
DA:314,0
DA:318,0
DA:319,0
DA:320,0
DA:321,0
DA:322,0
DA:324,0
DA:331,0
DA:333,0
DA:334,0
DA:335,0
DA:339,0
DA:342,0
DA:346,0
DA:348,0
DA:352,0
DA:354,0
DA:355,0
DA:356,0
DA:358,0
DA:361,0
DA:364,0
DA:366,0
DA:369,0
DA:370,0
BRF:0
BRH:0
LF:235
LH:142
end_of_record
SF:/Users/jt/code/threadkit/server/crates/http/src/routes/admin.rs
FN:215,_RNvNtNtCsaszyX3GTrYE_14threadkit_http6routes5admin10get_admins
FN:117,_RNvNtNtCsaszyX3GTrYE_14threadkit_http6routes5admin11create_user
FN:308,_RNvNtNtCsaszyX3GTrYE_14threadkit_http6routes5admin12remove_admin
FN:395,_RNvNtNtCsaszyX3GTrYE_14threadkit_http6routes5admin13add_moderator
FN:344,_RNvNtNtCsaszyX3GTrYE_14threadkit_http6routes5admin14get_moderators
FN:451,_RNvNtNtCsaszyX3GTrYE_14threadkit_http6routes5admin16remove_moderator
FN:775,_RNvNtNtCsaszyX3GTrYE_14threadkit_http6routes5admin16set_page_posting
FN:694,_RNvNtNtCsaszyX3GTrYE_14threadkit_http6routes5admin16set_site_posting
FN:490,_RNvNtNtCsaszyX3GTrYE_14threadkit_http6routes5admin17get_site_comments
FN:663,_RNvNtNtCsaszyX3GTrYE_14threadkit_http6routes5admin18get_posting_status
FN:743,_RNvNtNtCsaszyX3GTrYE_14threadkit_http6routes5admin23get_page_posting_status
FN:568,_RNvNtNtCsaszyX3GTrYE_14threadkit_http6routes5admin23get_site_comments_owner
FN:23,_RNvNtNtCsaszyX3GTrYE_14threadkit_http6routes5admin6router
FN:263,_RNvNtNtCsaszyX3GTrYE_14threadkit_http6routes5admin9add_admin
FN:229,_RNCNCNvNtNtCsaszyX3GTrYE_14threadkit_http6routes5admin10get_admins00B9_
FN:241,_RNCNCNvNtNtCsaszyX3GTrYE_14threadkit_http6routes5admin10get_admins0s0_0B9_
FN:234,_RNCNCNvNtNtCsaszyX3GTrYE_14threadkit_http6routes5admin10get_admins0s_0B9_
FN:168,_RNCNCNvNtNtCsaszyX3GTrYE_14threadkit_http6routes5admin11create_user00B9_
FN:177,_RNCNCNvNtNtCsaszyX3GTrYE_14threadkit_http6routes5admin11create_user0s0_0B9_
FN:183,_RNCNCNvNtNtCsaszyX3GTrYE_14threadkit_http6routes5admin11create_user0s1_0B9_
FN:193,_RNCNCNvNtNtCsaszyX3GTrYE_14threadkit_http6routes5admin11create_user0s2_0B9_
FN:172,_RNCNCNvNtNtCsaszyX3GTrYE_14threadkit_http6routes5admin11create_user0s_0B9_
FN:321,_RNCNCNvNtNtCsaszyX3GTrYE_14threadkit_http6routes5admin12remove_admin00B9_
FN:413,_RNCNCNvNtNtCsaszyX3GTrYE_14threadkit_http6routes5admin13add_moderator00B9_
FN:431,_RNCNCNvNtNtCsaszyX3GTrYE_14threadkit_http6routes5admin13add_moderator0s0_0B9_
FN:421,_RNCNCNvNtNtCsaszyX3GTrYE_14threadkit_http6routes5admin13add_moderator0s_0B9_
FN:360,_RNCNCNvNtNtCsaszyX3GTrYE_14threadkit_http6routes5admin14get_moderators00B9_
FN:372,_RNCNCNvNtNtCsaszyX3GTrYE_14threadkit_http6routes5admin14get_moderators0s0_0B9_
FN:365,_RNCNCNvNtNtCsaszyX3GTrYE_14threadkit_http6routes5admin14get_moderators0s_0B9_
FN:467,_RNCNCNvNtNtCsaszyX3GTrYE_14threadkit_http6routes5admin16remove_moderator00B9_
FN:789,_RNCNCNvNtNtCsaszyX3GTrYE_14threadkit_http6routes5admin16set_page_posting00B9_
FN:795,_RNCNCNvNtNtCsaszyX3GTrYE_14threadkit_http6routes5admin16set_page_posting0s_0B9_
FN:715,_RNCNCNvNtNtCsaszyX3GTrYE_14threadkit_http6routes5admin16set_site_posting00B9_
FN:511,_RNCNCNvNtNtCsaszyX3GTrYE_14threadkit_http6routes5admin17get_site_comments00B9_
FN:524,_RNCNCNvNtNtCsaszyX3GTrYE_14threadkit_http6routes5admin17get_site_comments0s0_0B9_
FN:755,_RNCNCNvNtNtCsaszyX3GTrYE_14threadkit_http6routes5admin23get_page_posting_status00B9_
FN:587,_RNCNCNvNtNtCsaszyX3GTrYE_14threadkit_http6routes5admin23get_site_comments_owner00B9_
FN:600,_RNCNCNvNtNtCsaszyX3GTrYE_14threadkit_http6routes5admin23get_site_comments_owner0s0_0B9_
FN:278,_RNCNCNvNtNtCsaszyX3GTrYE_14threadkit_http6routes5admin9add_admin00B9_
FN:285,_RNCNCNvNtNtCsaszyX3GTrYE_14threadkit_http6routes5admin9add_admin0s_0B9_
FN:219,_RNCNvNtNtCsaszyX3GTrYE_14threadkit_http6routes5admin10get_admins0B7_
FN:121,_RNCNvNtNtCsaszyX3GTrYE_14threadkit_http6routes5admin11create_user0B7_
FN:312,_RNCNvNtNtCsaszyX3GTrYE_14threadkit_http6routes5admin12remove_admin0B7_
FN:401,_RNCNvNtNtCsaszyX3GTrYE_14threadkit_http6routes5admin13add_moderator0B7_
FN:349,_RNCNvNtNtCsaszyX3GTrYE_14threadkit_http6routes5admin14get_moderators0B7_
FN:456,_RNCNvNtNtCsaszyX3GTrYE_14threadkit_http6routes5admin16remove_moderator0B7_
FN:781,_RNCNvNtNtCsaszyX3GTrYE_14threadkit_http6routes5admin16set_page_posting0B7_
FN:700,_RNCNvNtNtCsaszyX3GTrYE_14threadkit_http6routes5admin16set_site_posting0B7_
FN:496,_RNCNvNtNtCsaszyX3GTrYE_14threadkit_http6routes5admin17get_site_comments0B7_
FN:667,_RNCNvNtNtCsaszyX3GTrYE_14threadkit_http6routes5admin18get_posting_status0B7_
FN:748,_RNCNvNtNtCsaszyX3GTrYE_14threadkit_http6routes5admin23get_page_posting_status0B7_
FN:573,_RNCNvNtNtCsaszyX3GTrYE_14threadkit_http6routes5admin23get_site_comments_owner0B7_
FN:268,_RNCNvNtNtCsaszyX3GTrYE_14threadkit_http6routes5admin9add_admin0B7_
FN:215,_RNvNtNtCskwAV7ptXVKm_14threadkit_http6routes5admin10get_admins
FN:117,_RNvNtNtCskwAV7ptXVKm_14threadkit_http6routes5admin11create_user
FN:308,_RNvNtNtCskwAV7ptXVKm_14threadkit_http6routes5admin12remove_admin
FN:395,_RNvNtNtCskwAV7ptXVKm_14threadkit_http6routes5admin13add_moderator
FN:344,_RNvNtNtCskwAV7ptXVKm_14threadkit_http6routes5admin14get_moderators
FN:451,_RNvNtNtCskwAV7ptXVKm_14threadkit_http6routes5admin16remove_moderator
FN:775,_RNvNtNtCskwAV7ptXVKm_14threadkit_http6routes5admin16set_page_posting
FN:694,_RNvNtNtCskwAV7ptXVKm_14threadkit_http6routes5admin16set_site_posting
FN:490,_RNvNtNtCskwAV7ptXVKm_14threadkit_http6routes5admin17get_site_comments
FN:663,_RNvNtNtCskwAV7ptXVKm_14threadkit_http6routes5admin18get_posting_status
FN:743,_RNvNtNtCskwAV7ptXVKm_14threadkit_http6routes5admin23get_page_posting_status
FN:568,_RNvNtNtCskwAV7ptXVKm_14threadkit_http6routes5admin23get_site_comments_owner
FN:23,_RNvNtNtCskwAV7ptXVKm_14threadkit_http6routes5admin6router
FN:263,_RNvNtNtCskwAV7ptXVKm_14threadkit_http6routes5admin9add_admin
FN:229,_RNCNCNvNtNtCskwAV7ptXVKm_14threadkit_http6routes5admin10get_admins00B9_
FN:241,_RNCNCNvNtNtCskwAV7ptXVKm_14threadkit_http6routes5admin10get_admins0s0_0B9_
FN:234,_RNCNCNvNtNtCskwAV7ptXVKm_14threadkit_http6routes5admin10get_admins0s_0B9_
FN:168,_RNCNCNvNtNtCskwAV7ptXVKm_14threadkit_http6routes5admin11create_user00B9_
FN:177,_RNCNCNvNtNtCskwAV7ptXVKm_14threadkit_http6routes5admin11create_user0s0_0B9_
FN:183,_RNCNCNvNtNtCskwAV7ptXVKm_14threadkit_http6routes5admin11create_user0s1_0B9_
FN:193,_RNCNCNvNtNtCskwAV7ptXVKm_14threadkit_http6routes5admin11create_user0s2_0B9_
FN:172,_RNCNCNvNtNtCskwAV7ptXVKm_14threadkit_http6routes5admin11create_user0s_0B9_
FN:321,_RNCNCNvNtNtCskwAV7ptXVKm_14threadkit_http6routes5admin12remove_admin00B9_
FN:413,_RNCNCNvNtNtCskwAV7ptXVKm_14threadkit_http6routes5admin13add_moderator00B9_
FN:431,_RNCNCNvNtNtCskwAV7ptXVKm_14threadkit_http6routes5admin13add_moderator0s0_0B9_
FN:421,_RNCNCNvNtNtCskwAV7ptXVKm_14threadkit_http6routes5admin13add_moderator0s_0B9_
FN:360,_RNCNCNvNtNtCskwAV7ptXVKm_14threadkit_http6routes5admin14get_moderators00B9_
FN:372,_RNCNCNvNtNtCskwAV7ptXVKm_14threadkit_http6routes5admin14get_moderators0s0_0B9_
FN:365,_RNCNCNvNtNtCskwAV7ptXVKm_14threadkit_http6routes5admin14get_moderators0s_0B9_
FN:467,_RNCNCNvNtNtCskwAV7ptXVKm_14threadkit_http6routes5admin16remove_moderator00B9_
FN:789,_RNCNCNvNtNtCskwAV7ptXVKm_14threadkit_http6routes5admin16set_page_posting00B9_
FN:795,_RNCNCNvNtNtCskwAV7ptXVKm_14threadkit_http6routes5admin16set_page_posting0s_0B9_
FN:715,_RNCNCNvNtNtCskwAV7ptXVKm_14threadkit_http6routes5admin16set_site_posting00B9_
FN:511,_RNCNCNvNtNtCskwAV7ptXVKm_14threadkit_http6routes5admin17get_site_comments00B9_
FN:524,_RNCNCNvNtNtCskwAV7ptXVKm_14threadkit_http6routes5admin17get_site_comments0s0_0B9_
FN:755,_RNCNCNvNtNtCskwAV7ptXVKm_14threadkit_http6routes5admin23get_page_posting_status00B9_
FN:587,_RNCNCNvNtNtCskwAV7ptXVKm_14threadkit_http6routes5admin23get_site_comments_owner00B9_
FN:600,_RNCNCNvNtNtCskwAV7ptXVKm_14threadkit_http6routes5admin23get_site_comments_owner0s0_0B9_
FN:278,_RNCNCNvNtNtCskwAV7ptXVKm_14threadkit_http6routes5admin9add_admin00B9_
FN:285,_RNCNCNvNtNtCskwAV7ptXVKm_14threadkit_http6routes5admin9add_admin0s_0B9_
FN:219,_RNCNvNtNtCskwAV7ptXVKm_14threadkit_http6routes5admin10get_admins0B7_
FN:121,_RNCNvNtNtCskwAV7ptXVKm_14threadkit_http6routes5admin11create_user0B7_
FN:312,_RNCNvNtNtCskwAV7ptXVKm_14threadkit_http6routes5admin12remove_admin0B7_
FN:401,_RNCNvNtNtCskwAV7ptXVKm_14threadkit_http6routes5admin13add_moderator0B7_
FN:349,_RNCNvNtNtCskwAV7ptXVKm_14threadkit_http6routes5admin14get_moderators0B7_
FN:456,_RNCNvNtNtCskwAV7ptXVKm_14threadkit_http6routes5admin16remove_moderator0B7_
FN:781,_RNCNvNtNtCskwAV7ptXVKm_14threadkit_http6routes5admin16set_page_posting0B7_
FN:700,_RNCNvNtNtCskwAV7ptXVKm_14threadkit_http6routes5admin16set_site_posting0B7_
FN:496,_RNCNvNtNtCskwAV7ptXVKm_14threadkit_http6routes5admin17get_site_comments0B7_
FN:667,_RNCNvNtNtCskwAV7ptXVKm_14threadkit_http6routes5admin18get_posting_status0B7_
FN:748,_RNCNvNtNtCskwAV7ptXVKm_14threadkit_http6routes5admin23get_page_posting_status0B7_
FN:573,_RNCNvNtNtCskwAV7ptXVKm_14threadkit_http6routes5admin23get_site_comments_owner0B7_
FN:268,_RNCNvNtNtCskwAV7ptXVKm_14threadkit_http6routes5admin9add_admin0B7_
FNDA:0,_RNvNtNtCsaszyX3GTrYE_14threadkit_http6routes5admin10get_admins
FNDA:66,_RNvNtNtCsaszyX3GTrYE_14threadkit_http6routes5admin11create_user
FNDA:0,_RNvNtNtCsaszyX3GTrYE_14threadkit_http6routes5admin12remove_admin
FNDA:0,_RNvNtNtCsaszyX3GTrYE_14threadkit_http6routes5admin13add_moderator
FNDA:0,_RNvNtNtCsaszyX3GTrYE_14threadkit_http6routes5admin14get_moderators
FNDA:0,_RNvNtNtCsaszyX3GTrYE_14threadkit_http6routes5admin16remove_moderator
FNDA:0,_RNvNtNtCsaszyX3GTrYE_14threadkit_http6routes5admin16set_page_posting
FNDA:0,_RNvNtNtCsaszyX3GTrYE_14threadkit_http6routes5admin16set_site_posting
FNDA:0,_RNvNtNtCsaszyX3GTrYE_14threadkit_http6routes5admin17get_site_comments
FNDA:0,_RNvNtNtCsaszyX3GTrYE_14threadkit_http6routes5admin18get_posting_status
FNDA:0,_RNvNtNtCsaszyX3GTrYE_14threadkit_http6routes5admin23get_page_posting_status
FNDA:0,_RNvNtNtCsaszyX3GTrYE_14threadkit_http6routes5admin23get_site_comments_owner
FNDA:62,_RNvNtNtCsaszyX3GTrYE_14threadkit_http6routes5admin6router
FNDA:0,_RNvNtNtCsaszyX3GTrYE_14threadkit_http6routes5admin9add_admin
FNDA:0,_RNCNCNvNtNtCsaszyX3GTrYE_14threadkit_http6routes5admin10get_admins00B9_
FNDA:0,_RNCNCNvNtNtCsaszyX3GTrYE_14threadkit_http6routes5admin10get_admins0s0_0B9_
FNDA:0,_RNCNCNvNtNtCsaszyX3GTrYE_14threadkit_http6routes5admin10get_admins0s_0B9_
FNDA:0,_RNCNCNvNtNtCsaszyX3GTrYE_14threadkit_http6routes5admin11create_user00B9_
FNDA:0,_RNCNCNvNtNtCsaszyX3GTrYE_14threadkit_http6routes5admin11create_user0s0_0B9_
FNDA:0,_RNCNCNvNtNtCsaszyX3GTrYE_14threadkit_http6routes5admin11create_user0s1_0B9_
FNDA:0,_RNCNCNvNtNtCsaszyX3GTrYE_14threadkit_http6routes5admin11create_user0s2_0B9_
FNDA:0,_RNCNCNvNtNtCsaszyX3GTrYE_14threadkit_http6routes5admin11create_user0s_0B9_
FNDA:0,_RNCNCNvNtNtCsaszyX3GTrYE_14threadkit_http6routes5admin12remove_admin00B9_
FNDA:0,_RNCNCNvNtNtCsaszyX3GTrYE_14threadkit_http6routes5admin13add_moderator00B9_
FNDA:0,_RNCNCNvNtNtCsaszyX3GTrYE_14threadkit_http6routes5admin13add_moderator0s0_0B9_
FNDA:0,_RNCNCNvNtNtCsaszyX3GTrYE_14threadkit_http6routes5admin13add_moderator0s_0B9_
FNDA:0,_RNCNCNvNtNtCsaszyX3GTrYE_14threadkit_http6routes5admin14get_moderators00B9_
FNDA:0,_RNCNCNvNtNtCsaszyX3GTrYE_14threadkit_http6routes5admin14get_moderators0s0_0B9_
FNDA:0,_RNCNCNvNtNtCsaszyX3GTrYE_14threadkit_http6routes5admin14get_moderators0s_0B9_
FNDA:0,_RNCNCNvNtNtCsaszyX3GTrYE_14threadkit_http6routes5admin16remove_moderator00B9_
FNDA:0,_RNCNCNvNtNtCsaszyX3GTrYE_14threadkit_http6routes5admin16set_page_posting00B9_
FNDA:0,_RNCNCNvNtNtCsaszyX3GTrYE_14threadkit_http6routes5admin16set_page_posting0s_0B9_
FNDA:0,_RNCNCNvNtNtCsaszyX3GTrYE_14threadkit_http6routes5admin16set_site_posting00B9_
FNDA:0,_RNCNCNvNtNtCsaszyX3GTrYE_14threadkit_http6routes5admin17get_site_comments00B9_
FNDA:0,_RNCNCNvNtNtCsaszyX3GTrYE_14threadkit_http6routes5admin17get_site_comments0s0_0B9_
FNDA:0,_RNCNCNvNtNtCsaszyX3GTrYE_14threadkit_http6routes5admin23get_page_posting_status00B9_
FNDA:0,_RNCNCNvNtNtCsaszyX3GTrYE_14threadkit_http6routes5admin23get_site_comments_owner00B9_
FNDA:0,_RNCNCNvNtNtCsaszyX3GTrYE_14threadkit_http6routes5admin23get_site_comments_owner0s0_0B9_
FNDA:0,_RNCNCNvNtNtCsaszyX3GTrYE_14threadkit_http6routes5admin9add_admin00B9_
FNDA:0,_RNCNCNvNtNtCsaszyX3GTrYE_14threadkit_http6routes5admin9add_admin0s_0B9_
FNDA:0,_RNCNvNtNtCsaszyX3GTrYE_14threadkit_http6routes5admin10get_admins0B7_
FNDA:66,_RNCNvNtNtCsaszyX3GTrYE_14threadkit_http6routes5admin11create_user0B7_
FNDA:0,_RNCNvNtNtCsaszyX3GTrYE_14threadkit_http6routes5admin12remove_admin0B7_
FNDA:0,_RNCNvNtNtCsaszyX3GTrYE_14threadkit_http6routes5admin13add_moderator0B7_
FNDA:0,_RNCNvNtNtCsaszyX3GTrYE_14threadkit_http6routes5admin14get_moderators0B7_
FNDA:0,_RNCNvNtNtCsaszyX3GTrYE_14threadkit_http6routes5admin16remove_moderator0B7_
FNDA:0,_RNCNvNtNtCsaszyX3GTrYE_14threadkit_http6routes5admin16set_page_posting0B7_
FNDA:0,_RNCNvNtNtCsaszyX3GTrYE_14threadkit_http6routes5admin16set_site_posting0B7_
FNDA:0,_RNCNvNtNtCsaszyX3GTrYE_14threadkit_http6routes5admin17get_site_comments0B7_
FNDA:0,_RNCNvNtNtCsaszyX3GTrYE_14threadkit_http6routes5admin18get_posting_status0B7_
FNDA:0,_RNCNvNtNtCsaszyX3GTrYE_14threadkit_http6routes5admin23get_page_posting_status0B7_
FNDA:0,_RNCNvNtNtCsaszyX3GTrYE_14threadkit_http6routes5admin23get_site_comments_owner0B7_
FNDA:0,_RNCNvNtNtCsaszyX3GTrYE_14threadkit_http6routes5admin9add_admin0B7_
FNDA:0,_RNvNtNtCskwAV7ptXVKm_14threadkit_http6routes5admin10get_admins
FNDA:0,_RNvNtNtCskwAV7ptXVKm_14threadkit_http6routes5admin11create_user
FNDA:0,_RNvNtNtCskwAV7ptXVKm_14threadkit_http6routes5admin12remove_admin
FNDA:0,_RNvNtNtCskwAV7ptXVKm_14threadkit_http6routes5admin13add_moderator
FNDA:0,_RNvNtNtCskwAV7ptXVKm_14threadkit_http6routes5admin14get_moderators
FNDA:0,_RNvNtNtCskwAV7ptXVKm_14threadkit_http6routes5admin16remove_moderator
FNDA:0,_RNvNtNtCskwAV7ptXVKm_14threadkit_http6routes5admin16set_page_posting
FNDA:0,_RNvNtNtCskwAV7ptXVKm_14threadkit_http6routes5admin16set_site_posting
FNDA:0,_RNvNtNtCskwAV7ptXVKm_14threadkit_http6routes5admin17get_site_comments
FNDA:0,_RNvNtNtCskwAV7ptXVKm_14threadkit_http6routes5admin18get_posting_status
FNDA:0,_RNvNtNtCskwAV7ptXVKm_14threadkit_http6routes5admin23get_page_posting_status
FNDA:0,_RNvNtNtCskwAV7ptXVKm_14threadkit_http6routes5admin23get_site_comments_owner
FNDA:0,_RNvNtNtCskwAV7ptXVKm_14threadkit_http6routes5admin6router
FNDA:0,_RNvNtNtCskwAV7ptXVKm_14threadkit_http6routes5admin9add_admin
FNDA:0,_RNCNCNvNtNtCskwAV7ptXVKm_14threadkit_http6routes5admin10get_admins00B9_
FNDA:0,_RNCNCNvNtNtCskwAV7ptXVKm_14threadkit_http6routes5admin10get_admins0s0_0B9_
FNDA:0,_RNCNCNvNtNtCskwAV7ptXVKm_14threadkit_http6routes5admin10get_admins0s_0B9_
FNDA:0,_RNCNCNvNtNtCskwAV7ptXVKm_14threadkit_http6routes5admin11create_user00B9_
FNDA:0,_RNCNCNvNtNtCskwAV7ptXVKm_14threadkit_http6routes5admin11create_user0s0_0B9_
FNDA:0,_RNCNCNvNtNtCskwAV7ptXVKm_14threadkit_http6routes5admin11create_user0s1_0B9_
FNDA:0,_RNCNCNvNtNtCskwAV7ptXVKm_14threadkit_http6routes5admin11create_user0s2_0B9_
FNDA:0,_RNCNCNvNtNtCskwAV7ptXVKm_14threadkit_http6routes5admin11create_user0s_0B9_
FNDA:0,_RNCNCNvNtNtCskwAV7ptXVKm_14threadkit_http6routes5admin12remove_admin00B9_
FNDA:0,_RNCNCNvNtNtCskwAV7ptXVKm_14threadkit_http6routes5admin13add_moderator00B9_
FNDA:0,_RNCNCNvNtNtCskwAV7ptXVKm_14threadkit_http6routes5admin13add_moderator0s0_0B9_
FNDA:0,_RNCNCNvNtNtCskwAV7ptXVKm_14threadkit_http6routes5admin13add_moderator0s_0B9_
FNDA:0,_RNCNCNvNtNtCskwAV7ptXVKm_14threadkit_http6routes5admin14get_moderators00B9_
FNDA:0,_RNCNCNvNtNtCskwAV7ptXVKm_14threadkit_http6routes5admin14get_moderators0s0_0B9_
FNDA:0,_RNCNCNvNtNtCskwAV7ptXVKm_14threadkit_http6routes5admin14get_moderators0s_0B9_
FNDA:0,_RNCNCNvNtNtCskwAV7ptXVKm_14threadkit_http6routes5admin16remove_moderator00B9_
FNDA:0,_RNCNCNvNtNtCskwAV7ptXVKm_14threadkit_http6routes5admin16set_page_posting00B9_
FNDA:0,_RNCNCNvNtNtCskwAV7ptXVKm_14threadkit_http6routes5admin16set_page_posting0s_0B9_
FNDA:0,_RNCNCNvNtNtCskwAV7ptXVKm_14threadkit_http6routes5admin16set_site_posting00B9_
FNDA:0,_RNCNCNvNtNtCskwAV7ptXVKm_14threadkit_http6routes5admin17get_site_comments00B9_
FNDA:0,_RNCNCNvNtNtCskwAV7ptXVKm_14threadkit_http6routes5admin17get_site_comments0s0_0B9_
FNDA:0,_RNCNCNvNtNtCskwAV7ptXVKm_14threadkit_http6routes5admin23get_page_posting_status00B9_
FNDA:0,_RNCNCNvNtNtCskwAV7ptXVKm_14threadkit_http6routes5admin23get_site_comments_owner00B9_
FNDA:0,_RNCNCNvNtNtCskwAV7ptXVKm_14threadkit_http6routes5admin23get_site_comments_owner0s0_0B9_
FNDA:0,_RNCNCNvNtNtCskwAV7ptXVKm_14threadkit_http6routes5admin9add_admin00B9_
FNDA:0,_RNCNCNvNtNtCskwAV7ptXVKm_14threadkit_http6routes5admin9add_admin0s_0B9_
FNDA:0,_RNCNvNtNtCskwAV7ptXVKm_14threadkit_http6routes5admin10get_admins0B7_
FNDA:0,_RNCNvNtNtCskwAV7ptXVKm_14threadkit_http6routes5admin11create_user0B7_
FNDA:0,_RNCNvNtNtCskwAV7ptXVKm_14threadkit_http6routes5admin12remove_admin0B7_
FNDA:0,_RNCNvNtNtCskwAV7ptXVKm_14threadkit_http6routes5admin13add_moderator0B7_
FNDA:0,_RNCNvNtNtCskwAV7ptXVKm_14threadkit_http6routes5admin14get_moderators0B7_
FNDA:0,_RNCNvNtNtCskwAV7ptXVKm_14threadkit_http6routes5admin16remove_moderator0B7_
FNDA:0,_RNCNvNtNtCskwAV7ptXVKm_14threadkit_http6routes5admin16set_page_posting0B7_
FNDA:0,_RNCNvNtNtCskwAV7ptXVKm_14threadkit_http6routes5admin16set_site_posting0B7_
FNDA:0,_RNCNvNtNtCskwAV7ptXVKm_14threadkit_http6routes5admin17get_site_comments0B7_
FNDA:0,_RNCNvNtNtCskwAV7ptXVKm_14threadkit_http6routes5admin18get_posting_status0B7_
FNDA:0,_RNCNvNtNtCskwAV7ptXVKm_14threadkit_http6routes5admin23get_page_posting_status0B7_
FNDA:0,_RNCNvNtNtCskwAV7ptXVKm_14threadkit_http6routes5admin23get_site_comments_owner0B7_
FNDA:0,_RNCNvNtNtCskwAV7ptXVKm_14threadkit_http6routes5admin9add_admin0B7_
FNF:53
FNH:3
DA:23,62
DA:24,62
DA:26,62
DA:28,62
DA:29,62
DA:31,62
DA:32,62
DA:34,62
DA:36,62
DA:38,62
DA:39,62
DA:40,62
DA:117,66
DA:118,66
DA:119,66
DA:120,66
DA:121,66
DA:124,66
DA:125,0
DA:126,66
DA:129,66
DA:130,0
DA:131,66
DA:134,66
DA:135,0
DA:136,66
DA:139,66
DA:140,66
DA:141,0
DA:142,66
DA:143,0
DA:146,66
DA:147,66
DA:149,66
DA:150,66
DA:151,66
DA:152,66
DA:153,66
DA:154,66
DA:155,66
DA:156,66
DA:157,66
DA:158,66
DA:159,66
DA:160,66
DA:161,66
DA:162,66
DA:163,66
DA:164,66
DA:167,66
DA:168,66
DA:171,66
DA:172,66
DA:175,66
DA:176,66
DA:177,66
DA:178,0
DA:181,66
DA:182,66
DA:183,66
DA:186,66
DA:187,66
DA:188,66
DA:189,66
DA:190,66
DA:191,66
DA:193,66
DA:195,66
DA:196,66
DA:197,66
DA:198,66
DA:199,66
DA:215,0
DA:216,0
DA:217,0
DA:218,0
DA:219,0
DA:221,0
DA:222,0
DA:223,0
DA:225,0
DA:226,0
DA:227,0
DA:228,0
DA:229,0
DA:232,0
DA:233,0
DA:234,0
DA:235,0
DA:237,0
DA:239,0
DA:240,0
DA:241,0
DA:242,0
DA:244,0
DA:245,0
DA:263,0
DA:264,0
DA:265,0
DA:266,0
DA:267,0
DA:268,0
DA:269,0
DA:270,0
DA:271,0
DA:274,0
DA:275,0
DA:276,0
DA:277,0
DA:278,0
DA:279,0
DA:281,0
DA:282,0
DA:283,0
DA:284,0
DA:285,0
DA:288,0
DA:290,0
DA:291,0
DA:308,0
DA:309,0
DA:310,0
DA:311,0
DA:312,0
DA:313,0
DA:314,0
DA:315,0
DA:317,0
DA:318,0
DA:319,0
DA:320,0
DA:321,0
DA:323,0
DA:324,0
DA:344,0
DA:345,0
DA:346,0
DA:347,0
DA:348,0
DA:349,0
DA:350,0
DA:352,0
DA:353,0
DA:354,0
DA:356,0
DA:357,0
DA:358,0
DA:359,0
DA:360,0
DA:363,0
DA:364,0
DA:365,0
DA:366,0
DA:368,0
DA:370,0
DA:371,0
DA:372,0
DA:373,0
DA:375,0
DA:376,0
DA:395,0
DA:396,0
DA:397,0
DA:398,0
DA:399,0
DA:400,0
DA:401,0
DA:402,0
DA:404,0
DA:405,0
DA:406,0
DA:409,0
DA:410,0
DA:411,0
DA:412,0
DA:413,0
DA:414,0
DA:417,0
DA:418,0
DA:419,0
DA:420,0
DA:421,0
DA:423,0
DA:424,0
DA:425,0
DA:427,0
DA:428,0
DA:429,0
DA:430,0
DA:431,0
DA:433,0
DA:434,0
DA:451,0
DA:452,0
DA:453,0
DA:454,0
DA:455,0
DA:456,0
DA:457,0
DA:459,0
DA:460,0
DA:461,0
DA:463,0
DA:464,0
DA:465,0
DA:466,0
DA:467,0
DA:469,0
DA:470,0
DA:490,0
DA:491,0
DA:492,0
DA:493,0
DA:494,0
DA:495,0
DA:496,0
DA:497,0
DA:499,0
DA:500,0
DA:501,0
DA:503,0
DA:504,0
DA:507,0
DA:508,0
DA:509,0
DA:510,0
DA:511,0
DA:513,0
DA:514,0
DA:517,0
DA:518,0
DA:519,0
DA:522,0
DA:523,0
DA:524,0
DA:525,0
DA:527,0
DA:530,0
DA:531,0
DA:532,0
DA:533,0
DA:534,0
DA:538,0
DA:539,0
DA:540,0
DA:541,0
DA:542,0
DA:543,0
DA:544,0
DA:545,0
DA:546,0
DA:547,0
DA:550,0
DA:551,0
DA:568,0
DA:569,0
DA:570,0
DA:571,0
DA:572,0
DA:573,0
DA:575,0
DA:576,0
DA:577,0
DA:579,0
DA:580,0
DA:583,0
DA:584,0
DA:585,0
DA:586,0
DA:587,0
DA:589,0
DA:590,0
DA:593,0
DA:594,0
DA:595,0
DA:598,0
DA:599,0
DA:600,0
DA:601,0
DA:603,0
DA:606,0
DA:607,0
DA:608,0
DA:609,0
DA:610,0
DA:614,0
DA:615,0
DA:616,0
DA:617,0
DA:618,0
DA:619,0
DA:620,0
DA:621,0
DA:622,0
DA:623,0
DA:626,0
DA:627,0
DA:663,0
DA:664,0
DA:665,0
DA:666,0
DA:667,0
DA:668,0
DA:670,0
DA:671,0
DA:672,0
DA:674,0
DA:675,0
DA:676,0
DA:677,0
DA:694,0
DA:695,0
DA:696,0
DA:697,0
DA:698,0
DA:699,0
DA:700,0
DA:701,0
DA:703,0
DA:704,0
DA:705,0
DA:708,0
DA:709,0
DA:711,0
DA:712,0
DA:713,0
DA:714,0
DA:715,0
DA:720,0
DA:721,0
DA:722,0
DA:723,0
DA:743,0
DA:744,0
DA:745,0
DA:746,0
DA:747,0
DA:748,0
DA:749,0
DA:751,0
DA:752,0
DA:753,0
DA:754,0
DA:755,0
DA:757,0
DA:758,0
DA:775,0
DA:776,0
DA:777,0
DA:778,0
DA:779,0
DA:780,0
DA:781,0
DA:782,0
DA:784,0
DA:785,0
DA:786,0
DA:787,0
DA:788,0
DA:789,0
DA:791,0
DA:792,0
DA:793,0
DA:794,0
DA:795,0
DA:798,0
DA:799,0
DA:800,0
DA:801,0
BRF:0
BRH:0
LF:408
LH:67
end_of_record
SF:/Users/jt/code/threadkit/server/crates/http/src/routes/auth.rs
FN:962,_RNvNCNvNtNtCsaszyX3GTrYE_14threadkit_http6routes4auth20oauth_callback_inner010extract_id
FN:345,_RNvNtNtCsaszyX3GTrYE_14threadkit_http6routes4auth10verify_otp
FN:728,_RNvNtNtCsaszyX3GTrYE_14threadkit_http6routes4auth11oauth_start
FN:191,_RNvNtNtCsaszyX3GTrYE_14threadkit_http6routes4auth12auth_methods
FN:38,_RNvNtNtCsaszyX3GTrYE_14threadkit_http6routes4auth12oauth_router
FN:1237,_RNvNtNtCsaszyX3GTrYE_14threadkit_http6routes4auth12solana_nonce
FN:647,_RNvNtNtCsaszyX3GTrYE_14threadkit_http6routes4auth13refresh_token
FN:1273,_RNvNtNtCsaszyX3GTrYE_14threadkit_http6routes4auth13solana_verify
FN:1116,_RNvNtNtCsaszyX3GTrYE_14threadkit_http6routes4auth14ethereum_nonce
FN:889,_RNvNtNtCsaszyX3GTrYE_14threadkit_http6routes4auth14oauth_callback
FN:484,_RNvNtNtCsaszyX3GTrYE_14threadkit_http6routes4auth15anonymous_login
FN:1152,_RNvNtNtCsaszyX3GTrYE_14threadkit_http6routes4auth15ethereum_verify
FN:459,_RNvNtNtCsaszyX3GTrYE_14threadkit_http6routes4auth18generate_random_id
FN:900,_RNvNtNtCsaszyX3GTrYE_14threadkit_http6routes4auth20oauth_callback_inner
FN:767,_RNvNtNtCsaszyX3GTrYE_14threadkit_http6routes4auth20oauth_error_response
FN:571,_RNvNtNtCsaszyX3GTrYE_14threadkit_http6routes4auth21send_otp_email_resend
FN:805,_RNvNtNtCsaszyX3GTrYE_14threadkit_http6routes4auth22oauth_success_response
FN:1347,_RNvNtNtCsaszyX3GTrYE_14threadkit_http6routes4auth23get_or_create_web3_user
FN:702,_RNvNtNtCsaszyX3GTrYE_14threadkit_http6routes4auth6logout
FN:22,_RNvNtNtCsaszyX3GTrYE_14threadkit_http6routes4auth6router
FN:262,_RNvNtNtCsaszyX3GTrYE_14threadkit_http6routes4auth8send_otp
FN:73,_RNvXNtNtCsaszyX3GTrYE_14threadkit_http6routes4authNtB2_12UserResponseINtNtCs85QQFkKrybG_4core7convert4FromNtNtCsiekp5I1RHQt_16threadkit_common5types4UserE4from
FN:355,_RNCNCNvNtNtCsaszyX3GTrYE_14threadkit_http6routes4auth10verify_otp00B9_
FN:367,_RNCNCNvNtNtCsaszyX3GTrYE_14threadkit_http6routes4auth10verify_otp0s0_0B9_
FN:371,_RNCNCNvNtNtCsaszyX3GTrYE_14threadkit_http6routes4auth10verify_otp0s1_0B9_
FN:384,_RNCNCNvNtNtCsaszyX3GTrYE_14threadkit_http6routes4auth10verify_otp0s2_0B9_
FN:387,_RNCNCNvNtNtCsaszyX3GTrYE_14threadkit_http6routes4auth10verify_otp0s3_0B9_
FN:414,_RNCNCNvNtNtCsaszyX3GTrYE_14threadkit_http6routes4auth10verify_otp0s4_0B9_
FN:417,_RNCNCNvNtNtCsaszyX3GTrYE_14threadkit_http6routes4auth10verify_otp0s5_0B9_
FN:420,_RNCNCNvNtNtCsaszyX3GTrYE_14threadkit_http6routes4auth10verify_otp0s6_0B9_
FN:428,_RNCNCNvNtNtCsaszyX3GTrYE_14threadkit_http6routes4auth10verify_otp0s7_0B9_
FN:437,_RNCNCNvNtNtCsaszyX3GTrYE_14threadkit_http6routes4auth10verify_otp0s8_0B9_
FN:446,_RNCNCNvNtNtCsaszyX3GTrYE_14threadkit_http6routes4auth10verify_otp0s9_0B9_
FN:358,_RNCNCNvNtNtCsaszyX3GTrYE_14threadkit_http6routes4auth10verify_otp0s_0B9_
FN:735,_RNCNCNvNtNtCsaszyX3GTrYE_14threadkit_http6routes4auth11oauth_start00B9_
FN:1243,_RNCNCNvNtNtCsaszyX3GTrYE_14threadkit_http6routes4auth12solana_nonce00B9_
FN:1250,_RNCNCNvNtNtCsaszyX3GTrYE_14threadkit_http6routes4auth12solana_nonce0s_0B9_
FN:653,_RNCNCNvNtNtCsaszyX3GTrYE_14threadkit_http6routes4auth13refresh_token00B9_
FN:663,_RNCNCNvNtNtCsaszyX3GTrYE_14threadkit_http6routes4auth13refresh_token0s0_0B9_
FN:673,_RNCNCNvNtNtCsaszyX3GTrYE_14threadkit_http6routes4auth13refresh_token0s1_0B9_
FN:682,_RNCNCNvNtNtCsaszyX3GTrYE_14threadkit_http6routes4auth13refresh_token0s2_0B9_
FN:656,_RNCNCNvNtNtCsaszyX3GTrYE_14threadkit_http6routes4auth13refresh_token0s_0B9_
FN:1280,_RNCNCNvNtNtCsaszyX3GTrYE_14threadkit_http6routes4auth13solana_verify00B9_
FN:1297,_RNCNCNvNtNtCsaszyX3GTrYE_14threadkit_http6routes4auth13solana_verify0s0_0B9_
FN:1315,_RNCNCNvNtNtCsaszyX3GTrYE_14threadkit_http6routes4auth13solana_verify0s1_0B9_
FN:1324,_RNCNCNvNtNtCsaszyX3GTrYE_14threadkit_http6routes4auth13solana_verify0s2_0B9_
FN:1333,_RNCNCNvNtNtCsaszyX3GTrYE_14threadkit_http6routes4auth13solana_verify0s3_0B9_
FN:1287,_RNCNCNvNtNtCsaszyX3GTrYE_14threadkit_http6routes4auth13solana_verify0s_0B9_
FN:1122,_RNCNCNvNtNtCsaszyX3GTrYE_14threadkit_http6routes4auth14ethereum_nonce00B9_
FN:1129,_RNCNCNvNtNtCsaszyX3GTrYE_14threadkit_http6routes4auth14ethereum_nonce0s_0B9_
FN:496,_RNCNCNvNtNtCsaszyX3GTrYE_14threadkit_http6routes4auth15anonymous_login00B9_
FN:502,_RNCNCNvNtNtCsaszyX3GTrYE_14threadkit_http6routes4auth15anonymous_login0s0_0B9_
FN:535,_RNCNCNvNtNtCsaszyX3GTrYE_14threadkit_http6routes4auth15anonymous_login0s1_0B9_
FN:538,_RNCNCNvNtNtCsaszyX3GTrYE_14threadkit_http6routes4auth15anonymous_login0s2_0B9_
FN:543,_RNCNCNvNtNtCsaszyX3GTrYE_14threadkit_http6routes4auth15anonymous_login0s3_0B9_
FN:552,_RNCNCNvNtNtCsaszyX3GTrYE_14threadkit_http6routes4auth15anonymous_login0s4_0B9_
FN:561,_RNCNCNvNtNtCsaszyX3GTrYE_14threadkit_http6routes4auth15anonymous_login0s5_0B9_
FN:496,_RNCNCNvNtNtCsaszyX3GTrYE_14threadkit_http6routes4auth15anonymous_login0s_0B9_
FN:1159,_RNCNCNvNtNtCsaszyX3GTrYE_14threadkit_http6routes4auth15ethereum_verify00B9_
FN:1176,_RNCNCNvNtNtCsaszyX3GTrYE_14threadkit_http6routes4auth15ethereum_verify0s0_0B9_
FN:1194,_RNCNCNvNtNtCsaszyX3GTrYE_14threadkit_http6routes4auth15ethereum_verify0s1_0B9_
FN:1203,_RNCNCNvNtNtCsaszyX3GTrYE_14threadkit_http6routes4auth15ethereum_verify0s2_0B9_
FN:1212,_RNCNCNvNtNtCsaszyX3GTrYE_14threadkit_http6routes4auth15ethereum_verify0s3_0B9_
FN:1166,_RNCNCNvNtNtCsaszyX3GTrYE_14threadkit_http6routes4auth15ethereum_verify0s_0B9_
FN:941,_RNCNCNvNtNtCsaszyX3GTrYE_14threadkit_http6routes4auth20oauth_callback_inner00B9_
FN:956,_RNCNCNvNtNtCsaszyX3GTrYE_14threadkit_http6routes4auth20oauth_callback_inner0s0_0B9_
FN:959,_RNCNCNvNtNtCsaszyX3GTrYE_14threadkit_http6routes4auth20oauth_callback_inner0s1_0B9_
FN:981,_RNCNCNvNtNtCsaszyX3GTrYE_14threadkit_http6routes4auth20oauth_callback_inner0s2_0B9_
FN:982,_RNCNCNvNtNtCsaszyX3GTrYE_14threadkit_http6routes4auth20oauth_callback_inner0s3_0B9_
FN:987,_RNCNCNvNtNtCsaszyX3GTrYE_14threadkit_http6routes4auth20oauth_callback_inner0s4_0B9_
FN:988,_RNCNCNvNtNtCsaszyX3GTrYE_14threadkit_http6routes4auth20oauth_callback_inner0s5_0B9_
FN:994,_RNCNCNvNtNtCsaszyX3GTrYE_14threadkit_http6routes4auth20oauth_callback_inner0s6_0B9_
FN:1000,_RNCNCNvNtNtCsaszyX3GTrYE_14threadkit_http6routes4auth20oauth_callback_inner0s8_0B9_
FN:1009,_RNCNCNvNtNtCsaszyX3GTrYE_14threadkit_http6routes4auth20oauth_callback_inner0s9_0B9_
FN:944,_RNCNCNvNtNtCsaszyX3GTrYE_14threadkit_http6routes4auth20oauth_callback_inner0s_0B9_
FN:1041,_RNCNCNvNtNtCsaszyX3GTrYE_14threadkit_http6routes4auth20oauth_callback_inner0sa_0B9_
FN:1049,_RNCNCNvNtNtCsaszyX3GTrYE_14threadkit_http6routes4auth20oauth_callback_inner0sb_0B9_
FN:1052,_RNCNCNvNtNtCsaszyX3GTrYE_14threadkit_http6routes4auth20oauth_callback_inner0sc_0B9_
FN:1063,_RNCNCNvNtNtCsaszyX3GTrYE_14threadkit_http6routes4auth20oauth_callback_inner0sd_0B9_
FN:1072,_RNCNCNvNtNtCsaszyX3GTrYE_14threadkit_http6routes4auth20oauth_callback_inner0se_0B9_
FN:1081,_RNCNCNvNtNtCsaszyX3GTrYE_14threadkit_http6routes4auth20oauth_callback_inner0sf_0B9_
FN:1090,_RNCNCNvNtNtCsaszyX3GTrYE_14threadkit_http6routes4auth20oauth_callback_inner0sg_0B9_
FN:1094,_RNCNCNvNtNtCsaszyX3GTrYE_14threadkit_http6routes4auth20oauth_callback_inner0sh_0B9_
FN:623,_RNCNCNvNtNtCsaszyX3GTrYE_14threadkit_http6routes4auth21send_otp_email_resend00B9_
FN:1358,_RNCNCNvNtNtCsaszyX3GTrYE_14threadkit_http6routes4auth23get_or_create_web3_user00B9_
FN:1396,_RNCNCNvNtNtCsaszyX3GTrYE_14threadkit_http6routes4auth23get_or_create_web3_user0s0_0B9_
FN:1403,_RNCNCNvNtNtCsaszyX3GTrYE_14threadkit_http6routes4auth23get_or_create_web3_user0s1_0B9_
FN:1364,_RNCNCNvNtNtCsaszyX3GTrYE_14threadkit_http6routes4auth23get_or_create_web3_user0s_0B9_
FN:708,_RNCNCNvNtNtCsaszyX3GTrYE_14threadkit_http6routes4auth6logout00B9_
FN:276,_RNCNCNvNtNtCsaszyX3GTrYE_14threadkit_http6routes4auth8send_otp00B9_
FN:289,_RNCNCNvNtNtCsaszyX3GTrYE_14threadkit_http6routes4auth8send_otp0s0_0B9_
FN:296,_RNCNCNvNtNtCsaszyX3GTrYE_14threadkit_http6routes4auth8send_otp0s1_0B9_
FN:316,_RNCNCNvNtNtCsaszyX3GTrYE_14threadkit_http6routes4auth8send_otp0s2_0B9_
FN:323,_RNCNCNvNtNtCsaszyX3GTrYE_14threadkit_http6routes4auth8send_otp0s3_0B9_
FN:288,_RNCNCNvNtNtCsaszyX3GTrYE_14threadkit_http6routes4auth8send_otp0s_0B9_
FN:349,_RNCNvNtNtCsaszyX3GTrYE_14threadkit_http6routes4auth10verify_otp0B7_
FN:732,_RNCNvNtNtCsaszyX3GTrYE_14threadkit_http6routes4auth11oauth_start0B7_
FN:194,_RNCNvNtNtCsaszyX3GTrYE_14threadkit_http6routes4auth12auth_methods0B7_
FN:1241,_RNCNvNtNtCsaszyX3GTrYE_14threadkit_http6routes4auth12solana_nonce0B7_
FN:651,_RNCNvNtNtCsaszyX3GTrYE_14threadkit_http6routes4auth13refresh_token0B7_
FN:1277,_RNCNvNtNtCsaszyX3GTrYE_14threadkit_http6routes4auth13solana_verify0B7_
FN:1120,_RNCNvNtNtCsaszyX3GTrYE_14threadkit_http6routes4auth14ethereum_nonce0B7_
FN:893,_RNCNvNtNtCsaszyX3GTrYE_14threadkit_http6routes4auth14oauth_callback0B7_
FN:488,_RNCNvNtNtCsaszyX3GTrYE_14threadkit_http6routes4auth15anonymous_login0B7_
FN:1156,_RNCNvNtNtCsaszyX3GTrYE_14threadkit_http6routes4auth15ethereum_verify0B7_
FN:464,_RNCNvNtNtCsaszyX3GTrYE_14threadkit_http6routes4auth18generate_random_id0B7_
FN:904,_RNCNvNtNtCsaszyX3GTrYE_14threadkit_http6routes4auth20oauth_callback_inner0B7_
FN:792,_RNCNvNtNtCsaszyX3GTrYE_14threadkit_http6routes4auth20oauth_error_response0B7_
FN:793,_RNCNvNtNtCsaszyX3GTrYE_14threadkit_http6routes4auth20oauth_error_responses_0B7_
FN:571,_RNCNvNtNtCsaszyX3GTrYE_14threadkit_http6routes4auth21send_otp_email_resend0B7_
FN:1352,_RNCNvNtNtCsaszyX3GTrYE_14threadkit_http6routes4auth23get_or_create_web3_user0B7_
FN:706,_RNCNvNtNtCsaszyX3GTrYE_14threadkit_http6routes4auth6logout0B7_
FN:267,_RNCNvNtNtCsaszyX3GTrYE_14threadkit_http6routes4auth8send_otp0B7_
FN:345,_RNvNtNtCskwAV7ptXVKm_14threadkit_http6routes4auth10verify_otp
FN:728,_RNvNtNtCskwAV7ptXVKm_14threadkit_http6routes4auth11oauth_start
FN:191,_RNvNtNtCskwAV7ptXVKm_14threadkit_http6routes4auth12auth_methods
FN:38,_RNvNtNtCskwAV7ptXVKm_14threadkit_http6routes4auth12oauth_router
FN:1237,_RNvNtNtCskwAV7ptXVKm_14threadkit_http6routes4auth12solana_nonce
FN:647,_RNvNtNtCskwAV7ptXVKm_14threadkit_http6routes4auth13refresh_token
FN:1273,_RNvNtNtCskwAV7ptXVKm_14threadkit_http6routes4auth13solana_verify
FN:1116,_RNvNtNtCskwAV7ptXVKm_14threadkit_http6routes4auth14ethereum_nonce
FN:889,_RNvNtNtCskwAV7ptXVKm_14threadkit_http6routes4auth14oauth_callback
FN:484,_RNvNtNtCskwAV7ptXVKm_14threadkit_http6routes4auth15anonymous_login
FN:1152,_RNvNtNtCskwAV7ptXVKm_14threadkit_http6routes4auth15ethereum_verify
FN:702,_RNvNtNtCskwAV7ptXVKm_14threadkit_http6routes4auth6logout
FN:22,_RNvNtNtCskwAV7ptXVKm_14threadkit_http6routes4auth6router
FN:262,_RNvNtNtCskwAV7ptXVKm_14threadkit_http6routes4auth8send_otp
FN:355,_RNCNCNvNtNtCskwAV7ptXVKm_14threadkit_http6routes4auth10verify_otp00B9_
FN:367,_RNCNCNvNtNtCskwAV7ptXVKm_14threadkit_http6routes4auth10verify_otp0s0_0B9_
FN:371,_RNCNCNvNtNtCskwAV7ptXVKm_14threadkit_http6routes4auth10verify_otp0s1_0B9_
FN:384,_RNCNCNvNtNtCskwAV7ptXVKm_14threadkit_http6routes4auth10verify_otp0s2_0B9_
FN:387,_RNCNCNvNtNtCskwAV7ptXVKm_14threadkit_http6routes4auth10verify_otp0s3_0B9_
FN:414,_RNCNCNvNtNtCskwAV7ptXVKm_14threadkit_http6routes4auth10verify_otp0s4_0B9_
FN:417,_RNCNCNvNtNtCskwAV7ptXVKm_14threadkit_http6routes4auth10verify_otp0s5_0B9_
FN:420,_RNCNCNvNtNtCskwAV7ptXVKm_14threadkit_http6routes4auth10verify_otp0s6_0B9_
FN:428,_RNCNCNvNtNtCskwAV7ptXVKm_14threadkit_http6routes4auth10verify_otp0s7_0B9_
FN:437,_RNCNCNvNtNtCskwAV7ptXVKm_14threadkit_http6routes4auth10verify_otp0s8_0B9_
FN:446,_RNCNCNvNtNtCskwAV7ptXVKm_14threadkit_http6routes4auth10verify_otp0s9_0B9_
FN:358,_RNCNCNvNtNtCskwAV7ptXVKm_14threadkit_http6routes4auth10verify_otp0s_0B9_
FN:735,_RNCNCNvNtNtCskwAV7ptXVKm_14threadkit_http6routes4auth11oauth_start00B9_
FN:1243,_RNCNCNvNtNtCskwAV7ptXVKm_14threadkit_http6routes4auth12solana_nonce00B9_
FN:1250,_RNCNCNvNtNtCskwAV7ptXVKm_14threadkit_http6routes4auth12solana_nonce0s_0B9_
FN:653,_RNCNCNvNtNtCskwAV7ptXVKm_14threadkit_http6routes4auth13refresh_token00B9_
FN:663,_RNCNCNvNtNtCskwAV7ptXVKm_14threadkit_http6routes4auth13refresh_token0s0_0B9_
FN:673,_RNCNCNvNtNtCskwAV7ptXVKm_14threadkit_http6routes4auth13refresh_token0s1_0B9_
FN:682,_RNCNCNvNtNtCskwAV7ptXVKm_14threadkit_http6routes4auth13refresh_token0s2_0B9_
FN:656,_RNCNCNvNtNtCskwAV7ptXVKm_14threadkit_http6routes4auth13refresh_token0s_0B9_
FN:1280,_RNCNCNvNtNtCskwAV7ptXVKm_14threadkit_http6routes4auth13solana_verify00B9_
FN:1297,_RNCNCNvNtNtCskwAV7ptXVKm_14threadkit_http6routes4auth13solana_verify0s0_0B9_
FN:1315,_RNCNCNvNtNtCskwAV7ptXVKm_14threadkit_http6routes4auth13solana_verify0s1_0B9_
FN:1324,_RNCNCNvNtNtCskwAV7ptXVKm_14threadkit_http6routes4auth13solana_verify0s2_0B9_
FN:1333,_RNCNCNvNtNtCskwAV7ptXVKm_14threadkit_http6routes4auth13solana_verify0s3_0B9_
FN:1287,_RNCNCNvNtNtCskwAV7ptXVKm_14threadkit_http6routes4auth13solana_verify0s_0B9_
FN:1122,_RNCNCNvNtNtCskwAV7ptXVKm_14threadkit_http6routes4auth14ethereum_nonce00B9_
FN:1129,_RNCNCNvNtNtCskwAV7ptXVKm_14threadkit_http6routes4auth14ethereum_nonce0s_0B9_
FN:496,_RNCNCNvNtNtCskwAV7ptXVKm_14threadkit_http6routes4auth15anonymous_login00B9_
FN:502,_RNCNCNvNtNtCskwAV7ptXVKm_14threadkit_http6routes4auth15anonymous_login0s0_0B9_
FN:535,_RNCNCNvNtNtCskwAV7ptXVKm_14threadkit_http6routes4auth15anonymous_login0s1_0B9_
FN:538,_RNCNCNvNtNtCskwAV7ptXVKm_14threadkit_http6routes4auth15anonymous_login0s2_0B9_
FN:543,_RNCNCNvNtNtCskwAV7ptXVKm_14threadkit_http6routes4auth15anonymous_login0s3_0B9_
FN:552,_RNCNCNvNtNtCskwAV7ptXVKm_14threadkit_http6routes4auth15anonymous_login0s4_0B9_
FN:561,_RNCNCNvNtNtCskwAV7ptXVKm_14threadkit_http6routes4auth15anonymous_login0s5_0B9_
FN:496,_RNCNCNvNtNtCskwAV7ptXVKm_14threadkit_http6routes4auth15anonymous_login0s_0B9_
FN:1159,_RNCNCNvNtNtCskwAV7ptXVKm_14threadkit_http6routes4auth15ethereum_verify00B9_
FN:1176,_RNCNCNvNtNtCskwAV7ptXVKm_14threadkit_http6routes4auth15ethereum_verify0s0_0B9_
FN:1194,_RNCNCNvNtNtCskwAV7ptXVKm_14threadkit_http6routes4auth15ethereum_verify0s1_0B9_
FN:1203,_RNCNCNvNtNtCskwAV7ptXVKm_14threadkit_http6routes4auth15ethereum_verify0s2_0B9_
FN:1212,_RNCNCNvNtNtCskwAV7ptXVKm_14threadkit_http6routes4auth15ethereum_verify0s3_0B9_
FN:1166,_RNCNCNvNtNtCskwAV7ptXVKm_14threadkit_http6routes4auth15ethereum_verify0s_0B9_
FN:941,_RNCNCNvNtNtCskwAV7ptXVKm_14threadkit_http6routes4auth20oauth_callback_inner00B9_
FN:956,_RNCNCNvNtNtCskwAV7ptXVKm_14threadkit_http6routes4auth20oauth_callback_inner0s0_0B9_
FN:959,_RNCNCNvNtNtCskwAV7ptXVKm_14threadkit_http6routes4auth20oauth_callback_inner0s1_0B9_
FN:981,_RNCNCNvNtNtCskwAV7ptXVKm_14threadkit_http6routes4auth20oauth_callback_inner0s2_0B9_
FN:982,_RNCNCNvNtNtCskwAV7ptXVKm_14threadkit_http6routes4auth20oauth_callback_inner0s3_0B9_
FN:987,_RNCNCNvNtNtCskwAV7ptXVKm_14threadkit_http6routes4auth20oauth_callback_inner0s4_0B9_
FN:988,_RNCNCNvNtNtCskwAV7ptXVKm_14threadkit_http6routes4auth20oauth_callback_inner0s5_0B9_
FN:994,_RNCNCNvNtNtCskwAV7ptXVKm_14threadkit_http6routes4auth20oauth_callback_inner0s6_0B9_
FN:1000,_RNCNCNvNtNtCskwAV7ptXVKm_14threadkit_http6routes4auth20oauth_callback_inner0s8_0B9_
FN:1009,_RNCNCNvNtNtCskwAV7ptXVKm_14threadkit_http6routes4auth20oauth_callback_inner0s9_0B9_
FN:944,_RNCNCNvNtNtCskwAV7ptXVKm_14threadkit_http6routes4auth20oauth_callback_inner0s_0B9_
FN:1041,_RNCNCNvNtNtCskwAV7ptXVKm_14threadkit_http6routes4auth20oauth_callback_inner0sa_0B9_
FN:1049,_RNCNCNvNtNtCskwAV7ptXVKm_14threadkit_http6routes4auth20oauth_callback_inner0sb_0B9_
FN:1052,_RNCNCNvNtNtCskwAV7ptXVKm_14threadkit_http6routes4auth20oauth_callback_inner0sc_0B9_
FN:1063,_RNCNCNvNtNtCskwAV7ptXVKm_14threadkit_http6routes4auth20oauth_callback_inner0sd_0B9_
FN:1072,_RNCNCNvNtNtCskwAV7ptXVKm_14threadkit_http6routes4auth20oauth_callback_inner0se_0B9_
FN:1081,_RNCNCNvNtNtCskwAV7ptXVKm_14threadkit_http6routes4auth20oauth_callback_inner0sf_0B9_
FN:1090,_RNCNCNvNtNtCskwAV7ptXVKm_14threadkit_http6routes4auth20oauth_callback_inner0sg_0B9_
FN:1094,_RNCNCNvNtNtCskwAV7ptXVKm_14threadkit_http6routes4auth20oauth_callback_inner0sh_0B9_
FN:623,_RNCNCNvNtNtCskwAV7ptXVKm_14threadkit_http6routes4auth21send_otp_email_resend00B9_
FN:1358,_RNCNCNvNtNtCskwAV7ptXVKm_14threadkit_http6routes4auth23get_or_create_web3_user00B9_
FN:1396,_RNCNCNvNtNtCskwAV7ptXVKm_14threadkit_http6routes4auth23get_or_create_web3_user0s0_0B9_
FN:1403,_RNCNCNvNtNtCskwAV7ptXVKm_14threadkit_http6routes4auth23get_or_create_web3_user0s1_0B9_
FN:1364,_RNCNCNvNtNtCskwAV7ptXVKm_14threadkit_http6routes4auth23get_or_create_web3_user0s_0B9_
FN:708,_RNCNCNvNtNtCskwAV7ptXVKm_14threadkit_http6routes4auth6logout00B9_
FN:276,_RNCNCNvNtNtCskwAV7ptXVKm_14threadkit_http6routes4auth8send_otp00B9_
FN:289,_RNCNCNvNtNtCskwAV7ptXVKm_14threadkit_http6routes4auth8send_otp0s0_0B9_
FN:296,_RNCNCNvNtNtCskwAV7ptXVKm_14threadkit_http6routes4auth8send_otp0s1_0B9_
FN:316,_RNCNCNvNtNtCskwAV7ptXVKm_14threadkit_http6routes4auth8send_otp0s2_0B9_
FN:323,_RNCNCNvNtNtCskwAV7ptXVKm_14threadkit_http6routes4auth8send_otp0s3_0B9_
FN:288,_RNCNCNvNtNtCskwAV7ptXVKm_14threadkit_http6routes4auth8send_otp0s_0B9_
FN:349,_RNCNvNtNtCskwAV7ptXVKm_14threadkit_http6routes4auth10verify_otp0B7_
FN:732,_RNCNvNtNtCskwAV7ptXVKm_14threadkit_http6routes4auth11oauth_start0B7_
FN:194,_RNCNvNtNtCskwAV7ptXVKm_14threadkit_http6routes4auth12auth_methods0B7_
FN:1241,_RNCNvNtNtCskwAV7ptXVKm_14threadkit_http6routes4auth12solana_nonce0B7_
FN:651,_RNCNvNtNtCskwAV7ptXVKm_14threadkit_http6routes4auth13refresh_token0B7_
FN:1277,_RNCNvNtNtCskwAV7ptXVKm_14threadkit_http6routes4auth13solana_verify0B7_
FN:1120,_RNCNvNtNtCskwAV7ptXVKm_14threadkit_http6routes4auth14ethereum_nonce0B7_
FN:893,_RNCNvNtNtCskwAV7ptXVKm_14threadkit_http6routes4auth14oauth_callback0B7_
FN:488,_RNCNvNtNtCskwAV7ptXVKm_14threadkit_http6routes4auth15anonymous_login0B7_
FN:1156,_RNCNvNtNtCskwAV7ptXVKm_14threadkit_http6routes4auth15ethereum_verify0B7_
FN:464,_RNCNvNtNtCskwAV7ptXVKm_14threadkit_http6routes4auth18generate_random_id0B7_
FN:904,_RNCNvNtNtCskwAV7ptXVKm_14threadkit_http6routes4auth20oauth_callback_inner0B7_
FN:792,_RNCNvNtNtCskwAV7ptXVKm_14threadkit_http6routes4auth20oauth_error_response0B7_
FN:793,_RNCNvNtNtCskwAV7ptXVKm_14threadkit_http6routes4auth20oauth_error_responses_0B7_
FN:571,_RNCNvNtNtCskwAV7ptXVKm_14threadkit_http6routes4auth21send_otp_email_resend0B7_
FN:1352,_RNCNvNtNtCskwAV7ptXVKm_14threadkit_http6routes4auth23get_or_create_web3_user0B7_
FN:706,_RNCNvNtNtCskwAV7ptXVKm_14threadkit_http6routes4auth6logout0B7_
FN:267,_RNCNvNtNtCskwAV7ptXVKm_14threadkit_http6routes4auth8send_otp0B7_
FN:962,_RNvNCNvNtNtCskwAV7ptXVKm_14threadkit_http6routes4auth20oauth_callback_inner010extract_id
FN:459,_RNvNtNtCskwAV7ptXVKm_14threadkit_http6routes4auth18generate_random_id
FN:900,_RNvNtNtCskwAV7ptXVKm_14threadkit_http6routes4auth20oauth_callback_inner
FN:767,_RNvNtNtCskwAV7ptXVKm_14threadkit_http6routes4auth20oauth_error_response
FN:571,_RNvNtNtCskwAV7ptXVKm_14threadkit_http6routes4auth21send_otp_email_resend
FN:805,_RNvNtNtCskwAV7ptXVKm_14threadkit_http6routes4auth22oauth_success_response
FN:1347,_RNvNtNtCskwAV7ptXVKm_14threadkit_http6routes4auth23get_or_create_web3_user
FN:73,_RNvXNtNtCskwAV7ptXVKm_14threadkit_http6routes4authNtB2_12UserResponseINtNtCs85QQFkKrybG_4core7convert4FromNtNtCsiekp5I1RHQt_16threadkit_common5types4UserE4from
FNDA:0,_RNvNCNvNtNtCsaszyX3GTrYE_14threadkit_http6routes4auth20oauth_callback_inner010extract_id
FNDA:3,_RNvNtNtCsaszyX3GTrYE_14threadkit_http6routes4auth10verify_otp
FNDA:0,_RNvNtNtCsaszyX3GTrYE_14threadkit_http6routes4auth11oauth_start
FNDA:1,_RNvNtNtCsaszyX3GTrYE_14threadkit_http6routes4auth12auth_methods
FNDA:0,_RNvNtNtCsaszyX3GTrYE_14threadkit_http6routes4auth12oauth_router
FNDA:0,_RNvNtNtCsaszyX3GTrYE_14threadkit_http6routes4auth12solana_nonce
FNDA:1,_RNvNtNtCsaszyX3GTrYE_14threadkit_http6routes4auth13refresh_token
FNDA:0,_RNvNtNtCsaszyX3GTrYE_14threadkit_http6routes4auth13solana_verify
FNDA:0,_RNvNtNtCsaszyX3GTrYE_14threadkit_http6routes4auth14ethereum_nonce
FNDA:0,_RNvNtNtCsaszyX3GTrYE_14threadkit_http6routes4auth14oauth_callback
FNDA:0,_RNvNtNtCsaszyX3GTrYE_14threadkit_http6routes4auth15anonymous_login
FNDA:0,_RNvNtNtCsaszyX3GTrYE_14threadkit_http6routes4auth15ethereum_verify
FNDA:0,_RNvNtNtCsaszyX3GTrYE_14threadkit_http6routes4auth18generate_random_id
FNDA:0,_RNvNtNtCsaszyX3GTrYE_14threadkit_http6routes4auth20oauth_callback_inner
FNDA:0,_RNvNtNtCsaszyX3GTrYE_14threadkit_http6routes4auth20oauth_error_response
FNDA:0,_RNvNtNtCsaszyX3GTrYE_14threadkit_http6routes4auth21send_otp_email_resend
FNDA:0,_RNvNtNtCsaszyX3GTrYE_14threadkit_http6routes4auth22oauth_success_response
FNDA:0,_RNvNtNtCsaszyX3GTrYE_14threadkit_http6routes4auth23get_or_create_web3_user
FNDA:1,_RNvNtNtCsaszyX3GTrYE_14threadkit_http6routes4auth6logout
FNDA:62,_RNvNtNtCsaszyX3GTrYE_14threadkit_http6routes4auth6router
FNDA:4,_RNvNtNtCsaszyX3GTrYE_14threadkit_http6routes4auth8send_otp
FNDA:0,_RNvXNtNtCsaszyX3GTrYE_14threadkit_http6routes4authNtB2_12UserResponseINtNtCs85QQFkKrybG_4core7convert4FromNtNtCsiekp5I1RHQt_16threadkit_common5types4UserE4from
FNDA:0,_RNCNCNvNtNtCsaszyX3GTrYE_14threadkit_http6routes4auth10verify_otp00B9_
FNDA:0,_RNCNCNvNtNtCsaszyX3GTrYE_14threadkit_http6routes4auth10verify_otp0s0_0B9_
FNDA:0,_RNCNCNvNtNtCsaszyX3GTrYE_14threadkit_http6routes4auth10verify_otp0s1_0B9_
FNDA:0,_RNCNCNvNtNtCsaszyX3GTrYE_14threadkit_http6routes4auth10verify_otp0s2_0B9_
FNDA:0,_RNCNCNvNtNtCsaszyX3GTrYE_14threadkit_http6routes4auth10verify_otp0s3_0B9_
FNDA:0,_RNCNCNvNtNtCsaszyX3GTrYE_14threadkit_http6routes4auth10verify_otp0s4_0B9_
FNDA:0,_RNCNCNvNtNtCsaszyX3GTrYE_14threadkit_http6routes4auth10verify_otp0s5_0B9_
FNDA:0,_RNCNCNvNtNtCsaszyX3GTrYE_14threadkit_http6routes4auth10verify_otp0s6_0B9_
FNDA:0,_RNCNCNvNtNtCsaszyX3GTrYE_14threadkit_http6routes4auth10verify_otp0s7_0B9_
FNDA:0,_RNCNCNvNtNtCsaszyX3GTrYE_14threadkit_http6routes4auth10verify_otp0s8_0B9_
FNDA:0,_RNCNCNvNtNtCsaszyX3GTrYE_14threadkit_http6routes4auth10verify_otp0s9_0B9_
FNDA:0,_RNCNCNvNtNtCsaszyX3GTrYE_14threadkit_http6routes4auth10verify_otp0s_0B9_
FNDA:0,_RNCNCNvNtNtCsaszyX3GTrYE_14threadkit_http6routes4auth11oauth_start00B9_
FNDA:0,_RNCNCNvNtNtCsaszyX3GTrYE_14threadkit_http6routes4auth12solana_nonce00B9_
FNDA:0,_RNCNCNvNtNtCsaszyX3GTrYE_14threadkit_http6routes4auth12solana_nonce0s_0B9_
FNDA:1,_RNCNCNvNtNtCsaszyX3GTrYE_14threadkit_http6routes4auth13refresh_token00B9_
FNDA:0,_RNCNCNvNtNtCsaszyX3GTrYE_14threadkit_http6routes4auth13refresh_token0s0_0B9_
FNDA:0,_RNCNCNvNtNtCsaszyX3GTrYE_14threadkit_http6routes4auth13refresh_token0s1_0B9_
FNDA:0,_RNCNCNvNtNtCsaszyX3GTrYE_14threadkit_http6routes4auth13refresh_token0s2_0B9_
FNDA:0,_RNCNCNvNtNtCsaszyX3GTrYE_14threadkit_http6routes4auth13refresh_token0s_0B9_
FNDA:0,_RNCNCNvNtNtCsaszyX3GTrYE_14threadkit_http6routes4auth13solana_verify00B9_
FNDA:0,_RNCNCNvNtNtCsaszyX3GTrYE_14threadkit_http6routes4auth13solana_verify0s0_0B9_
FNDA:0,_RNCNCNvNtNtCsaszyX3GTrYE_14threadkit_http6routes4auth13solana_verify0s1_0B9_
FNDA:0,_RNCNCNvNtNtCsaszyX3GTrYE_14threadkit_http6routes4auth13solana_verify0s2_0B9_
FNDA:0,_RNCNCNvNtNtCsaszyX3GTrYE_14threadkit_http6routes4auth13solana_verify0s3_0B9_
FNDA:0,_RNCNCNvNtNtCsaszyX3GTrYE_14threadkit_http6routes4auth13solana_verify0s_0B9_
FNDA:0,_RNCNCNvNtNtCsaszyX3GTrYE_14threadkit_http6routes4auth14ethereum_nonce00B9_
FNDA:0,_RNCNCNvNtNtCsaszyX3GTrYE_14threadkit_http6routes4auth14ethereum_nonce0s_0B9_
FNDA:0,_RNCNCNvNtNtCsaszyX3GTrYE_14threadkit_http6routes4auth15anonymous_login00B9_
FNDA:0,_RNCNCNvNtNtCsaszyX3GTrYE_14threadkit_http6routes4auth15anonymous_login0s0_0B9_
FNDA:0,_RNCNCNvNtNtCsaszyX3GTrYE_14threadkit_http6routes4auth15anonymous_login0s1_0B9_
FNDA:0,_RNCNCNvNtNtCsaszyX3GTrYE_14threadkit_http6routes4auth15anonymous_login0s2_0B9_
FNDA:0,_RNCNCNvNtNtCsaszyX3GTrYE_14threadkit_http6routes4auth15anonymous_login0s3_0B9_
FNDA:0,_RNCNCNvNtNtCsaszyX3GTrYE_14threadkit_http6routes4auth15anonymous_login0s4_0B9_
FNDA:0,_RNCNCNvNtNtCsaszyX3GTrYE_14threadkit_http6routes4auth15anonymous_login0s5_0B9_
FNDA:0,_RNCNCNvNtNtCsaszyX3GTrYE_14threadkit_http6routes4auth15anonymous_login0s_0B9_
FNDA:0,_RNCNCNvNtNtCsaszyX3GTrYE_14threadkit_http6routes4auth15ethereum_verify00B9_
FNDA:0,_RNCNCNvNtNtCsaszyX3GTrYE_14threadkit_http6routes4auth15ethereum_verify0s0_0B9_
FNDA:0,_RNCNCNvNtNtCsaszyX3GTrYE_14threadkit_http6routes4auth15ethereum_verify0s1_0B9_
FNDA:0,_RNCNCNvNtNtCsaszyX3GTrYE_14threadkit_http6routes4auth15ethereum_verify0s2_0B9_
FNDA:0,_RNCNCNvNtNtCsaszyX3GTrYE_14threadkit_http6routes4auth15ethereum_verify0s3_0B9_
FNDA:0,_RNCNCNvNtNtCsaszyX3GTrYE_14threadkit_http6routes4auth15ethereum_verify0s_0B9_
FNDA:0,_RNCNCNvNtNtCsaszyX3GTrYE_14threadkit_http6routes4auth20oauth_callback_inner00B9_
FNDA:0,_RNCNCNvNtNtCsaszyX3GTrYE_14threadkit_http6routes4auth20oauth_callback_inner0s0_0B9_
FNDA:0,_RNCNCNvNtNtCsaszyX3GTrYE_14threadkit_http6routes4auth20oauth_callback_inner0s1_0B9_
FNDA:0,_RNCNCNvNtNtCsaszyX3GTrYE_14threadkit_http6routes4auth20oauth_callback_inner0s2_0B9_
FNDA:0,_RNCNCNvNtNtCsaszyX3GTrYE_14threadkit_http6routes4auth20oauth_callback_inner0s3_0B9_
FNDA:0,_RNCNCNvNtNtCsaszyX3GTrYE_14threadkit_http6routes4auth20oauth_callback_inner0s4_0B9_
FNDA:0,_RNCNCNvNtNtCsaszyX3GTrYE_14threadkit_http6routes4auth20oauth_callback_inner0s5_0B9_
FNDA:0,_RNCNCNvNtNtCsaszyX3GTrYE_14threadkit_http6routes4auth20oauth_callback_inner0s6_0B9_
FNDA:0,_RNCNCNvNtNtCsaszyX3GTrYE_14threadkit_http6routes4auth20oauth_callback_inner0s8_0B9_
FNDA:0,_RNCNCNvNtNtCsaszyX3GTrYE_14threadkit_http6routes4auth20oauth_callback_inner0s9_0B9_
FNDA:0,_RNCNCNvNtNtCsaszyX3GTrYE_14threadkit_http6routes4auth20oauth_callback_inner0s_0B9_
FNDA:0,_RNCNCNvNtNtCsaszyX3GTrYE_14threadkit_http6routes4auth20oauth_callback_inner0sa_0B9_
FNDA:0,_RNCNCNvNtNtCsaszyX3GTrYE_14threadkit_http6routes4auth20oauth_callback_inner0sb_0B9_
FNDA:0,_RNCNCNvNtNtCsaszyX3GTrYE_14threadkit_http6routes4auth20oauth_callback_inner0sc_0B9_
FNDA:0,_RNCNCNvNtNtCsaszyX3GTrYE_14threadkit_http6routes4auth20oauth_callback_inner0sd_0B9_
FNDA:0,_RNCNCNvNtNtCsaszyX3GTrYE_14threadkit_http6routes4auth20oauth_callback_inner0se_0B9_
FNDA:0,_RNCNCNvNtNtCsaszyX3GTrYE_14threadkit_http6routes4auth20oauth_callback_inner0sf_0B9_
FNDA:0,_RNCNCNvNtNtCsaszyX3GTrYE_14threadkit_http6routes4auth20oauth_callback_inner0sg_0B9_
FNDA:0,_RNCNCNvNtNtCsaszyX3GTrYE_14threadkit_http6routes4auth20oauth_callback_inner0sh_0B9_
FNDA:0,_RNCNCNvNtNtCsaszyX3GTrYE_14threadkit_http6routes4auth21send_otp_email_resend00B9_
FNDA:0,_RNCNCNvNtNtCsaszyX3GTrYE_14threadkit_http6routes4auth23get_or_create_web3_user00B9_
FNDA:0,_RNCNCNvNtNtCsaszyX3GTrYE_14threadkit_http6routes4auth23get_or_create_web3_user0s0_0B9_
FNDA:0,_RNCNCNvNtNtCsaszyX3GTrYE_14threadkit_http6routes4auth23get_or_create_web3_user0s1_0B9_
FNDA:0,_RNCNCNvNtNtCsaszyX3GTrYE_14threadkit_http6routes4auth23get_or_create_web3_user0s_0B9_
FNDA:0,_RNCNCNvNtNtCsaszyX3GTrYE_14threadkit_http6routes4auth6logout00B9_
FNDA:0,_RNCNCNvNtNtCsaszyX3GTrYE_14threadkit_http6routes4auth8send_otp00B9_
FNDA:0,_RNCNCNvNtNtCsaszyX3GTrYE_14threadkit_http6routes4auth8send_otp0s0_0B9_
FNDA:0,_RNCNCNvNtNtCsaszyX3GTrYE_14threadkit_http6routes4auth8send_otp0s1_0B9_
FNDA:0,_RNCNCNvNtNtCsaszyX3GTrYE_14threadkit_http6routes4auth8send_otp0s2_0B9_
FNDA:0,_RNCNCNvNtNtCsaszyX3GTrYE_14threadkit_http6routes4auth8send_otp0s3_0B9_
FNDA:0,_RNCNCNvNtNtCsaszyX3GTrYE_14threadkit_http6routes4auth8send_otp0s_0B9_
FNDA:3,_RNCNvNtNtCsaszyX3GTrYE_14threadkit_http6routes4auth10verify_otp0B7_
FNDA:0,_RNCNvNtNtCsaszyX3GTrYE_14threadkit_http6routes4auth11oauth_start0B7_
FNDA:1,_RNCNvNtNtCsaszyX3GTrYE_14threadkit_http6routes4auth12auth_methods0B7_
FNDA:0,_RNCNvNtNtCsaszyX3GTrYE_14threadkit_http6routes4auth12solana_nonce0B7_
FNDA:1,_RNCNvNtNtCsaszyX3GTrYE_14threadkit_http6routes4auth13refresh_token0B7_
FNDA:0,_RNCNvNtNtCsaszyX3GTrYE_14threadkit_http6routes4auth13solana_verify0B7_
FNDA:0,_RNCNvNtNtCsaszyX3GTrYE_14threadkit_http6routes4auth14ethereum_nonce0B7_
FNDA:0,_RNCNvNtNtCsaszyX3GTrYE_14threadkit_http6routes4auth14oauth_callback0B7_
FNDA:0,_RNCNvNtNtCsaszyX3GTrYE_14threadkit_http6routes4auth15anonymous_login0B7_
FNDA:0,_RNCNvNtNtCsaszyX3GTrYE_14threadkit_http6routes4auth15ethereum_verify0B7_
FNDA:0,_RNCNvNtNtCsaszyX3GTrYE_14threadkit_http6routes4auth18generate_random_id0B7_
FNDA:0,_RNCNvNtNtCsaszyX3GTrYE_14threadkit_http6routes4auth20oauth_callback_inner0B7_
FNDA:0,_RNCNvNtNtCsaszyX3GTrYE_14threadkit_http6routes4auth20oauth_error_response0B7_
FNDA:0,_RNCNvNtNtCsaszyX3GTrYE_14threadkit_http6routes4auth20oauth_error_responses_0B7_
FNDA:0,_RNCNvNtNtCsaszyX3GTrYE_14threadkit_http6routes4auth21send_otp_email_resend0B7_
FNDA:0,_RNCNvNtNtCsaszyX3GTrYE_14threadkit_http6routes4auth23get_or_create_web3_user0B7_
FNDA:1,_RNCNvNtNtCsaszyX3GTrYE_14threadkit_http6routes4auth6logout0B7_
FNDA:4,_RNCNvNtNtCsaszyX3GTrYE_14threadkit_http6routes4auth8send_otp0B7_
FNDA:0,_RNvNtNtCskwAV7ptXVKm_14threadkit_http6routes4auth10verify_otp
FNDA:0,_RNvNtNtCskwAV7ptXVKm_14threadkit_http6routes4auth11oauth_start
FNDA:0,_RNvNtNtCskwAV7ptXVKm_14threadkit_http6routes4auth12auth_methods
FNDA:0,_RNvNtNtCskwAV7ptXVKm_14threadkit_http6routes4auth12oauth_router
FNDA:0,_RNvNtNtCskwAV7ptXVKm_14threadkit_http6routes4auth12solana_nonce
FNDA:0,_RNvNtNtCskwAV7ptXVKm_14threadkit_http6routes4auth13refresh_token
FNDA:0,_RNvNtNtCskwAV7ptXVKm_14threadkit_http6routes4auth13solana_verify
FNDA:0,_RNvNtNtCskwAV7ptXVKm_14threadkit_http6routes4auth14ethereum_nonce
FNDA:0,_RNvNtNtCskwAV7ptXVKm_14threadkit_http6routes4auth14oauth_callback
FNDA:0,_RNvNtNtCskwAV7ptXVKm_14threadkit_http6routes4auth15anonymous_login
FNDA:0,_RNvNtNtCskwAV7ptXVKm_14threadkit_http6routes4auth15ethereum_verify
FNDA:0,_RNvNtNtCskwAV7ptXVKm_14threadkit_http6routes4auth6logout
FNDA:0,_RNvNtNtCskwAV7ptXVKm_14threadkit_http6routes4auth6router
FNDA:0,_RNvNtNtCskwAV7ptXVKm_14threadkit_http6routes4auth8send_otp
FNDA:0,_RNCNCNvNtNtCskwAV7ptXVKm_14threadkit_http6routes4auth10verify_otp00B9_
FNDA:0,_RNCNCNvNtNtCskwAV7ptXVKm_14threadkit_http6routes4auth10verify_otp0s0_0B9_
FNDA:0,_RNCNCNvNtNtCskwAV7ptXVKm_14threadkit_http6routes4auth10verify_otp0s1_0B9_
FNDA:0,_RNCNCNvNtNtCskwAV7ptXVKm_14threadkit_http6routes4auth10verify_otp0s2_0B9_
FNDA:0,_RNCNCNvNtNtCskwAV7ptXVKm_14threadkit_http6routes4auth10verify_otp0s3_0B9_
FNDA:0,_RNCNCNvNtNtCskwAV7ptXVKm_14threadkit_http6routes4auth10verify_otp0s4_0B9_
FNDA:0,_RNCNCNvNtNtCskwAV7ptXVKm_14threadkit_http6routes4auth10verify_otp0s5_0B9_
FNDA:0,_RNCNCNvNtNtCskwAV7ptXVKm_14threadkit_http6routes4auth10verify_otp0s6_0B9_
FNDA:0,_RNCNCNvNtNtCskwAV7ptXVKm_14threadkit_http6routes4auth10verify_otp0s7_0B9_
FNDA:0,_RNCNCNvNtNtCskwAV7ptXVKm_14threadkit_http6routes4auth10verify_otp0s8_0B9_
FNDA:0,_RNCNCNvNtNtCskwAV7ptXVKm_14threadkit_http6routes4auth10verify_otp0s9_0B9_
FNDA:0,_RNCNCNvNtNtCskwAV7ptXVKm_14threadkit_http6routes4auth10verify_otp0s_0B9_
FNDA:0,_RNCNCNvNtNtCskwAV7ptXVKm_14threadkit_http6routes4auth11oauth_start00B9_
FNDA:0,_RNCNCNvNtNtCskwAV7ptXVKm_14threadkit_http6routes4auth12solana_nonce00B9_
FNDA:0,_RNCNCNvNtNtCskwAV7ptXVKm_14threadkit_http6routes4auth12solana_nonce0s_0B9_
FNDA:0,_RNCNCNvNtNtCskwAV7ptXVKm_14threadkit_http6routes4auth13refresh_token00B9_
FNDA:0,_RNCNCNvNtNtCskwAV7ptXVKm_14threadkit_http6routes4auth13refresh_token0s0_0B9_
FNDA:0,_RNCNCNvNtNtCskwAV7ptXVKm_14threadkit_http6routes4auth13refresh_token0s1_0B9_
FNDA:0,_RNCNCNvNtNtCskwAV7ptXVKm_14threadkit_http6routes4auth13refresh_token0s2_0B9_
FNDA:0,_RNCNCNvNtNtCskwAV7ptXVKm_14threadkit_http6routes4auth13refresh_token0s_0B9_
FNDA:0,_RNCNCNvNtNtCskwAV7ptXVKm_14threadkit_http6routes4auth13solana_verify00B9_
FNDA:0,_RNCNCNvNtNtCskwAV7ptXVKm_14threadkit_http6routes4auth13solana_verify0s0_0B9_
FNDA:0,_RNCNCNvNtNtCskwAV7ptXVKm_14threadkit_http6routes4auth13solana_verify0s1_0B9_
FNDA:0,_RNCNCNvNtNtCskwAV7ptXVKm_14threadkit_http6routes4auth13solana_verify0s2_0B9_
FNDA:0,_RNCNCNvNtNtCskwAV7ptXVKm_14threadkit_http6routes4auth13solana_verify0s3_0B9_
FNDA:0,_RNCNCNvNtNtCskwAV7ptXVKm_14threadkit_http6routes4auth13solana_verify0s_0B9_
FNDA:0,_RNCNCNvNtNtCskwAV7ptXVKm_14threadkit_http6routes4auth14ethereum_nonce00B9_
FNDA:0,_RNCNCNvNtNtCskwAV7ptXVKm_14threadkit_http6routes4auth14ethereum_nonce0s_0B9_
FNDA:0,_RNCNCNvNtNtCskwAV7ptXVKm_14threadkit_http6routes4auth15anonymous_login00B9_
FNDA:0,_RNCNCNvNtNtCskwAV7ptXVKm_14threadkit_http6routes4auth15anonymous_login0s0_0B9_
FNDA:0,_RNCNCNvNtNtCskwAV7ptXVKm_14threadkit_http6routes4auth15anonymous_login0s1_0B9_
FNDA:0,_RNCNCNvNtNtCskwAV7ptXVKm_14threadkit_http6routes4auth15anonymous_login0s2_0B9_
FNDA:0,_RNCNCNvNtNtCskwAV7ptXVKm_14threadkit_http6routes4auth15anonymous_login0s3_0B9_
FNDA:0,_RNCNCNvNtNtCskwAV7ptXVKm_14threadkit_http6routes4auth15anonymous_login0s4_0B9_
FNDA:0,_RNCNCNvNtNtCskwAV7ptXVKm_14threadkit_http6routes4auth15anonymous_login0s5_0B9_
FNDA:0,_RNCNCNvNtNtCskwAV7ptXVKm_14threadkit_http6routes4auth15anonymous_login0s_0B9_
FNDA:0,_RNCNCNvNtNtCskwAV7ptXVKm_14threadkit_http6routes4auth15ethereum_verify00B9_
FNDA:0,_RNCNCNvNtNtCskwAV7ptXVKm_14threadkit_http6routes4auth15ethereum_verify0s0_0B9_
FNDA:0,_RNCNCNvNtNtCskwAV7ptXVKm_14threadkit_http6routes4auth15ethereum_verify0s1_0B9_
FNDA:0,_RNCNCNvNtNtCskwAV7ptXVKm_14threadkit_http6routes4auth15ethereum_verify0s2_0B9_
FNDA:0,_RNCNCNvNtNtCskwAV7ptXVKm_14threadkit_http6routes4auth15ethereum_verify0s3_0B9_
FNDA:0,_RNCNCNvNtNtCskwAV7ptXVKm_14threadkit_http6routes4auth15ethereum_verify0s_0B9_
FNDA:0,_RNCNCNvNtNtCskwAV7ptXVKm_14threadkit_http6routes4auth20oauth_callback_inner00B9_
FNDA:0,_RNCNCNvNtNtCskwAV7ptXVKm_14threadkit_http6routes4auth20oauth_callback_inner0s0_0B9_
FNDA:0,_RNCNCNvNtNtCskwAV7ptXVKm_14threadkit_http6routes4auth20oauth_callback_inner0s1_0B9_
FNDA:0,_RNCNCNvNtNtCskwAV7ptXVKm_14threadkit_http6routes4auth20oauth_callback_inner0s2_0B9_
FNDA:0,_RNCNCNvNtNtCskwAV7ptXVKm_14threadkit_http6routes4auth20oauth_callback_inner0s3_0B9_
FNDA:0,_RNCNCNvNtNtCskwAV7ptXVKm_14threadkit_http6routes4auth20oauth_callback_inner0s4_0B9_
FNDA:0,_RNCNCNvNtNtCskwAV7ptXVKm_14threadkit_http6routes4auth20oauth_callback_inner0s5_0B9_
FNDA:0,_RNCNCNvNtNtCskwAV7ptXVKm_14threadkit_http6routes4auth20oauth_callback_inner0s6_0B9_
FNDA:0,_RNCNCNvNtNtCskwAV7ptXVKm_14threadkit_http6routes4auth20oauth_callback_inner0s8_0B9_
FNDA:0,_RNCNCNvNtNtCskwAV7ptXVKm_14threadkit_http6routes4auth20oauth_callback_inner0s9_0B9_
FNDA:0,_RNCNCNvNtNtCskwAV7ptXVKm_14threadkit_http6routes4auth20oauth_callback_inner0s_0B9_
FNDA:0,_RNCNCNvNtNtCskwAV7ptXVKm_14threadkit_http6routes4auth20oauth_callback_inner0sa_0B9_
FNDA:0,_RNCNCNvNtNtCskwAV7ptXVKm_14threadkit_http6routes4auth20oauth_callback_inner0sb_0B9_
FNDA:0,_RNCNCNvNtNtCskwAV7ptXVKm_14threadkit_http6routes4auth20oauth_callback_inner0sc_0B9_
FNDA:0,_RNCNCNvNtNtCskwAV7ptXVKm_14threadkit_http6routes4auth20oauth_callback_inner0sd_0B9_
FNDA:0,_RNCNCNvNtNtCskwAV7ptXVKm_14threadkit_http6routes4auth20oauth_callback_inner0se_0B9_
FNDA:0,_RNCNCNvNtNtCskwAV7ptXVKm_14threadkit_http6routes4auth20oauth_callback_inner0sf_0B9_
FNDA:0,_RNCNCNvNtNtCskwAV7ptXVKm_14threadkit_http6routes4auth20oauth_callback_inner0sg_0B9_
FNDA:0,_RNCNCNvNtNtCskwAV7ptXVKm_14threadkit_http6routes4auth20oauth_callback_inner0sh_0B9_
FNDA:0,_RNCNCNvNtNtCskwAV7ptXVKm_14threadkit_http6routes4auth21send_otp_email_resend00B9_
FNDA:0,_RNCNCNvNtNtCskwAV7ptXVKm_14threadkit_http6routes4auth23get_or_create_web3_user00B9_
FNDA:0,_RNCNCNvNtNtCskwAV7ptXVKm_14threadkit_http6routes4auth23get_or_create_web3_user0s0_0B9_
FNDA:0,_RNCNCNvNtNtCskwAV7ptXVKm_14threadkit_http6routes4auth23get_or_create_web3_user0s1_0B9_
FNDA:0,_RNCNCNvNtNtCskwAV7ptXVKm_14threadkit_http6routes4auth23get_or_create_web3_user0s_0B9_
FNDA:0,_RNCNCNvNtNtCskwAV7ptXVKm_14threadkit_http6routes4auth6logout00B9_
FNDA:0,_RNCNCNvNtNtCskwAV7ptXVKm_14threadkit_http6routes4auth8send_otp00B9_
FNDA:0,_RNCNCNvNtNtCskwAV7ptXVKm_14threadkit_http6routes4auth8send_otp0s0_0B9_
FNDA:0,_RNCNCNvNtNtCskwAV7ptXVKm_14threadkit_http6routes4auth8send_otp0s1_0B9_
FNDA:0,_RNCNCNvNtNtCskwAV7ptXVKm_14threadkit_http6routes4auth8send_otp0s2_0B9_
FNDA:0,_RNCNCNvNtNtCskwAV7ptXVKm_14threadkit_http6routes4auth8send_otp0s3_0B9_
FNDA:0,_RNCNCNvNtNtCskwAV7ptXVKm_14threadkit_http6routes4auth8send_otp0s_0B9_
FNDA:0,_RNCNvNtNtCskwAV7ptXVKm_14threadkit_http6routes4auth10verify_otp0B7_
FNDA:0,_RNCNvNtNtCskwAV7ptXVKm_14threadkit_http6routes4auth11oauth_start0B7_
FNDA:0,_RNCNvNtNtCskwAV7ptXVKm_14threadkit_http6routes4auth12auth_methods0B7_
FNDA:0,_RNCNvNtNtCskwAV7ptXVKm_14threadkit_http6routes4auth12solana_nonce0B7_
FNDA:0,_RNCNvNtNtCskwAV7ptXVKm_14threadkit_http6routes4auth13refresh_token0B7_
FNDA:0,_RNCNvNtNtCskwAV7ptXVKm_14threadkit_http6routes4auth13solana_verify0B7_
FNDA:0,_RNCNvNtNtCskwAV7ptXVKm_14threadkit_http6routes4auth14ethereum_nonce0B7_
FNDA:0,_RNCNvNtNtCskwAV7ptXVKm_14threadkit_http6routes4auth14oauth_callback0B7_
FNDA:0,_RNCNvNtNtCskwAV7ptXVKm_14threadkit_http6routes4auth15anonymous_login0B7_
FNDA:0,_RNCNvNtNtCskwAV7ptXVKm_14threadkit_http6routes4auth15ethereum_verify0B7_
FNDA:0,_RNCNvNtNtCskwAV7ptXVKm_14threadkit_http6routes4auth18generate_random_id0B7_
FNDA:0,_RNCNvNtNtCskwAV7ptXVKm_14threadkit_http6routes4auth20oauth_callback_inner0B7_
FNDA:0,_RNCNvNtNtCskwAV7ptXVKm_14threadkit_http6routes4auth20oauth_error_response0B7_
FNDA:0,_RNCNvNtNtCskwAV7ptXVKm_14threadkit_http6routes4auth20oauth_error_responses_0B7_
FNDA:0,_RNCNvNtNtCskwAV7ptXVKm_14threadkit_http6routes4auth21send_otp_email_resend0B7_
FNDA:0,_RNCNvNtNtCskwAV7ptXVKm_14threadkit_http6routes4auth23get_or_create_web3_user0B7_
FNDA:0,_RNCNvNtNtCskwAV7ptXVKm_14threadkit_http6routes4auth6logout0B7_
FNDA:0,_RNCNvNtNtCskwAV7ptXVKm_14threadkit_http6routes4auth8send_otp0B7_
FNDA:0,_RNvNCNvNtNtCskwAV7ptXVKm_14threadkit_http6routes4auth20oauth_callback_inner010extract_id
FNDA:0,_RNvNtNtCskwAV7ptXVKm_14threadkit_http6routes4auth18generate_random_id
FNDA:0,_RNvNtNtCskwAV7ptXVKm_14threadkit_http6routes4auth20oauth_callback_inner
FNDA:0,_RNvNtNtCskwAV7ptXVKm_14threadkit_http6routes4auth20oauth_error_response
FNDA:0,_RNvNtNtCskwAV7ptXVKm_14threadkit_http6routes4auth21send_otp_email_resend
FNDA:0,_RNvNtNtCskwAV7ptXVKm_14threadkit_http6routes4auth22oauth_success_response
FNDA:0,_RNvNtNtCskwAV7ptXVKm_14threadkit_http6routes4auth23get_or_create_web3_user
FNDA:0,_RNvXNtNtCskwAV7ptXVKm_14threadkit_http6routes4authNtB2_12UserResponseINtNtCs85QQFkKrybG_4core7convert4FromNtNtCsiekp5I1RHQt_16threadkit_common5types4UserE4from
FNF:113
FNH:12
DA:22,62
DA:23,62
DA:24,62
DA:25,62
DA:26,62
DA:27,62
DA:28,62
DA:29,62
DA:31,62
DA:32,62
DA:33,62
DA:34,62
DA:35,62
DA:38,0
DA:39,0
DA:40,0
DA:41,0
DA:42,0
DA:73,0
DA:74,0
DA:75,0
DA:76,0
DA:77,0
DA:78,0
DA:79,0
DA:80,0
DA:81,0
DA:82,0
DA:83,0
DA:191,1
DA:192,1
DA:193,1
DA:194,1
DA:195,1
DA:196,1
DA:198,1
DA:199,1
DA:200,1
DA:201,1
DA:202,1
DA:203,1
DA:204,1
DA:206,1
DA:207,0
DA:208,0
DA:209,0
DA:210,0
DA:211,0
DA:212,1
DA:214,1
DA:215,0
DA:216,0
DA:217,0
DA:218,0
DA:219,0
DA:220,1
DA:222,1
DA:223,0
DA:224,0
DA:225,0
DA:226,0
DA:227,0
DA:228,1
DA:230,1
DA:231,0
DA:232,0
DA:233,0
DA:234,0
DA:235,0
DA:236,1
DA:238,1
DA:239,0
DA:240,0
DA:241,0
DA:242,0
DA:243,0
DA:244,1
DA:246,1
DA:247,1
DA:262,4
DA:263,4
DA:264,4
DA:265,4
DA:266,4
DA:267,4
DA:268,4
DA:272,4
DA:273,4
DA:274,4
DA:275,4
DA:276,4
DA:278,4
DA:279,0
DA:280,0
DA:281,0
DA:282,0
DA:283,4
DA:286,4
DA:287,4
DA:288,4
DA:289,4
DA:290,4
DA:291,4
DA:292,4
DA:293,4
DA:294,4
DA:295,4
DA:296,4
DA:298,4
DA:299,0
DA:300,0
DA:301,0
DA:302,0
DA:303,4
DA:305,4
DA:307,4
DA:308,4
DA:309,4
DA:310,4
DA:311,4
DA:312,4
DA:313,4
DA:315,4
DA:316,4
DA:319,4
DA:320,0
DA:321,0
DA:322,0
DA:323,0
DA:327,4
DA:330,4
DA:331,4
DA:345,3
DA:346,3
DA:347,3
DA:348,3
DA:349,3
DA:350,3
DA:353,3
DA:354,3
DA:355,3
DA:357,3
DA:358,3
DA:359,3
DA:361,2
DA:362,2
DA:363,0
DA:366,0
DA:367,0
DA:369,0
DA:370,0
DA:371,0
DA:372,0
DA:375,0
DA:376,0
DA:377,0
DA:380,0
DA:383,0
DA:384,0
DA:386,0
DA:387,0
DA:388,0
DA:389,0
DA:391,0
DA:392,0
DA:394,0
DA:396,0
DA:397,0
DA:398,0
DA:399,0
DA:400,0
DA:401,0
DA:402,0
DA:403,0
DA:404,0
DA:405,0
DA:406,0
DA:407,0
DA:408,0
DA:409,0
DA:410,0
DA:411,0
DA:413,0
DA:414,0
DA:416,0
DA:417,0
DA:419,0
DA:420,0
DA:422,0
DA:426,0
DA:427,0
DA:428,0
DA:430,0
DA:431,0
DA:432,0
DA:433,0
DA:434,0
DA:435,0
DA:437,0
DA:439,0
DA:440,0
DA:441,0
DA:442,0
DA:443,0
DA:444,0
DA:446,0
DA:449,0
DA:451,0
DA:452,0
DA:453,0
DA:454,0
DA:455,0
DA:456,3
DA:459,0
DA:462,0
DA:463,0
DA:464,0
DA:465,0
DA:466,0
DA:467,0
DA:468,0
DA:469,0
DA:484,0
DA:485,0
DA:486,0
DA:487,0
DA:488,0
DA:490,0
DA:491,0
DA:492,0
DA:495,0
DA:496,0
DA:497,0
DA:499,0
DA:500,0
DA:501,0
DA:502,0
DA:503,0
DA:504,0
DA:505,0
DA:506,0
DA:508,0
DA:511,0
DA:514,0
DA:515,0
DA:517,0
DA:518,0
DA:519,0
DA:520,0
DA:521,0
DA:522,0
DA:523,0
DA:524,0
DA:525,0
DA:526,0
DA:527,0
DA:528,0
DA:529,0
DA:530,0
DA:531,0
DA:532,0
DA:534,0
DA:535,0
DA:537,0
DA:538,0
DA:541,0
DA:542,0
DA:543,0
DA:545,0
DA:546,0
DA:547,0
DA:548,0
DA:549,0
DA:550,0
DA:552,0
DA:554,0
DA:555,0
DA:556,0
DA:557,0
DA:558,0
DA:559,0
DA:561,0
DA:563,0
DA:564,0
DA:565,0
DA:566,0
DA:567,0
DA:568,0
DA:571,0
DA:572,0
DA:573,0
DA:575,0
DA:576,0
DA:577,0
DA:578,0
DA:579,0
DA:580,0
DA:581,0
DA:582,0
DA:583,0
DA:584,0
DA:585,0
DA:586,0
DA:587,0
DA:588,0
DA:589,0
DA:590,0
DA:591,0
DA:592,0
DA:593,0
DA:594,0
DA:595,0
DA:596,0
DA:597,0
DA:598,0
DA:599,0
DA:600,0
DA:601,0
DA:602,0
DA:603,0
DA:604,0
DA:605,0
DA:606,0
DA:607,0
DA:609,0
DA:610,0
DA:611,0
DA:612,0
DA:613,0
DA:616,0
DA:617,0
DA:618,0
DA:619,0
DA:620,0
DA:621,0
DA:622,0
DA:623,0
DA:625,0
DA:626,0
DA:627,0
DA:628,0
DA:629,0
DA:631,0
DA:632,0
DA:647,1
DA:648,1
DA:649,1
DA:650,1
DA:651,1
DA:652,1
DA:653,1
DA:655,0
DA:656,0
DA:658,0
DA:659,0
DA:660,0
DA:662,0
DA:663,0
DA:664,0
DA:666,0
DA:667,0
DA:668,0
DA:669,0
DA:670,0
DA:671,0
DA:673,0
DA:675,0
DA:676,0
DA:677,0
DA:678,0
DA:679,0
DA:680,0
DA:682,0
DA:684,0
DA:685,0
DA:686,0
DA:687,0
DA:688,0
DA:689,1
DA:702,1
DA:703,1
DA:704,1
DA:705,1
DA:706,1
DA:707,1
DA:708,1
DA:710,1
DA:711,1
DA:728,0
DA:729,0
DA:730,0
DA:731,0
DA:732,0
DA:734,0
DA:735,0
DA:736,0
DA:738,0
DA:739,0
DA:740,0
DA:741,0
DA:744,0
DA:746,0
DA:747,0
DA:748,0
DA:750,0
DA:753,0
DA:754,0
DA:756,0
DA:759,0
DA:762,0
DA:763,0
DA:767,0
DA:768,0
DA:769,0
DA:770,0
DA:771,0
DA:772,0
DA:773,0
DA:774,0
DA:775,0
DA:776,0
DA:777,0
DA:778,0
DA:779,0
DA:780,0
DA:781,0
DA:782,0
DA:783,0
DA:784,0
DA:785,0
DA:786,0
DA:787,0
DA:788,0
DA:789,0
DA:790,0
DA:791,0
DA:792,0
DA:793,0
DA:797,0
DA:798,0
DA:799,0
DA:800,0
DA:801,0
DA:805,0
DA:806,0
DA:807,0
DA:808,0
DA:809,0
DA:810,0
DA:811,0
DA:812,0
DA:813,0
DA:814,0
DA:815,0
DA:816,0
DA:817,0
DA:818,0
DA:819,0
DA:820,0
DA:821,0
DA:822,0
DA:823,0
DA:824,0
DA:825,0
DA:826,0
DA:827,0
DA:828,0
DA:829,0
DA:830,0
DA:831,0
DA:832,0
DA:833,0
DA:834,0
DA:835,0
DA:836,0
DA:837,0
DA:838,0
DA:839,0
DA:840,0
DA:841,0
DA:842,0
DA:843,0
DA:844,0
DA:845,0
DA:846,0
DA:847,0
DA:848,0
DA:849,0
DA:850,0
DA:851,0
DA:852,0
DA:853,0
DA:854,0
DA:855,0
DA:856,0
DA:857,0
DA:859,0
DA:860,0
DA:862,0
DA:863,0
DA:867,0
DA:868,0
DA:869,0
DA:870,0
DA:871,0
DA:889,0
DA:890,0
DA:891,0
DA:892,0
DA:893,0
DA:894,0
DA:895,0
DA:896,0
DA:898,0
DA:900,0
DA:901,0
DA:902,0
DA:903,0
DA:904,0
DA:905,0
DA:906,0
DA:907,0
DA:908,0
DA:911,0
DA:913,0
DA:915,0
DA:916,0
DA:917,0
DA:918,0
DA:919,0
DA:920,0
DA:921,0
DA:922,0
DA:923,0
DA:924,0
DA:925,0
DA:926,0
DA:929,0
DA:930,0
DA:931,0
DA:932,0
DA:933,0
DA:934,0
DA:935,0
DA:936,0
DA:937,0
DA:938,0
DA:939,0
DA:940,0
DA:941,0
DA:943,0
DA:944,0
DA:946,0
DA:947,0
DA:948,0
DA:950,0
DA:951,0
DA:952,0
DA:953,0
DA:954,0
DA:955,0
DA:956,0
DA:958,0
DA:959,0
DA:962,0
DA:963,0
DA:964,0
DA:965,0
DA:966,0
DA:967,0
DA:968,0
DA:969,0
DA:971,0
DA:973,0
DA:975,0
DA:977,0
DA:978,0
DA:979,0
DA:980,0
DA:981,0
DA:982,0
DA:984,0
DA:985,0
DA:986,0
DA:987,0
DA:988,0
DA:990,0
DA:993,0
DA:994,0
DA:996,0
DA:997,0
DA:998,0
DA:999,0
DA:1000,0
DA:1001,0
DA:1002,0
DA:1004,0
DA:1007,0
DA:1008,0
DA:1009,0
DA:1010,0
DA:1012,0
DA:1013,0
DA:1016,0
DA:1017,0
DA:1018,0
DA:1020,0
DA:1023,0
DA:1024,0
DA:1025,0
DA:1026,0
DA:1027,0
DA:1028,0
DA:1029,0
DA:1030,0
DA:1031,0
DA:1032,0
DA:1033,0
DA:1034,0
DA:1035,0
DA:1036,0
DA:1037,0
DA:1038,0
DA:1040,0
DA:1041,0
DA:1043,0
DA:1044,0
DA:1046,0
DA:1048,0
DA:1049,0
DA:1051,0
DA:1052,0
DA:1054,0
DA:1055,0
DA:1056,0
DA:1059,0
DA:1060,0
DA:1061,0
DA:1062,0
DA:1063,0
DA:1064,0
DA:1066,0
DA:1070,0
DA:1071,0
DA:1072,0
DA:1074,0
DA:1075,0
DA:1076,0
DA:1077,0
DA:1078,0
DA:1079,0
DA:1081,0
DA:1083,0
DA:1084,0
DA:1085,0
DA:1086,0
DA:1087,0
DA:1088,0
DA:1090,0
DA:1093,0
DA:1094,0
DA:1097,0
DA:1098,0
DA:1116,0
DA:1117,0
DA:1118,0
DA:1119,0
DA:1120,0
DA:1121,0
DA:1122,0
DA:1125,0
DA:1126,0
DA:1127,0
DA:1128,0
DA:1129,0
DA:1131,0
DA:1132,0
DA:1133,0
DA:1134,0
DA:1135,0
DA:1136,0
DA:1137,0
DA:1152,0
DA:1153,0
DA:1154,0
DA:1155,0
DA:1156,0
DA:1158,0
DA:1159,0
DA:1162,0
DA:1163,0
DA:1164,0
DA:1165,0
DA:1166,0
DA:1167,0
DA:1170,0
DA:1171,0
DA:1172,0
DA:1175,0
DA:1176,0
DA:1178,0
DA:1179,0
DA:1180,0
DA:1183,0
DA:1186,0
DA:1189,0
DA:1190,0
DA:1191,0
DA:1192,0
DA:1193,0
DA:1194,0
DA:1196,0
DA:1197,0
DA:1198,0
DA:1199,0
DA:1200,0
DA:1201,0
DA:1203,0
DA:1205,0
DA:1206,0
DA:1207,0
DA:1208,0
DA:1209,0
DA:1210,0
DA:1212,0
DA:1214,0
DA:1215,0
DA:1216,0
DA:1217,0
DA:1218,0
DA:1219,0
DA:1237,0
DA:1238,0
DA:1239,0
DA:1240,0
DA:1241,0
DA:1242,0
DA:1243,0
DA:1246,0
DA:1247,0
DA:1248,0
DA:1249,0
DA:1250,0
DA:1252,0
DA:1253,0
DA:1254,0
DA:1255,0
DA:1256,0
DA:1257,0
DA:1258,0
DA:1273,0
DA:1274,0
DA:1275,0
DA:1276,0
DA:1277,0
DA:1279,0
DA:1280,0
DA:1283,0
DA:1284,0
DA:1285,0
DA:1286,0
DA:1287,0
DA:1288,0
DA:1291,0
DA:1292,0
DA:1293,0
DA:1296,0
DA:1297,0
DA:1299,0
DA:1300,0
DA:1301,0
DA:1304,0
DA:1307,0
DA:1310,0
DA:1311,0
DA:1312,0
DA:1313,0
DA:1314,0
DA:1315,0
DA:1317,0
DA:1318,0
DA:1319,0
DA:1320,0
DA:1321,0
DA:1322,0
DA:1324,0
DA:1326,0
DA:1327,0
DA:1328,0
DA:1329,0
DA:1330,0
DA:1331,0
DA:1333,0
DA:1335,0
DA:1336,0
DA:1337,0
DA:1338,0
DA:1339,0
DA:1340,0
DA:1347,0
DA:1348,0
DA:1349,0
DA:1350,0
DA:1351,0
DA:1352,0
DA:1354,0
DA:1355,0
DA:1356,0
DA:1357,0
DA:1358,0
DA:1360,0
DA:1361,0
DA:1362,0
DA:1363,0
DA:1364,0
DA:1365,0
DA:1366,0
DA:1369,0
DA:1370,0
DA:1373,0
DA:1375,0
DA:1376,0
DA:1377,0
DA:1378,0
DA:1379,0
DA:1380,0
DA:1381,0
DA:1382,0
DA:1383,0
DA:1384,0
DA:1385,0
DA:1386,0
DA:1387,0
DA:1388,0
DA:1389,0
DA:1390,0
DA:1392,0
DA:1393,0
DA:1394,0
DA:1395,0
DA:1396,0
DA:1399,0
DA:1400,0
DA:1401,0
DA:1402,0
DA:1403,0
DA:1406,0
DA:1407,0
DA:1408,0
DA:1409,0
DA:1411,0
DA:1412,0
BRF:0
BRH:0
LF:943
LH:117
end_of_record
SF:/Users/jt/code/threadkit/server/crates/http/src/routes/comments.rs
FN:935,_RNvNtNtCsaszyX3GTrYE_14threadkit_http6routes8comments11pin_comment
FN:146,_RNvNtNtCsaszyX3GTrYE_14threadkit_http6routes8comments12get_comments
FN:1086,_RNvNtNtCsaszyX3GTrYE_14threadkit_http6routes8comments12get_my_votes
FN:820,_RNvNtNtCsaszyX3GTrYE_14threadkit_http6routes8comments12vote_comment
FN:1229,_RNvNtNtCsaszyX3GTrYE_14threadkit_http6routes8comments13sort_comments
FN:320,_RNvNtNtCsaszyX3GTrYE_14threadkit_http6routes8comments14create_comment
FN:751,_RNvNtNtCsaszyX3GTrYE_14threadkit_http6routes8comments14delete_comment
FN:1032,_RNvNtNtCsaszyX3GTrYE_14threadkit_http6routes8comments14report_comment
FN:674,_RNvNtNtCsaszyX3GTrYE_14threadkit_http6routes8comments14update_comment
FN:1285,_RNvNtNtCsaszyX3GTrYE_14threadkit_http6routes8comments16markdown_to_html
FN:1120,_RNvNtNtCsaszyX3GTrYE_14threadkit_http6routes8comments16verify_turnstile
FN:1198,_RNvNtNtCsaszyX3GTrYE_14threadkit_http6routes8comments24filter_comment_recursive
FN:1188,_RNvNtNtCsaszyX3GTrYE_14threadkit_http6routes8comments24filter_tree_for_response
FN:32,_RNvNtNtCsaszyX3GTrYE_14threadkit_http6routes8comments6router
FN:1225,_RNvNtNtCsaszyX3GTrYE_14threadkit_http6routes8comments9sort_tree
FN:885,_RNCNCNCNvNtNtCsaszyX3GTrYE_14threadkit_http6routes8comments12vote_comment0s0_00Bb_
FN:891,_RNCNCNCNvNtNtCsaszyX3GTrYE_14threadkit_http6routes8comments12vote_comment0s0_0s_0Bb_
FN:570,_RNCNCNCNvNtNtCsaszyX3GTrYE_14threadkit_http6routes8comments14create_comment0s5_00Bb_
FN:583,_RNCNCNCNvNtNtCsaszyX3GTrYE_14threadkit_http6routes8comments14create_comment0s5_0s0_0Bb_
FN:591,_RNCNCNCNvNtNtCsaszyX3GTrYE_14threadkit_http6routes8comments14create_comment0s5_0s1_0Bb_
FN:599,_RNCNCNCNvNtNtCsaszyX3GTrYE_14threadkit_http6routes8comments14create_comment0s5_0s2_0Bb_
FN:607,_RNCNCNCNvNtNtCsaszyX3GTrYE_14threadkit_http6routes8comments14create_comment0s5_0s3_0Bb_
FN:615,_RNCNCNCNvNtNtCsaszyX3GTrYE_14threadkit_http6routes8comments14create_comment0s5_0s4_0Bb_
FN:631,_RNCNCNCNvNtNtCsaszyX3GTrYE_14threadkit_http6routes8comments14create_comment0s5_0s5_0Bb_
FN:573,_RNCNCNCNvNtNtCsaszyX3GTrYE_14threadkit_http6routes8comments14create_comment0s5_0s_0Bb_
FN:956,_RNCNCNvNtNtCsaszyX3GTrYE_14threadkit_http6routes8comments11pin_comment00B9_
FN:978,_RNCNCNvNtNtCsaszyX3GTrYE_14threadkit_http6routes8comments11pin_comment0s0_0B9_
FN:985,_RNCNCNvNtNtCsaszyX3GTrYE_14threadkit_http6routes8comments11pin_comment0s1_0B9_
FN:992,_RNCNCNvNtNtCsaszyX3GTrYE_14threadkit_http6routes8comments11pin_comment0s2_0B9_
FN:968,_RNCNCNvNtNtCsaszyX3GTrYE_14threadkit_http6routes8comments11pin_comment0s_0B9_
FN:162,_RNCNCNvNtNtCsaszyX3GTrYE_14threadkit_http6routes8comments12get_comments00B9_
FN:231,_RNCNCNvNtNtCsaszyX3GTrYE_14threadkit_http6routes8comments12get_comments0s1_0B9_
FN:240,_RNCNCNvNtNtCsaszyX3GTrYE_14threadkit_http6routes8comments12get_comments0s2_0B9_
FN:199,_RNCNCNvNtNtCsaszyX3GTrYE_14threadkit_http6routes8comments12get_comments0s4_0B9_
FN:213,_RNCNCNvNtNtCsaszyX3GTrYE_14threadkit_http6routes8comments12get_comments0s5_0B9_
FN:221,_RNCNCNvNtNtCsaszyX3GTrYE_14threadkit_http6routes8comments12get_comments0s6_0B9_
FN:184,_RNCNCNvNtNtCsaszyX3GTrYE_14threadkit_http6routes8comments12get_comments0s_0B9_
FN:1098,_RNCNCNvNtNtCsaszyX3GTrYE_14threadkit_http6routes8comments12get_my_votes00B9_
FN:1103,_RNCNCNvNtNtCsaszyX3GTrYE_14threadkit_http6routes8comments12get_my_votes0s_0B9_
FN:852,_RNCNCNvNtNtCsaszyX3GTrYE_14threadkit_http6routes8comments12vote_comment00B9_
FN:881,_RNCNCNvNtNtCsaszyX3GTrYE_14threadkit_http6routes8comments12vote_comment0s0_0B9_
FN:862,_RNCNCNvNtNtCsaszyX3GTrYE_14threadkit_http6routes8comments12vote_comment0s_0B9_
FN:337,_RNCNCNvNtNtCsaszyX3GTrYE_14threadkit_http6routes8comments14create_comment00B9_
FN:475,_RNCNCNvNtNtCsaszyX3GTrYE_14threadkit_http6routes8comments14create_comment0s0_0B9_
FN:515,_RNCNCNvNtNtCsaszyX3GTrYE_14threadkit_http6routes8comments14create_comment0s1_0B9_
FN:532,_RNCNCNvNtNtCsaszyX3GTrYE_14threadkit_http6routes8comments14create_comment0s2_0B9_
FN:551,_RNCNCNvNtNtCsaszyX3GTrYE_14threadkit_http6routes8comments14create_comment0s3_0B9_
FN:561,_RNCNCNvNtNtCsaszyX3GTrYE_14threadkit_http6routes8comments14create_comment0s5_0B9_
FN:468,_RNCNCNvNtNtCsaszyX3GTrYE_14threadkit_http6routes8comments14create_comment0s_0B9_
FN:772,_RNCNCNvNtNtCsaszyX3GTrYE_14threadkit_http6routes8comments14delete_comment00B9_
FN:792,_RNCNCNvNtNtCsaszyX3GTrYE_14threadkit_http6routes8comments14delete_comment0s_0B9_
FN:1051,_RNCNCNvNtNtCsaszyX3GTrYE_14threadkit_http6routes8comments14report_comment00B9_
FN:1069,_RNCNCNvNtNtCsaszyX3GTrYE_14threadkit_http6routes8comments14report_comment0s_0B9_
FN:695,_RNCNCNvNtNtCsaszyX3GTrYE_14threadkit_http6routes8comments14update_comment00B9_
FN:720,_RNCNCNvNtNtCsaszyX3GTrYE_14threadkit_http6routes8comments14update_comment0s_0B9_
FN:1146,_RNCNCNvNtNtCsaszyX3GTrYE_14threadkit_http6routes8comments16verify_turnstile00B9_
FN:1162,_RNCNCNvNtNtCsaszyX3GTrYE_14threadkit_http6routes8comments16verify_turnstile0s0_0B9_
FN:1163,_RNCNCNvNtNtCsaszyX3GTrYE_14threadkit_http6routes8comments16verify_turnstile0s1_0B9_
FN:1167,_RNCNCNvNtNtCsaszyX3GTrYE_14threadkit_http6routes8comments16verify_turnstile0s2_0B9_
FN:1161,_RNCNCNvNtNtCsaszyX3GTrYE_14threadkit_http6routes8comments16verify_turnstile0s_0B9_
FN:941,_RNCNvNtNtCsaszyX3GTrYE_14threadkit_http6routes8comments11pin_comment0B7_
FN:152,_RNCNvNtNtCsaszyX3GTrYE_14threadkit_http6routes8comments12get_comments0B7_
FN:1091,_RNCNvNtNtCsaszyX3GTrYE_14threadkit_http6routes8comments12get_my_votes0B7_
FN:826,_RNCNvNtNtCsaszyX3GTrYE_14threadkit_http6routes8comments12vote_comment0B7_
FN:1232,_RNCNvNtNtCsaszyX3GTrYE_14threadkit_http6routes8comments13sort_comments0B7_
FN:1243,_RNCNvNtNtCsaszyX3GTrYE_14threadkit_http6routes8comments13sort_commentss0_0B7_
FN:1275,_RNCNvNtNtCsaszyX3GTrYE_14threadkit_http6routes8comments13sort_commentss1_0B7_
FN:1235,_RNCNvNtNtCsaszyX3GTrYE_14threadkit_http6routes8comments13sort_commentss_0B7_
FN:326,_RNCNvNtNtCsaszyX3GTrYE_14threadkit_http6routes8comments14create_comment0B7_
FN:757,_RNCNvNtNtCsaszyX3GTrYE_14threadkit_http6routes8comments14delete_comment0B7_
FN:1038,_RNCNvNtNtCsaszyX3GTrYE_14threadkit_http6routes8comments14report_comment0B7_
FN:680,_RNCNvNtNtCsaszyX3GTrYE_14threadkit_http6routes8comments14update_comment0B7_
FN:1125,_RNCNvNtNtCsaszyX3GTrYE_14threadkit_http6routes8comments16verify_turnstile0B7_
FN:1209,_RNCNvNtNtCsaszyX3GTrYE_14threadkit_http6routes8comments24filter_comment_recursive0B7_
FN:1193,_RNCNvNtNtCsaszyX3GTrYE_14threadkit_http6routes8comments24filter_tree_for_response0B7_
FN:1229,_RNvNtNtCskwAV7ptXVKm_14threadkit_http6routes8comments13sort_comments
FN:1285,_RNvNtNtCskwAV7ptXVKm_14threadkit_http6routes8comments16markdown_to_html
FN:1120,_RNvNtNtCskwAV7ptXVKm_14threadkit_http6routes8comments16verify_turnstile
FN:1198,_RNvNtNtCskwAV7ptXVKm_14threadkit_http6routes8comments24filter_comment_recursive
FN:1188,_RNvNtNtCskwAV7ptXVKm_14threadkit_http6routes8comments24filter_tree_for_response
FN:1225,_RNvNtNtCskwAV7ptXVKm_14threadkit_http6routes8comments9sort_tree
FN:935,_RNvNtNtCskwAV7ptXVKm_14threadkit_http6routes8comments11pin_comment
FN:146,_RNvNtNtCskwAV7ptXVKm_14threadkit_http6routes8comments12get_comments
FN:1086,_RNvNtNtCskwAV7ptXVKm_14threadkit_http6routes8comments12get_my_votes
FN:820,_RNvNtNtCskwAV7ptXVKm_14threadkit_http6routes8comments12vote_comment
FN:320,_RNvNtNtCskwAV7ptXVKm_14threadkit_http6routes8comments14create_comment
FN:751,_RNvNtNtCskwAV7ptXVKm_14threadkit_http6routes8comments14delete_comment
FN:1032,_RNvNtNtCskwAV7ptXVKm_14threadkit_http6routes8comments14report_comment
FN:674,_RNvNtNtCskwAV7ptXVKm_14threadkit_http6routes8comments14update_comment
FN:32,_RNvNtNtCskwAV7ptXVKm_14threadkit_http6routes8comments6router
FN:885,_RNCNCNCNvNtNtCskwAV7ptXVKm_14threadkit_http6routes8comments12vote_comment0s0_00Bb_
FN:891,_RNCNCNCNvNtNtCskwAV7ptXVKm_14threadkit_http6routes8comments12vote_comment0s0_0s_0Bb_
FN:570,_RNCNCNCNvNtNtCskwAV7ptXVKm_14threadkit_http6routes8comments14create_comment0s5_00Bb_
FN:583,_RNCNCNCNvNtNtCskwAV7ptXVKm_14threadkit_http6routes8comments14create_comment0s5_0s0_0Bb_
FN:591,_RNCNCNCNvNtNtCskwAV7ptXVKm_14threadkit_http6routes8comments14create_comment0s5_0s1_0Bb_
FN:599,_RNCNCNCNvNtNtCskwAV7ptXVKm_14threadkit_http6routes8comments14create_comment0s5_0s2_0Bb_
FN:607,_RNCNCNCNvNtNtCskwAV7ptXVKm_14threadkit_http6routes8comments14create_comment0s5_0s3_0Bb_
FN:615,_RNCNCNCNvNtNtCskwAV7ptXVKm_14threadkit_http6routes8comments14create_comment0s5_0s4_0Bb_
FN:631,_RNCNCNCNvNtNtCskwAV7ptXVKm_14threadkit_http6routes8comments14create_comment0s5_0s5_0Bb_
FN:573,_RNCNCNCNvNtNtCskwAV7ptXVKm_14threadkit_http6routes8comments14create_comment0s5_0s_0Bb_
FN:956,_RNCNCNvNtNtCskwAV7ptXVKm_14threadkit_http6routes8comments11pin_comment00B9_
FN:978,_RNCNCNvNtNtCskwAV7ptXVKm_14threadkit_http6routes8comments11pin_comment0s0_0B9_
FN:985,_RNCNCNvNtNtCskwAV7ptXVKm_14threadkit_http6routes8comments11pin_comment0s1_0B9_
FN:992,_RNCNCNvNtNtCskwAV7ptXVKm_14threadkit_http6routes8comments11pin_comment0s2_0B9_
FN:968,_RNCNCNvNtNtCskwAV7ptXVKm_14threadkit_http6routes8comments11pin_comment0s_0B9_
FN:162,_RNCNCNvNtNtCskwAV7ptXVKm_14threadkit_http6routes8comments12get_comments00B9_
FN:231,_RNCNCNvNtNtCskwAV7ptXVKm_14threadkit_http6routes8comments12get_comments0s1_0B9_
FN:240,_RNCNCNvNtNtCskwAV7ptXVKm_14threadkit_http6routes8comments12get_comments0s2_0B9_
FN:199,_RNCNCNvNtNtCskwAV7ptXVKm_14threadkit_http6routes8comments12get_comments0s4_0B9_
FN:213,_RNCNCNvNtNtCskwAV7ptXVKm_14threadkit_http6routes8comments12get_comments0s5_0B9_
FN:221,_RNCNCNvNtNtCskwAV7ptXVKm_14threadkit_http6routes8comments12get_comments0s6_0B9_
FN:184,_RNCNCNvNtNtCskwAV7ptXVKm_14threadkit_http6routes8comments12get_comments0s_0B9_
FN:1098,_RNCNCNvNtNtCskwAV7ptXVKm_14threadkit_http6routes8comments12get_my_votes00B9_
FN:1103,_RNCNCNvNtNtCskwAV7ptXVKm_14threadkit_http6routes8comments12get_my_votes0s_0B9_
FN:852,_RNCNCNvNtNtCskwAV7ptXVKm_14threadkit_http6routes8comments12vote_comment00B9_
FN:881,_RNCNCNvNtNtCskwAV7ptXVKm_14threadkit_http6routes8comments12vote_comment0s0_0B9_
FN:862,_RNCNCNvNtNtCskwAV7ptXVKm_14threadkit_http6routes8comments12vote_comment0s_0B9_
FN:337,_RNCNCNvNtNtCskwAV7ptXVKm_14threadkit_http6routes8comments14create_comment00B9_
FN:475,_RNCNCNvNtNtCskwAV7ptXVKm_14threadkit_http6routes8comments14create_comment0s0_0B9_
FN:515,_RNCNCNvNtNtCskwAV7ptXVKm_14threadkit_http6routes8comments14create_comment0s1_0B9_
FN:532,_RNCNCNvNtNtCskwAV7ptXVKm_14threadkit_http6routes8comments14create_comment0s2_0B9_
FN:551,_RNCNCNvNtNtCskwAV7ptXVKm_14threadkit_http6routes8comments14create_comment0s3_0B9_
FN:561,_RNCNCNvNtNtCskwAV7ptXVKm_14threadkit_http6routes8comments14create_comment0s5_0B9_
FN:468,_RNCNCNvNtNtCskwAV7ptXVKm_14threadkit_http6routes8comments14create_comment0s_0B9_
FN:772,_RNCNCNvNtNtCskwAV7ptXVKm_14threadkit_http6routes8comments14delete_comment00B9_
FN:792,_RNCNCNvNtNtCskwAV7ptXVKm_14threadkit_http6routes8comments14delete_comment0s_0B9_
FN:1051,_RNCNCNvNtNtCskwAV7ptXVKm_14threadkit_http6routes8comments14report_comment00B9_
FN:1069,_RNCNCNvNtNtCskwAV7ptXVKm_14threadkit_http6routes8comments14report_comment0s_0B9_
FN:695,_RNCNCNvNtNtCskwAV7ptXVKm_14threadkit_http6routes8comments14update_comment00B9_
FN:720,_RNCNCNvNtNtCskwAV7ptXVKm_14threadkit_http6routes8comments14update_comment0s_0B9_
FN:1146,_RNCNCNvNtNtCskwAV7ptXVKm_14threadkit_http6routes8comments16verify_turnstile00B9_
FN:1162,_RNCNCNvNtNtCskwAV7ptXVKm_14threadkit_http6routes8comments16verify_turnstile0s0_0B9_
FN:1163,_RNCNCNvNtNtCskwAV7ptXVKm_14threadkit_http6routes8comments16verify_turnstile0s1_0B9_
FN:1167,_RNCNCNvNtNtCskwAV7ptXVKm_14threadkit_http6routes8comments16verify_turnstile0s2_0B9_
FN:1161,_RNCNCNvNtNtCskwAV7ptXVKm_14threadkit_http6routes8comments16verify_turnstile0s_0B9_
FN:941,_RNCNvNtNtCskwAV7ptXVKm_14threadkit_http6routes8comments11pin_comment0B7_
FN:152,_RNCNvNtNtCskwAV7ptXVKm_14threadkit_http6routes8comments12get_comments0B7_
FN:1091,_RNCNvNtNtCskwAV7ptXVKm_14threadkit_http6routes8comments12get_my_votes0B7_
FN:826,_RNCNvNtNtCskwAV7ptXVKm_14threadkit_http6routes8comments12vote_comment0B7_
FN:1232,_RNCNvNtNtCskwAV7ptXVKm_14threadkit_http6routes8comments13sort_comments0B7_
FN:1243,_RNCNvNtNtCskwAV7ptXVKm_14threadkit_http6routes8comments13sort_commentss0_0B7_
FN:1275,_RNCNvNtNtCskwAV7ptXVKm_14threadkit_http6routes8comments13sort_commentss1_0B7_
FN:1235,_RNCNvNtNtCskwAV7ptXVKm_14threadkit_http6routes8comments13sort_commentss_0B7_
FN:326,_RNCNvNtNtCskwAV7ptXVKm_14threadkit_http6routes8comments14create_comment0B7_
FN:757,_RNCNvNtNtCskwAV7ptXVKm_14threadkit_http6routes8comments14delete_comment0B7_
FN:1038,_RNCNvNtNtCskwAV7ptXVKm_14threadkit_http6routes8comments14report_comment0B7_
FN:680,_RNCNvNtNtCskwAV7ptXVKm_14threadkit_http6routes8comments14update_comment0B7_
FN:1125,_RNCNvNtNtCskwAV7ptXVKm_14threadkit_http6routes8comments16verify_turnstile0B7_
FN:1209,_RNCNvNtNtCskwAV7ptXVKm_14threadkit_http6routes8comments24filter_comment_recursive0B7_
FN:1193,_RNCNvNtNtCskwAV7ptXVKm_14threadkit_http6routes8comments24filter_tree_for_response0B7_
FNDA:0,_RNvNtNtCsaszyX3GTrYE_14threadkit_http6routes8comments11pin_comment
FNDA:9,_RNvNtNtCsaszyX3GTrYE_14threadkit_http6routes8comments12get_comments
FNDA:0,_RNvNtNtCsaszyX3GTrYE_14threadkit_http6routes8comments12get_my_votes
FNDA:24,_RNvNtNtCsaszyX3GTrYE_14threadkit_http6routes8comments12vote_comment
FNDA:14,_RNvNtNtCsaszyX3GTrYE_14threadkit_http6routes8comments13sort_comments
FNDA:50,_RNvNtNtCsaszyX3GTrYE_14threadkit_http6routes8comments14create_comment
FNDA:1,_RNvNtNtCsaszyX3GTrYE_14threadkit_http6routes8comments14delete_comment
FNDA:3,_RNvNtNtCsaszyX3GTrYE_14threadkit_http6routes8comments14report_comment
FNDA:2,_RNvNtNtCsaszyX3GTrYE_14threadkit_http6routes8comments14update_comment
FNDA:47,_RNvNtNtCsaszyX3GTrYE_14threadkit_http6routes8comments16markdown_to_html
FNDA:49,_RNvNtNtCsaszyX3GTrYE_14threadkit_http6routes8comments16verify_turnstile
FNDA:7,_RNvNtNtCsaszyX3GTrYE_14threadkit_http6routes8comments24filter_comment_recursive
FNDA:9,_RNvNtNtCsaszyX3GTrYE_14threadkit_http6routes8comments24filter_tree_for_response
FNDA:62,_RNvNtNtCsaszyX3GTrYE_14threadkit_http6routes8comments6router
FNDA:9,_RNvNtNtCsaszyX3GTrYE_14threadkit_http6routes8comments9sort_tree
FNDA:18,_RNCNCNCNvNtNtCsaszyX3GTrYE_14threadkit_http6routes8comments12vote_comment0s0_00Bb_
FNDA:18,_RNCNCNCNvNtNtCsaszyX3GTrYE_14threadkit_http6routes8comments12vote_comment0s0_0s_0Bb_
FNDA:37,_RNCNCNCNvNtNtCsaszyX3GTrYE_14threadkit_http6routes8comments14create_comment0s5_00Bb_
FNDA:37,_RNCNCNCNvNtNtCsaszyX3GTrYE_14threadkit_http6routes8comments14create_comment0s5_0s0_0Bb_
FNDA:4,_RNCNCNCNvNtNtCsaszyX3GTrYE_14threadkit_http6routes8comments14create_comment0s5_0s1_0Bb_
FNDA:37,_RNCNCNCNvNtNtCsaszyX3GTrYE_14threadkit_http6routes8comments14create_comment0s5_0s2_0Bb_
FNDA:37,_RNCNCNCNvNtNtCsaszyX3GTrYE_14threadkit_http6routes8comments14create_comment0s5_0s3_0Bb_
FNDA:0,_RNCNCNCNvNtNtCsaszyX3GTrYE_14threadkit_http6routes8comments14create_comment0s5_0s4_0Bb_
FNDA:37,_RNCNCNCNvNtNtCsaszyX3GTrYE_14threadkit_http6routes8comments14create_comment0s5_0s5_0Bb_
FNDA:37,_RNCNCNCNvNtNtCsaszyX3GTrYE_14threadkit_http6routes8comments14create_comment0s5_0s_0Bb_
FNDA:0,_RNCNCNvNtNtCsaszyX3GTrYE_14threadkit_http6routes8comments11pin_comment00B9_
FNDA:0,_RNCNCNvNtNtCsaszyX3GTrYE_14threadkit_http6routes8comments11pin_comment0s0_0B9_
FNDA:0,_RNCNCNvNtNtCsaszyX3GTrYE_14threadkit_http6routes8comments11pin_comment0s1_0B9_
FNDA:0,_RNCNCNvNtNtCsaszyX3GTrYE_14threadkit_http6routes8comments11pin_comment0s2_0B9_
FNDA:0,_RNCNCNvNtNtCsaszyX3GTrYE_14threadkit_http6routes8comments11pin_comment0s_0B9_
FNDA:0,_RNCNCNvNtNtCsaszyX3GTrYE_14threadkit_http6routes8comments12get_comments00B9_
FNDA:0,_RNCNCNvNtNtCsaszyX3GTrYE_14threadkit_http6routes8comments12get_comments0s1_0B9_
FNDA:0,_RNCNCNvNtNtCsaszyX3GTrYE_14threadkit_http6routes8comments12get_comments0s2_0B9_
FNDA:9,_RNCNCNvNtNtCsaszyX3GTrYE_14threadkit_http6routes8comments12get_comments0s4_0B9_
FNDA:9,_RNCNCNvNtNtCsaszyX3GTrYE_14threadkit_http6routes8comments12get_comments0s5_0B9_
FNDA:9,_RNCNCNvNtNtCsaszyX3GTrYE_14threadkit_http6routes8comments12get_comments0s6_0B9_
FNDA:9,_RNCNCNvNtNtCsaszyX3GTrYE_14threadkit_http6routes8comments12get_comments0s_0B9_
FNDA:0,_RNCNCNvNtNtCsaszyX3GTrYE_14threadkit_http6routes8comments12get_my_votes00B9_
FNDA:0,_RNCNCNvNtNtCsaszyX3GTrYE_14threadkit_http6routes8comments12get_my_votes0s_0B9_
FNDA:0,_RNCNCNvNtNtCsaszyX3GTrYE_14threadkit_http6routes8comments12vote_comment00B9_
FNDA:18,_RNCNCNvNtNtCsaszyX3GTrYE_14threadkit_http6routes8comments12vote_comment0s0_0B9_
FNDA:0,_RNCNCNvNtNtCsaszyX3GTrYE_14threadkit_http6routes8comments12vote_comment0s_0B9_
FNDA:0,_RNCNCNvNtNtCsaszyX3GTrYE_14threadkit_http6routes8comments14create_comment00B9_
FNDA:0,_RNCNCNvNtNtCsaszyX3GTrYE_14threadkit_http6routes8comments14create_comment0s0_0B9_
FNDA:0,_RNCNCNvNtNtCsaszyX3GTrYE_14threadkit_http6routes8comments14create_comment0s1_0B9_
FNDA:0,_RNCNCNvNtNtCsaszyX3GTrYE_14threadkit_http6routes8comments14create_comment0s2_0B9_
FNDA:1,_RNCNCNvNtNtCsaszyX3GTrYE_14threadkit_http6routes8comments14create_comment0s3_0B9_
FNDA:37,_RNCNCNvNtNtCsaszyX3GTrYE_14threadkit_http6routes8comments14create_comment0s5_0B9_
FNDA:0,_RNCNCNvNtNtCsaszyX3GTrYE_14threadkit_http6routes8comments14create_comment0s_0B9_
FNDA:0,_RNCNCNvNtNtCsaszyX3GTrYE_14threadkit_http6routes8comments14delete_comment00B9_
FNDA:0,_RNCNCNvNtNtCsaszyX3GTrYE_14threadkit_http6routes8comments14delete_comment0s_0B9_
FNDA:0,_RNCNCNvNtNtCsaszyX3GTrYE_14threadkit_http6routes8comments14report_comment00B9_
FNDA:0,_RNCNCNvNtNtCsaszyX3GTrYE_14threadkit_http6routes8comments14report_comment0s_0B9_
FNDA:0,_RNCNCNvNtNtCsaszyX3GTrYE_14threadkit_http6routes8comments14update_comment00B9_
FNDA:0,_RNCNCNvNtNtCsaszyX3GTrYE_14threadkit_http6routes8comments14update_comment0s_0B9_
FNDA:0,_RNCNCNvNtNtCsaszyX3GTrYE_14threadkit_http6routes8comments16verify_turnstile00B9_
FNDA:0,_RNCNCNvNtNtCsaszyX3GTrYE_14threadkit_http6routes8comments16verify_turnstile0s0_0B9_
FNDA:0,_RNCNCNvNtNtCsaszyX3GTrYE_14threadkit_http6routes8comments16verify_turnstile0s1_0B9_
FNDA:0,_RNCNCNvNtNtCsaszyX3GTrYE_14threadkit_http6routes8comments16verify_turnstile0s2_0B9_
FNDA:0,_RNCNCNvNtNtCsaszyX3GTrYE_14threadkit_http6routes8comments16verify_turnstile0s_0B9_
FNDA:0,_RNCNvNtNtCsaszyX3GTrYE_14threadkit_http6routes8comments11pin_comment0B7_
FNDA:9,_RNCNvNtNtCsaszyX3GTrYE_14threadkit_http6routes8comments12get_comments0B7_
FNDA:0,_RNCNvNtNtCsaszyX3GTrYE_14threadkit_http6routes8comments12get_my_votes0B7_
FNDA:24,_RNCNvNtNtCsaszyX3GTrYE_14threadkit_http6routes8comments12vote_comment0B7_
FNDA:2,_RNCNvNtNtCsaszyX3GTrYE_14threadkit_http6routes8comments13sort_comments0B7_
FNDA:0,_RNCNvNtNtCsaszyX3GTrYE_14threadkit_http6routes8comments13sort_commentss0_0B7_
FNDA:0,_RNCNvNtNtCsaszyX3GTrYE_14threadkit_http6routes8comments13sort_commentss1_0B7_
FNDA:0,_RNCNvNtNtCsaszyX3GTrYE_14threadkit_http6routes8comments13sort_commentss_0B7_
FNDA:50,_RNCNvNtNtCsaszyX3GTrYE_14threadkit_http6routes8comments14create_comment0B7_
FNDA:1,_RNCNvNtNtCsaszyX3GTrYE_14threadkit_http6routes8comments14delete_comment0B7_
FNDA:3,_RNCNvNtNtCsaszyX3GTrYE_14threadkit_http6routes8comments14report_comment0B7_
FNDA:2,_RNCNvNtNtCsaszyX3GTrYE_14threadkit_http6routes8comments14update_comment0B7_
FNDA:49,_RNCNvNtNtCsaszyX3GTrYE_14threadkit_http6routes8comments16verify_turnstile0B7_
FNDA:0,_RNCNvNtNtCsaszyX3GTrYE_14threadkit_http6routes8comments24filter_comment_recursive0B7_
FNDA:7,_RNCNvNtNtCsaszyX3GTrYE_14threadkit_http6routes8comments24filter_tree_for_response0B7_
FNDA:0,_RNvNtNtCskwAV7ptXVKm_14threadkit_http6routes8comments13sort_comments
FNDA:0,_RNvNtNtCskwAV7ptXVKm_14threadkit_http6routes8comments16markdown_to_html
FNDA:0,_RNvNtNtCskwAV7ptXVKm_14threadkit_http6routes8comments16verify_turnstile
FNDA:0,_RNvNtNtCskwAV7ptXVKm_14threadkit_http6routes8comments24filter_comment_recursive
FNDA:0,_RNvNtNtCskwAV7ptXVKm_14threadkit_http6routes8comments24filter_tree_for_response
FNDA:0,_RNvNtNtCskwAV7ptXVKm_14threadkit_http6routes8comments9sort_tree
FNDA:0,_RNvNtNtCskwAV7ptXVKm_14threadkit_http6routes8comments11pin_comment
FNDA:0,_RNvNtNtCskwAV7ptXVKm_14threadkit_http6routes8comments12get_comments
FNDA:0,_RNvNtNtCskwAV7ptXVKm_14threadkit_http6routes8comments12get_my_votes
FNDA:0,_RNvNtNtCskwAV7ptXVKm_14threadkit_http6routes8comments12vote_comment
FNDA:0,_RNvNtNtCskwAV7ptXVKm_14threadkit_http6routes8comments14create_comment
FNDA:0,_RNvNtNtCskwAV7ptXVKm_14threadkit_http6routes8comments14delete_comment
FNDA:0,_RNvNtNtCskwAV7ptXVKm_14threadkit_http6routes8comments14report_comment
FNDA:0,_RNvNtNtCskwAV7ptXVKm_14threadkit_http6routes8comments14update_comment
FNDA:0,_RNvNtNtCskwAV7ptXVKm_14threadkit_http6routes8comments6router
FNDA:0,_RNCNCNCNvNtNtCskwAV7ptXVKm_14threadkit_http6routes8comments12vote_comment0s0_00Bb_
FNDA:0,_RNCNCNCNvNtNtCskwAV7ptXVKm_14threadkit_http6routes8comments12vote_comment0s0_0s_0Bb_
FNDA:0,_RNCNCNCNvNtNtCskwAV7ptXVKm_14threadkit_http6routes8comments14create_comment0s5_00Bb_
FNDA:0,_RNCNCNCNvNtNtCskwAV7ptXVKm_14threadkit_http6routes8comments14create_comment0s5_0s0_0Bb_
FNDA:0,_RNCNCNCNvNtNtCskwAV7ptXVKm_14threadkit_http6routes8comments14create_comment0s5_0s1_0Bb_
FNDA:0,_RNCNCNCNvNtNtCskwAV7ptXVKm_14threadkit_http6routes8comments14create_comment0s5_0s2_0Bb_
FNDA:0,_RNCNCNCNvNtNtCskwAV7ptXVKm_14threadkit_http6routes8comments14create_comment0s5_0s3_0Bb_
FNDA:0,_RNCNCNCNvNtNtCskwAV7ptXVKm_14threadkit_http6routes8comments14create_comment0s5_0s4_0Bb_
FNDA:0,_RNCNCNCNvNtNtCskwAV7ptXVKm_14threadkit_http6routes8comments14create_comment0s5_0s5_0Bb_
FNDA:0,_RNCNCNCNvNtNtCskwAV7ptXVKm_14threadkit_http6routes8comments14create_comment0s5_0s_0Bb_
FNDA:0,_RNCNCNvNtNtCskwAV7ptXVKm_14threadkit_http6routes8comments11pin_comment00B9_
FNDA:0,_RNCNCNvNtNtCskwAV7ptXVKm_14threadkit_http6routes8comments11pin_comment0s0_0B9_
FNDA:0,_RNCNCNvNtNtCskwAV7ptXVKm_14threadkit_http6routes8comments11pin_comment0s1_0B9_
FNDA:0,_RNCNCNvNtNtCskwAV7ptXVKm_14threadkit_http6routes8comments11pin_comment0s2_0B9_
FNDA:0,_RNCNCNvNtNtCskwAV7ptXVKm_14threadkit_http6routes8comments11pin_comment0s_0B9_
FNDA:0,_RNCNCNvNtNtCskwAV7ptXVKm_14threadkit_http6routes8comments12get_comments00B9_
FNDA:0,_RNCNCNvNtNtCskwAV7ptXVKm_14threadkit_http6routes8comments12get_comments0s1_0B9_
FNDA:0,_RNCNCNvNtNtCskwAV7ptXVKm_14threadkit_http6routes8comments12get_comments0s2_0B9_
FNDA:0,_RNCNCNvNtNtCskwAV7ptXVKm_14threadkit_http6routes8comments12get_comments0s4_0B9_
FNDA:0,_RNCNCNvNtNtCskwAV7ptXVKm_14threadkit_http6routes8comments12get_comments0s5_0B9_
FNDA:0,_RNCNCNvNtNtCskwAV7ptXVKm_14threadkit_http6routes8comments12get_comments0s6_0B9_
FNDA:0,_RNCNCNvNtNtCskwAV7ptXVKm_14threadkit_http6routes8comments12get_comments0s_0B9_
FNDA:0,_RNCNCNvNtNtCskwAV7ptXVKm_14threadkit_http6routes8comments12get_my_votes00B9_
FNDA:0,_RNCNCNvNtNtCskwAV7ptXVKm_14threadkit_http6routes8comments12get_my_votes0s_0B9_
FNDA:0,_RNCNCNvNtNtCskwAV7ptXVKm_14threadkit_http6routes8comments12vote_comment00B9_
FNDA:0,_RNCNCNvNtNtCskwAV7ptXVKm_14threadkit_http6routes8comments12vote_comment0s0_0B9_
FNDA:0,_RNCNCNvNtNtCskwAV7ptXVKm_14threadkit_http6routes8comments12vote_comment0s_0B9_
FNDA:0,_RNCNCNvNtNtCskwAV7ptXVKm_14threadkit_http6routes8comments14create_comment00B9_
FNDA:0,_RNCNCNvNtNtCskwAV7ptXVKm_14threadkit_http6routes8comments14create_comment0s0_0B9_
FNDA:0,_RNCNCNvNtNtCskwAV7ptXVKm_14threadkit_http6routes8comments14create_comment0s1_0B9_
FNDA:0,_RNCNCNvNtNtCskwAV7ptXVKm_14threadkit_http6routes8comments14create_comment0s2_0B9_
FNDA:0,_RNCNCNvNtNtCskwAV7ptXVKm_14threadkit_http6routes8comments14create_comment0s3_0B9_
FNDA:0,_RNCNCNvNtNtCskwAV7ptXVKm_14threadkit_http6routes8comments14create_comment0s5_0B9_
FNDA:0,_RNCNCNvNtNtCskwAV7ptXVKm_14threadkit_http6routes8comments14create_comment0s_0B9_
FNDA:0,_RNCNCNvNtNtCskwAV7ptXVKm_14threadkit_http6routes8comments14delete_comment00B9_
FNDA:0,_RNCNCNvNtNtCskwAV7ptXVKm_14threadkit_http6routes8comments14delete_comment0s_0B9_
FNDA:0,_RNCNCNvNtNtCskwAV7ptXVKm_14threadkit_http6routes8comments14report_comment00B9_
FNDA:0,_RNCNCNvNtNtCskwAV7ptXVKm_14threadkit_http6routes8comments14report_comment0s_0B9_
FNDA:0,_RNCNCNvNtNtCskwAV7ptXVKm_14threadkit_http6routes8comments14update_comment00B9_
FNDA:0,_RNCNCNvNtNtCskwAV7ptXVKm_14threadkit_http6routes8comments14update_comment0s_0B9_
FNDA:0,_RNCNCNvNtNtCskwAV7ptXVKm_14threadkit_http6routes8comments16verify_turnstile00B9_
FNDA:0,_RNCNCNvNtNtCskwAV7ptXVKm_14threadkit_http6routes8comments16verify_turnstile0s0_0B9_
FNDA:0,_RNCNCNvNtNtCskwAV7ptXVKm_14threadkit_http6routes8comments16verify_turnstile0s1_0B9_
FNDA:0,_RNCNCNvNtNtCskwAV7ptXVKm_14threadkit_http6routes8comments16verify_turnstile0s2_0B9_
FNDA:0,_RNCNCNvNtNtCskwAV7ptXVKm_14threadkit_http6routes8comments16verify_turnstile0s_0B9_
FNDA:0,_RNCNvNtNtCskwAV7ptXVKm_14threadkit_http6routes8comments11pin_comment0B7_
FNDA:0,_RNCNvNtNtCskwAV7ptXVKm_14threadkit_http6routes8comments12get_comments0B7_
FNDA:0,_RNCNvNtNtCskwAV7ptXVKm_14threadkit_http6routes8comments12get_my_votes0B7_
FNDA:0,_RNCNvNtNtCskwAV7ptXVKm_14threadkit_http6routes8comments12vote_comment0B7_
FNDA:0,_RNCNvNtNtCskwAV7ptXVKm_14threadkit_http6routes8comments13sort_comments0B7_
FNDA:0,_RNCNvNtNtCskwAV7ptXVKm_14threadkit_http6routes8comments13sort_commentss0_0B7_
FNDA:0,_RNCNvNtNtCskwAV7ptXVKm_14threadkit_http6routes8comments13sort_commentss1_0B7_
FNDA:0,_RNCNvNtNtCskwAV7ptXVKm_14threadkit_http6routes8comments13sort_commentss_0B7_
FNDA:0,_RNCNvNtNtCskwAV7ptXVKm_14threadkit_http6routes8comments14create_comment0B7_
FNDA:0,_RNCNvNtNtCskwAV7ptXVKm_14threadkit_http6routes8comments14delete_comment0B7_
FNDA:0,_RNCNvNtNtCskwAV7ptXVKm_14threadkit_http6routes8comments14report_comment0B7_
FNDA:0,_RNCNvNtNtCskwAV7ptXVKm_14threadkit_http6routes8comments14update_comment0B7_
FNDA:0,_RNCNvNtNtCskwAV7ptXVKm_14threadkit_http6routes8comments16verify_turnstile0B7_
FNDA:0,_RNCNvNtNtCskwAV7ptXVKm_14threadkit_http6routes8comments24filter_comment_recursive0B7_
FNDA:0,_RNCNvNtNtCskwAV7ptXVKm_14threadkit_http6routes8comments24filter_tree_for_response0B7_
FNF:75
FNH:38
DA:32,62
DA:33,62
DA:34,62
DA:35,62
DA:36,62
DA:37,62
DA:38,62
DA:39,62
DA:40,62
DA:146,9
DA:147,9
DA:148,9
DA:149,9
DA:150,9
DA:151,9
DA:152,9
DA:156,9
DA:159,9
DA:162,9
DA:163,0
DA:164,0
DA:165,0
DA:167,0
DA:168,0
DA:169,0
DA:170,0
DA:171,0
DA:172,0
DA:173,0
DA:174,0
DA:175,0
DA:176,0
DA:177,9
DA:182,9
DA:183,9
DA:184,9
DA:185,9
DA:186,9
DA:190,9
DA:191,9
DA:194,9
DA:195,9
DA:197,9
DA:199,9
DA:200,9
DA:201,1
DA:202,1
DA:203,1
DA:204,1
DA:205,1
DA:206,1
DA:207,1
DA:209,8
DA:211,9
DA:213,9
DA:214,9
DA:215,9
DA:217,0
DA:219,9
DA:221,9
DA:222,9
DA:223,9
DA:224,9
DA:225,9
DA:226,9
DA:227,9
DA:229,9
DA:231,9
DA:234,9
DA:237,9
DA:240,9
DA:241,0
DA:243,0
DA:244,0
DA:245,0
DA:246,0
DA:247,0
DA:248,0
DA:249,0
DA:250,0
DA:251,0
DA:252,9
DA:254,9
DA:257,9
DA:258,9
DA:259,9
DA:262,9
DA:263,9
DA:264,9
DA:265,9
DA:267,9
DA:269,9
DA:270,9
DA:271,9
DA:272,9
DA:273,9
DA:274,9
DA:275,9
DA:276,9
DA:278,9
DA:279,9
DA:280,9
DA:283,9
DA:284,1
DA:285,0
DA:286,0
DA:287,0
DA:288,0
DA:289,0
DA:291,0
DA:293,8
DA:295,9
DA:296,9
DA:297,9
DA:298,9
DA:299,9
DA:300,9
DA:301,9
DA:302,9
DA:303,9
DA:304,9
DA:320,50
DA:321,50
DA:322,50
DA:323,50
DA:324,50
DA:325,50
DA:326,50
DA:328,50
DA:329,50
DA:330,1
DA:331,1
DA:332,1
DA:333,1
DA:334,49
DA:337,49
DA:338,0
DA:339,0
DA:340,0
DA:341,0
DA:342,49
DA:345,49
DA:346,0
DA:347,49
DA:350,49
DA:353,49
DA:354,0
DA:355,49
DA:358,49
DA:361,49
DA:362,0
DA:369,49
DA:370,49
DA:371,49
DA:372,49
DA:373,49
DA:375,49
DA:376,0
DA:377,0
DA:378,0
DA:379,0
DA:380,49
DA:383,49
DA:386,47
DA:387,47
DA:388,1
DA:389,1
DA:390,1
DA:391,1
DA:392,1
DA:393,1
DA:394,1
DA:395,46
DA:398,46
DA:399,46
DA:400,46
DA:401,46
DA:402,46
DA:403,46
DA:405,0
DA:414,46
DA:415,46
DA:416,46
DA:417,46
DA:418,46
DA:421,46
DA:422,0
DA:424,0
DA:426,46
DA:428,46
DA:429,46
DA:430,0
DA:432,0
DA:435,0
DA:439,0
DA:440,0
DA:441,0
DA:445,0
DA:446,0
DA:447,0
DA:449,46
DA:452,46
DA:453,46
DA:454,0
DA:456,46
DA:457,5
DA:458,41
DA:463,46
DA:464,46
DA:465,46
DA:466,46
DA:467,46
DA:468,46
DA:469,46
DA:470,46
DA:475,0
DA:476,0
DA:481,46
DA:482,46
DA:483,46
DA:486,46
DA:487,46
DA:488,46
DA:489,46
DA:490,46
DA:491,46
DA:492,46
DA:493,46
DA:494,46
DA:495,46
DA:496,46
DA:497,46
DA:498,46
DA:499,46
DA:500,46
DA:501,46
DA:504,46
DA:505,1
DA:506,1
DA:507,1
DA:508,45
DA:511,45
DA:512,45
DA:513,45
DA:514,45
DA:515,45
DA:517,45
DA:518,44
DA:519,44
DA:520,44
DA:522,1
DA:523,0
DA:524,1
DA:528,45
DA:529,45
DA:530,45
DA:531,45
DA:532,45
DA:535,45
DA:538,45
DA:543,45
DA:544,45
DA:545,45
DA:546,45
DA:549,45
DA:550,1
DA:551,1
DA:552,1
DA:553,0
DA:554,0
DA:555,1
DA:556,1
DA:558,44
DA:561,45
DA:563,37
DA:564,37
DA:567,37
DA:568,37
DA:569,37
DA:570,37
DA:571,37
DA:572,37
DA:573,37
DA:574,37
DA:575,37
DA:576,37
DA:577,37
DA:578,0
DA:582,37
DA:583,37
DA:584,37
DA:585,37
DA:589,37
DA:590,4
DA:591,4
DA:592,4
DA:593,4
DA:594,33
DA:598,37
DA:599,37
DA:600,37
DA:601,37
DA:605,37
DA:606,37
DA:607,37
DA:608,37
DA:609,37
DA:610,0
DA:613,37
DA:614,0
DA:615,0
DA:616,0
DA:617,0
DA:618,0
DA:619,0
DA:620,0
DA:621,0
DA:622,0
DA:623,0
DA:624,0
DA:625,0
DA:626,37
DA:630,37
DA:631,37
DA:632,37
DA:633,37
DA:634,37
DA:635,37
DA:636,37
DA:637,37
DA:638,37
DA:639,37
DA:640,37
DA:641,37
DA:642,37
DA:643,37
DA:644,37
DA:645,37
DA:649,37
DA:650,37
DA:653,45
DA:654,45
DA:655,45
DA:656,50
DA:674,2
DA:675,2
DA:676,2
DA:677,2
DA:678,2
DA:679,2
DA:680,2
DA:682,2
DA:685,2
DA:686,0
DA:687,2
DA:689,2
DA:691,2
DA:692,2
DA:693,2
DA:694,2
DA:695,2
DA:696,2
DA:698,2
DA:699,2
DA:700,2
DA:703,2
DA:704,1
DA:705,1
DA:708,1
DA:709,1
DA:710,1
DA:713,1
DA:716,1
DA:717,1
DA:718,1
DA:719,1
DA:720,1
DA:723,1
DA:726,1
DA:727,1
DA:728,1
DA:729,1
DA:730,1
DA:732,1
DA:733,2
DA:751,1
DA:752,1
DA:753,1
DA:754,1
DA:755,1
DA:756,1
DA:757,1
DA:759,1
DA:762,1
DA:763,0
DA:764,1
DA:766,1
DA:768,1
DA:769,1
DA:770,1
DA:771,1
DA:772,1
DA:773,1
DA:775,1
DA:776,1
DA:777,1
DA:780,1
DA:781,0
DA:782,1
DA:785,1
DA:788,1
DA:789,1
DA:790,1
DA:791,1
DA:792,1
DA:795,1
DA:798,1
DA:799,1
DA:800,1
DA:802,1
DA:803,1
DA:820,24
DA:821,24
DA:822,24
DA:823,24
DA:824,24
DA:825,24
DA:826,24
DA:828,24
DA:831,24
DA:832,0
DA:833,24
DA:835,24
DA:838,24
DA:839,0
DA:848,24
DA:849,24
DA:850,24
DA:851,24
DA:852,24
DA:853,0
DA:854,0
DA:855,0
DA:858,24
DA:859,24
DA:860,24
DA:861,24
DA:862,24
DA:863,24
DA:865,24
DA:866,24
DA:867,24
DA:869,24
DA:872,24
DA:877,24
DA:878,24
DA:879,24
DA:881,24
DA:883,18
DA:885,18
DA:886,18
DA:887,16
DA:888,2
DA:889,18
DA:891,18
DA:892,18
DA:893,18
DA:894,18
DA:895,18
DA:896,18
DA:897,18
DA:898,18
DA:899,18
DA:900,18
DA:901,18
DA:902,18
DA:903,18
DA:904,18
DA:905,18
DA:906,18
DA:907,18
DA:909,18
DA:912,24
DA:913,24
DA:914,24
DA:915,24
DA:916,24
DA:917,24
DA:935,0
DA:936,0
DA:937,0
DA:938,0
DA:939,0
DA:940,0
DA:941,0
DA:942,0
DA:945,0
DA:946,0
DA:947,0
DA:949,0
DA:952,0
DA:953,0
DA:954,0
DA:955,0
DA:956,0
DA:957,0
DA:960,0
DA:961,0
DA:964,0
DA:965,0
DA:966,0
DA:967,0
DA:968,0
DA:971,0
DA:972,0
DA:973,0
DA:974,0
DA:975,0
DA:976,0
DA:977,0
DA:978,0
DA:979,0
DA:981,0
DA:982,0
DA:983,0
DA:984,0
DA:985,0
DA:986,0
DA:991,0
DA:992,0
DA:993,0
DA:994,0
DA:995,0
DA:996,0
DA:997,0
DA:998,0
DA:999,0
DA:1000,0
DA:1001,0
DA:1002,0
DA:1003,0
DA:1004,0
DA:1005,0
DA:1006,0
DA:1007,0
DA:1008,0
DA:1011,0
DA:1012,0
DA:1013,0
DA:1014,0
DA:1015,0
DA:1032,3
DA:1033,3
DA:1034,3
DA:1035,3
DA:1036,3
DA:1037,3
DA:1038,3
DA:1040,3
DA:1041,0
DA:1042,3
DA:1044,3
DA:1047,3
DA:1048,3
DA:1049,3
DA:1050,3
DA:1051,3
DA:1052,3
DA:1054,3
DA:1055,3
DA:1057,3
DA:1058,3
DA:1059,3
DA:1060,3
DA:1061,3
DA:1062,3
DA:1063,3
DA:1065,3
DA:1066,3
DA:1067,3
DA:1068,3
DA:1069,3
DA:1071,3
DA:1072,3
DA:1086,0
DA:1087,0
DA:1088,0
DA:1089,0
DA:1090,0
DA:1091,0
DA:1092,0
DA:1094,0
DA:1095,0
DA:1096,0
DA:1097,0
DA:1098,0
DA:1101,0
DA:1102,0
DA:1103,0
DA:1104,0
DA:1105,0
DA:1106,0
DA:1108,0
DA:1109,0
DA:1110,0
DA:1112,0
DA:1113,0
DA:1120,49
DA:1121,49
DA:1122,49
DA:1123,49
DA:1124,49
DA:1125,49
DA:1126,49
DA:1127,49
DA:1128,45
DA:1129,4
DA:1132,4
DA:1133,2
DA:1134,1
DA:1135,1
DA:1136,0
DA:1139,4
DA:1140,2
DA:1141,2
DA:1144,2
DA:1145,2
DA:1146,2
DA:1147,2
DA:1149,0
DA:1150,0
DA:1151,0
DA:1152,0
DA:1153,0
DA:1154,0
DA:1155,0
DA:1156,0
DA:1157,0
DA:1159,0
DA:1160,0
DA:1161,0
DA:1162,0
DA:1163,0
DA:1165,0
DA:1166,0
DA:1167,0
DA:1168,0
DA:1169,0
DA:1170,0
DA:1171,0
DA:1172,0
DA:1174,0
DA:1175,0
DA:1176,0
DA:1177,0
DA:1178,0
DA:1179,0
DA:1181,0
DA:1182,49
DA:1188,9
DA:1189,9
DA:1190,9
DA:1191,9
DA:1192,9
DA:1193,9
DA:1194,7
DA:1195,7
DA:1196,9
DA:1198,7
DA:1199,7
DA:1200,7
DA:1201,7
DA:1202,7
DA:1204,7
DA:1205,0
DA:1206,7
DA:1209,7
DA:1210,0
DA:1211,0
DA:1214,7
DA:1215,7
DA:1216,5
DA:1217,0
DA:1219,1
DA:1220,1
DA:1222,7
DA:1225,9
DA:1226,9
DA:1227,9
DA:1229,14
DA:1230,14
DA:1232,14
DA:1235,0
DA:1236,0
DA:1237,0
DA:1238,0
DA:1239,0
DA:1243,0
DA:1244,0
DA:1245,0
DA:1247,0
DA:1248,0
DA:1249,0
DA:1252,0
DA:1253,0
DA:1254,0
DA:1256,0
DA:1259,0
DA:1260,0
DA:1261,0
DA:1263,0
DA:1267,0
DA:1268,0
DA:1270,0
DA:1271,0
DA:1275,0
DA:1280,14
DA:1281,5
DA:1282,5
DA:1283,14
DA:1285,47
DA:1287,47
DA:1288,47
DA:1289,47
DA:1290,47
DA:1292,47
DA:1293,47
BRF:0
BRH:0
LF:784
LH:521
end_of_record
SF:/Users/jt/code/threadkit/server/crates/http/src/routes/media.rs
FN:403,_RNvNtNtCsaszyX3GTrYE_14threadkit_http6routes5media12delete_media
FN:244,_RNvNtNtCsaszyX3GTrYE_14threadkit_http6routes5media12upload_image
FN:57,_RNvNtNtCsaszyX3GTrYE_14threadkit_http6routes5media13upload_avatar
FN:33,_RNvNtNtCsaszyX3GTrYE_14threadkit_http6routes5media6router
FN:422,_RNCNCNvNtNtCsaszyX3GTrYE_14threadkit_http6routes5media12delete_media00B9_
FN:454,_RNCNCNvNtNtCsaszyX3GTrYE_14threadkit_http6routes5media12delete_media0s0_0B9_
FN:442,_RNCNCNvNtNtCsaszyX3GTrYE_14threadkit_http6routes5media12delete_media0s_0B9_
FN:261,_RNCNCNvNtNtCsaszyX3GTrYE_14threadkit_http6routes5media12upload_image00B9_
FN:300,_RNCNCNvNtNtCsaszyX3GTrYE_14threadkit_http6routes5media12upload_image0s0_0B9_
FN:312,_RNCNCNvNtNtCsaszyX3GTrYE_14threadkit_http6routes5media12upload_image0s1_0B9_
FN:330,_RNCNCNvNtNtCsaszyX3GTrYE_14threadkit_http6routes5media12upload_image0s2_0B9_
FN:354,_RNCNCNvNtNtCsaszyX3GTrYE_14threadkit_http6routes5media12upload_image0s3_0B9_
FN:285,_RNCNCNvNtNtCsaszyX3GTrYE_14threadkit_http6routes5media12upload_image0s_0B9_
FN:76,_RNCNCNvNtNtCsaszyX3GTrYE_14threadkit_http6routes5media13upload_avatar00B9_
FN:115,_RNCNCNvNtNtCsaszyX3GTrYE_14threadkit_http6routes5media13upload_avatar0s0_0B9_
FN:130,_RNCNCNvNtNtCsaszyX3GTrYE_14threadkit_http6routes5media13upload_avatar0s1_0B9_
FN:149,_RNCNCNvNtNtCsaszyX3GTrYE_14threadkit_http6routes5media13upload_avatar0s2_0B9_
FN:174,_RNCNCNvNtNtCsaszyX3GTrYE_14threadkit_http6routes5media13upload_avatar0s3_0B9_
FN:192,_RNCNCNvNtNtCsaszyX3GTrYE_14threadkit_http6routes5media13upload_avatar0s4_0B9_
FN:205,_RNCNCNvNtNtCsaszyX3GTrYE_14threadkit_http6routes5media13upload_avatar0s5_0B9_
FN:98,_RNCNCNvNtNtCsaszyX3GTrYE_14threadkit_http6routes5media13upload_avatar0s_0B9_
FN:408,_RNCNvNtNtCsaszyX3GTrYE_14threadkit_http6routes5media12delete_media0B7_
FN:249,_RNCNvNtNtCsaszyX3GTrYE_14threadkit_http6routes5media12upload_image0B7_
FN:62,_RNCNvNtNtCsaszyX3GTrYE_14threadkit_http6routes5media13upload_avatar0B7_
FN:403,_RNvNtNtCskwAV7ptXVKm_14threadkit_http6routes5media12delete_media
FN:244,_RNvNtNtCskwAV7ptXVKm_14threadkit_http6routes5media12upload_image
FN:57,_RNvNtNtCskwAV7ptXVKm_14threadkit_http6routes5media13upload_avatar
FN:33,_RNvNtNtCskwAV7ptXVKm_14threadkit_http6routes5media6router
FN:422,_RNCNCNvNtNtCskwAV7ptXVKm_14threadkit_http6routes5media12delete_media00B9_
FN:454,_RNCNCNvNtNtCskwAV7ptXVKm_14threadkit_http6routes5media12delete_media0s0_0B9_
FN:442,_RNCNCNvNtNtCskwAV7ptXVKm_14threadkit_http6routes5media12delete_media0s_0B9_
FN:261,_RNCNCNvNtNtCskwAV7ptXVKm_14threadkit_http6routes5media12upload_image00B9_
FN:300,_RNCNCNvNtNtCskwAV7ptXVKm_14threadkit_http6routes5media12upload_image0s0_0B9_
FN:312,_RNCNCNvNtNtCskwAV7ptXVKm_14threadkit_http6routes5media12upload_image0s1_0B9_
FN:330,_RNCNCNvNtNtCskwAV7ptXVKm_14threadkit_http6routes5media12upload_image0s2_0B9_
FN:354,_RNCNCNvNtNtCskwAV7ptXVKm_14threadkit_http6routes5media12upload_image0s3_0B9_
FN:285,_RNCNCNvNtNtCskwAV7ptXVKm_14threadkit_http6routes5media12upload_image0s_0B9_
FN:76,_RNCNCNvNtNtCskwAV7ptXVKm_14threadkit_http6routes5media13upload_avatar00B9_
FN:115,_RNCNCNvNtNtCskwAV7ptXVKm_14threadkit_http6routes5media13upload_avatar0s0_0B9_
FN:130,_RNCNCNvNtNtCskwAV7ptXVKm_14threadkit_http6routes5media13upload_avatar0s1_0B9_
FN:149,_RNCNCNvNtNtCskwAV7ptXVKm_14threadkit_http6routes5media13upload_avatar0s2_0B9_
FN:174,_RNCNCNvNtNtCskwAV7ptXVKm_14threadkit_http6routes5media13upload_avatar0s3_0B9_
FN:192,_RNCNCNvNtNtCskwAV7ptXVKm_14threadkit_http6routes5media13upload_avatar0s4_0B9_
FN:205,_RNCNCNvNtNtCskwAV7ptXVKm_14threadkit_http6routes5media13upload_avatar0s5_0B9_
FN:98,_RNCNCNvNtNtCskwAV7ptXVKm_14threadkit_http6routes5media13upload_avatar0s_0B9_
FN:408,_RNCNvNtNtCskwAV7ptXVKm_14threadkit_http6routes5media12delete_media0B7_
FN:249,_RNCNvNtNtCskwAV7ptXVKm_14threadkit_http6routes5media12upload_image0B7_
FN:62,_RNCNvNtNtCskwAV7ptXVKm_14threadkit_http6routes5media13upload_avatar0B7_
FNDA:0,_RNvNtNtCsaszyX3GTrYE_14threadkit_http6routes5media12delete_media
FNDA:0,_RNvNtNtCsaszyX3GTrYE_14threadkit_http6routes5media12upload_image
FNDA:1,_RNvNtNtCsaszyX3GTrYE_14threadkit_http6routes5media13upload_avatar
FNDA:62,_RNvNtNtCsaszyX3GTrYE_14threadkit_http6routes5media6router
FNDA:0,_RNCNCNvNtNtCsaszyX3GTrYE_14threadkit_http6routes5media12delete_media00B9_
FNDA:0,_RNCNCNvNtNtCsaszyX3GTrYE_14threadkit_http6routes5media12delete_media0s0_0B9_
FNDA:0,_RNCNCNvNtNtCsaszyX3GTrYE_14threadkit_http6routes5media12delete_media0s_0B9_
FNDA:0,_RNCNCNvNtNtCsaszyX3GTrYE_14threadkit_http6routes5media12upload_image00B9_
FNDA:0,_RNCNCNvNtNtCsaszyX3GTrYE_14threadkit_http6routes5media12upload_image0s0_0B9_
FNDA:0,_RNCNCNvNtNtCsaszyX3GTrYE_14threadkit_http6routes5media12upload_image0s1_0B9_
FNDA:0,_RNCNCNvNtNtCsaszyX3GTrYE_14threadkit_http6routes5media12upload_image0s2_0B9_
FNDA:0,_RNCNCNvNtNtCsaszyX3GTrYE_14threadkit_http6routes5media12upload_image0s3_0B9_
FNDA:0,_RNCNCNvNtNtCsaszyX3GTrYE_14threadkit_http6routes5media12upload_image0s_0B9_
FNDA:0,_RNCNCNvNtNtCsaszyX3GTrYE_14threadkit_http6routes5media13upload_avatar00B9_
FNDA:0,_RNCNCNvNtNtCsaszyX3GTrYE_14threadkit_http6routes5media13upload_avatar0s0_0B9_
FNDA:0,_RNCNCNvNtNtCsaszyX3GTrYE_14threadkit_http6routes5media13upload_avatar0s1_0B9_
FNDA:0,_RNCNCNvNtNtCsaszyX3GTrYE_14threadkit_http6routes5media13upload_avatar0s2_0B9_
FNDA:0,_RNCNCNvNtNtCsaszyX3GTrYE_14threadkit_http6routes5media13upload_avatar0s3_0B9_
FNDA:0,_RNCNCNvNtNtCsaszyX3GTrYE_14threadkit_http6routes5media13upload_avatar0s4_0B9_
FNDA:0,_RNCNCNvNtNtCsaszyX3GTrYE_14threadkit_http6routes5media13upload_avatar0s5_0B9_
FNDA:0,_RNCNCNvNtNtCsaszyX3GTrYE_14threadkit_http6routes5media13upload_avatar0s_0B9_
FNDA:0,_RNCNvNtNtCsaszyX3GTrYE_14threadkit_http6routes5media12delete_media0B7_
FNDA:0,_RNCNvNtNtCsaszyX3GTrYE_14threadkit_http6routes5media12upload_image0B7_
FNDA:1,_RNCNvNtNtCsaszyX3GTrYE_14threadkit_http6routes5media13upload_avatar0B7_
FNDA:0,_RNvNtNtCskwAV7ptXVKm_14threadkit_http6routes5media12delete_media
FNDA:0,_RNvNtNtCskwAV7ptXVKm_14threadkit_http6routes5media12upload_image
FNDA:0,_RNvNtNtCskwAV7ptXVKm_14threadkit_http6routes5media13upload_avatar
FNDA:0,_RNvNtNtCskwAV7ptXVKm_14threadkit_http6routes5media6router
FNDA:0,_RNCNCNvNtNtCskwAV7ptXVKm_14threadkit_http6routes5media12delete_media00B9_
FNDA:0,_RNCNCNvNtNtCskwAV7ptXVKm_14threadkit_http6routes5media12delete_media0s0_0B9_
FNDA:0,_RNCNCNvNtNtCskwAV7ptXVKm_14threadkit_http6routes5media12delete_media0s_0B9_
FNDA:0,_RNCNCNvNtNtCskwAV7ptXVKm_14threadkit_http6routes5media12upload_image00B9_
FNDA:0,_RNCNCNvNtNtCskwAV7ptXVKm_14threadkit_http6routes5media12upload_image0s0_0B9_
FNDA:0,_RNCNCNvNtNtCskwAV7ptXVKm_14threadkit_http6routes5media12upload_image0s1_0B9_
FNDA:0,_RNCNCNvNtNtCskwAV7ptXVKm_14threadkit_http6routes5media12upload_image0s2_0B9_
FNDA:0,_RNCNCNvNtNtCskwAV7ptXVKm_14threadkit_http6routes5media12upload_image0s3_0B9_
FNDA:0,_RNCNCNvNtNtCskwAV7ptXVKm_14threadkit_http6routes5media12upload_image0s_0B9_
FNDA:0,_RNCNCNvNtNtCskwAV7ptXVKm_14threadkit_http6routes5media13upload_avatar00B9_
FNDA:0,_RNCNCNvNtNtCskwAV7ptXVKm_14threadkit_http6routes5media13upload_avatar0s0_0B9_
FNDA:0,_RNCNCNvNtNtCskwAV7ptXVKm_14threadkit_http6routes5media13upload_avatar0s1_0B9_
FNDA:0,_RNCNCNvNtNtCskwAV7ptXVKm_14threadkit_http6routes5media13upload_avatar0s2_0B9_
FNDA:0,_RNCNCNvNtNtCskwAV7ptXVKm_14threadkit_http6routes5media13upload_avatar0s3_0B9_
FNDA:0,_RNCNCNvNtNtCskwAV7ptXVKm_14threadkit_http6routes5media13upload_avatar0s4_0B9_
FNDA:0,_RNCNCNvNtNtCskwAV7ptXVKm_14threadkit_http6routes5media13upload_avatar0s5_0B9_
FNDA:0,_RNCNCNvNtNtCskwAV7ptXVKm_14threadkit_http6routes5media13upload_avatar0s_0B9_
FNDA:0,_RNCNvNtNtCskwAV7ptXVKm_14threadkit_http6routes5media12delete_media0B7_
FNDA:0,_RNCNvNtNtCskwAV7ptXVKm_14threadkit_http6routes5media12upload_image0B7_
FNDA:0,_RNCNvNtNtCskwAV7ptXVKm_14threadkit_http6routes5media13upload_avatar0B7_
FNF:24
FNH:3
DA:33,62
DA:34,62
DA:35,62
DA:36,62
DA:37,62
DA:38,62
DA:57,1
DA:58,1
DA:59,1
DA:60,1
DA:61,1
DA:62,1
DA:64,1
DA:65,1
DA:66,1
DA:67,1
DA:68,1
DA:69,1
DA:70,1
DA:73,0
DA:74,0
DA:75,0
DA:76,0
DA:77,0
DA:78,0
DA:79,0
DA:80,0
DA:81,0
DA:82,0
DA:84,0
DA:85,0
DA:86,0
DA:87,0
DA:90,0
DA:91,0
DA:92,0
DA:95,0
DA:96,0
DA:97,0
DA:98,0
DA:99,0
DA:100,0
DA:101,0
DA:102,0
DA:103,0
DA:106,0
DA:107,0
DA:108,0
DA:109,0
DA:110,0
DA:111,0
DA:114,0
DA:115,0
DA:117,0
DA:118,0
DA:125,0
DA:126,0
DA:130,0
DA:131,0
DA:132,0
DA:133,0
DA:134,0
DA:135,0
DA:137,0
DA:138,0
DA:139,0
DA:140,0
DA:145,0
DA:146,0
DA:147,0
DA:148,0
DA:149,0
DA:150,0
DA:151,0
DA:152,0
DA:153,0
DA:154,0
DA:155,0
DA:158,0
DA:159,0
DA:160,0
DA:161,0
DA:162,0
DA:163,0
DA:164,0
DA:165,0
DA:166,0
DA:167,0
DA:168,0
DA:170,0
DA:171,0
DA:172,0
DA:173,0
DA:174,0
DA:175,0
DA:176,0
DA:177,0
DA:178,0
DA:179,0
DA:181,0
DA:182,0
DA:183,0
DA:184,0
DA:185,0
DA:188,0
DA:189,0
DA:190,0
DA:191,0
DA:192,0
DA:193,0
DA:194,0
DA:195,0
DA:196,0
DA:197,0
DA:198,0
DA:200,0
DA:201,0
DA:202,0
DA:203,0
DA:204,0
DA:205,0
DA:206,0
DA:207,0
DA:208,0
DA:209,0
DA:210,0
DA:212,0
DA:213,0
DA:216,0
DA:219,0
DA:220,0
DA:221,0
DA:222,0
DA:223,0
DA:224,0
DA:225,1
DA:244,0
DA:245,0
DA:246,0
DA:247,0
DA:248,0
DA:249,0
DA:250,0
DA:251,0
DA:252,0
DA:253,0
DA:254,0
DA:255,0
DA:256,0
DA:258,0
DA:259,0
DA:260,0
DA:261,0
DA:262,0
DA:263,0
DA:264,0
DA:265,0
DA:266,0
DA:267,0
DA:269,0
DA:270,0
DA:271,0
DA:272,0
DA:275,0
DA:276,0
DA:277,0
DA:278,0
DA:279,0
DA:280,0
DA:282,0
DA:283,0
DA:284,0
DA:285,0
DA:286,0
DA:287,0
DA:288,0
DA:289,0
DA:290,0
DA:292,0
DA:293,0
DA:294,0
DA:295,0
DA:296,0
DA:297,0
DA:300,0
DA:301,0
DA:302,0
DA:303,0
DA:304,0
DA:305,0
DA:308,0
DA:309,0
DA:312,0
DA:313,0
DA:314,0
DA:315,0
DA:316,0
DA:317,0
DA:319,0
DA:320,0
DA:321,0
DA:322,0
DA:326,0
DA:327,0
DA:328,0
DA:329,0
DA:330,0
DA:331,0
DA:332,0
DA:333,0
DA:334,0
DA:335,0
DA:336,0
DA:338,0
DA:339,0
DA:340,0
DA:341,0
DA:342,0
DA:343,0
DA:344,0
DA:345,0
DA:346,0
DA:347,0
DA:348,0
DA:350,0
DA:351,0
DA:352,0
DA:353,0
DA:354,0
DA:355,0
DA:356,0
DA:357,0
DA:358,0
DA:359,0
DA:361,0
DA:362,0
DA:363,0
DA:364,0
DA:365,0
DA:367,0
DA:368,0
DA:371,0
DA:376,0
DA:377,0
DA:378,0
DA:379,0
DA:380,0
DA:381,0
DA:382,0
DA:403,0
DA:404,0
DA:405,0
DA:406,0
DA:407,0
DA:408,0
DA:409,0
DA:410,0
DA:411,0
DA:412,0
DA:413,0
DA:414,0
DA:415,0
DA:418,0
DA:419,0
DA:420,0
DA:421,0
DA:422,0
DA:423,0
DA:424,0
DA:425,0
DA:426,0
DA:427,0
DA:428,0
DA:431,0
DA:432,0
DA:434,0
DA:435,0
DA:436,0
DA:437,0
DA:438,0
DA:439,0
DA:442,0
DA:443,0
DA:444,0
DA:445,0
DA:446,0
DA:447,0
DA:450,0
DA:451,0
DA:452,0
DA:453,0
DA:454,0
DA:455,0
DA:456,0
DA:457,0
DA:458,0
DA:459,0
DA:461,0
DA:462,0
DA:463,0
DA:464,0
DA:465,0
DA:467,0
DA:468,0
DA:473,0
DA:474,0
BRF:0
BRH:0
LF:342
LH:21
end_of_record
SF:/Users/jt/code/threadkit/server/crates/http/src/routes/mod.rs
FN:14,_RNvNtCsaszyX3GTrYE_14threadkit_http6routes6router
FN:14,_RNvNtCskwAV7ptXVKm_14threadkit_http6routes6router
FNDA:62,_RNvNtCsaszyX3GTrYE_14threadkit_http6routes6router
FNDA:0,_RNvNtCskwAV7ptXVKm_14threadkit_http6routes6router
FNF:1
FNH:1
DA:14,62
DA:15,62
DA:16,62
DA:17,62
DA:18,62
DA:19,62
DA:20,62
DA:21,62
DA:22,62
DA:23,62
BRF:0
BRH:0
LF:10
LH:10
end_of_record
SF:/Users/jt/code/threadkit/server/crates/http/src/routes/moderation.rs
FN:208,_RNCNCNCNvNtNtCsaszyX3GTrYE_14threadkit_http6routes10moderation11get_reports0s0_00Bb_
FN:473,_RNCNCNvNtNtCsaszyX3GTrYE_14threadkit_http6routes10moderation10unban_user00B9_
FN:191,_RNCNCNvNtNtCsaszyX3GTrYE_14threadkit_http6routes10moderation11get_reports00B9_
FN:204,_RNCNCNvNtNtCsaszyX3GTrYE_14threadkit_http6routes10moderation11get_reports0s0_0B9_
FN:196,_RNCNCNvNtNtCsaszyX3GTrYE_14threadkit_http6routes10moderation11get_reports0s_0B9_
FN:337,_RNCNCNvNtNtCsaszyX3GTrYE_14threadkit_http6routes10moderation14reject_comment00B9_
FN:352,_RNCNCNvNtNtCsaszyX3GTrYE_14threadkit_http6routes10moderation14reject_comment0s_0B9_
FN:511,_RNCNCNvNtNtCsaszyX3GTrYE_14threadkit_http6routes10moderation14shadowban_user00B9_
FN:521,_RNCNCNvNtNtCsaszyX3GTrYE_14threadkit_http6routes10moderation14shadowban_user0s_0B9_
FN:262,_RNCNCNvNtNtCsaszyX3GTrYE_14threadkit_http6routes10moderation15approve_comment00B9_
FN:278,_RNCNCNvNtNtCsaszyX3GTrYE_14threadkit_http6routes10moderation15approve_comment0s_0B9_
FN:399,_RNCNCNvNtNtCsaszyX3GTrYE_14threadkit_http6routes10moderation8ban_user00B9_
FN:410,_RNCNCNvNtNtCsaszyX3GTrYE_14threadkit_http6routes10moderation8ban_user0s_0B9_
FN:131,_RNCNCNvNtNtCsaszyX3GTrYE_14threadkit_http6routes10moderation9get_queue00B9_
FN:144,_RNCNCNvNtNtCsaszyX3GTrYE_14threadkit_http6routes10moderation9get_queue0s0_0B9_
FN:136,_RNCNCNvNtNtCsaszyX3GTrYE_14threadkit_http6routes10moderation9get_queue0s_0B9_
FN:466,_RNCNvNtNtCsaszyX3GTrYE_14threadkit_http6routes10moderation10unban_user0B7_
FN:180,_RNCNvNtNtCsaszyX3GTrYE_14threadkit_http6routes10moderation11get_reports0B7_
FN:324,_RNCNvNtNtCsaszyX3GTrYE_14threadkit_http6routes10moderation14reject_comment0B7_
FN:498,_RNCNvNtNtCsaszyX3GTrYE_14threadkit_http6routes10moderation14shadowban_user0B7_
FN:249,_RNCNvNtNtCsaszyX3GTrYE_14threadkit_http6routes10moderation15approve_comment0B7_
FN:386,_RNCNvNtNtCsaszyX3GTrYE_14threadkit_http6routes10moderation8ban_user0B7_
FN:120,_RNCNvNtNtCsaszyX3GTrYE_14threadkit_http6routes10moderation9get_queue0B7_
FN:461,_RNvNtNtCsaszyX3GTrYE_14threadkit_http6routes10moderation10unban_user
FN:175,_RNvNtNtCsaszyX3GTrYE_14threadkit_http6routes10moderation11get_reports
FN:318,_RNvNtNtCsaszyX3GTrYE_14threadkit_http6routes10moderation14reject_comment
FN:493,_RNvNtNtCsaszyX3GTrYE_14threadkit_http6routes10moderation14shadowban_user
FN:243,_RNvNtNtCsaszyX3GTrYE_14threadkit_http6routes10moderation15approve_comment
FN:531,_RNvNtNtCsaszyX3GTrYE_14threadkit_http6routes10moderation20find_comment_in_tree
FN:544,_RNvNtNtCsaszyX3GTrYE_14threadkit_http6routes10moderation29mark_comment_deleted_by_admin
FN:18,_RNvNtNtCsaszyX3GTrYE_14threadkit_http6routes10moderation6router
FN:380,_RNvNtNtCsaszyX3GTrYE_14threadkit_http6routes10moderation8ban_user
FN:115,_RNvNtNtCsaszyX3GTrYE_14threadkit_http6routes10moderation9get_queue
FN:461,_RNvNtNtCskwAV7ptXVKm_14threadkit_http6routes10moderation10unban_user
FN:175,_RNvNtNtCskwAV7ptXVKm_14threadkit_http6routes10moderation11get_reports
FN:318,_RNvNtNtCskwAV7ptXVKm_14threadkit_http6routes10moderation14reject_comment
FN:493,_RNvNtNtCskwAV7ptXVKm_14threadkit_http6routes10moderation14shadowban_user
FN:243,_RNvNtNtCskwAV7ptXVKm_14threadkit_http6routes10moderation15approve_comment
FN:18,_RNvNtNtCskwAV7ptXVKm_14threadkit_http6routes10moderation6router
FN:380,_RNvNtNtCskwAV7ptXVKm_14threadkit_http6routes10moderation8ban_user
FN:115,_RNvNtNtCskwAV7ptXVKm_14threadkit_http6routes10moderation9get_queue
FN:531,_RNvNtNtCskwAV7ptXVKm_14threadkit_http6routes10moderation20find_comment_in_tree
FN:544,_RNvNtNtCskwAV7ptXVKm_14threadkit_http6routes10moderation29mark_comment_deleted_by_admin
FN:208,_RNCNCNCNvNtNtCskwAV7ptXVKm_14threadkit_http6routes10moderation11get_reports0s0_00Bb_
FN:473,_RNCNCNvNtNtCskwAV7ptXVKm_14threadkit_http6routes10moderation10unban_user00B9_
FN:191,_RNCNCNvNtNtCskwAV7ptXVKm_14threadkit_http6routes10moderation11get_reports00B9_
FN:204,_RNCNCNvNtNtCskwAV7ptXVKm_14threadkit_http6routes10moderation11get_reports0s0_0B9_
FN:196,_RNCNCNvNtNtCskwAV7ptXVKm_14threadkit_http6routes10moderation11get_reports0s_0B9_
FN:337,_RNCNCNvNtNtCskwAV7ptXVKm_14threadkit_http6routes10moderation14reject_comment00B9_
FN:352,_RNCNCNvNtNtCskwAV7ptXVKm_14threadkit_http6routes10moderation14reject_comment0s_0B9_
FN:511,_RNCNCNvNtNtCskwAV7ptXVKm_14threadkit_http6routes10moderation14shadowban_user00B9_
FN:521,_RNCNCNvNtNtCskwAV7ptXVKm_14threadkit_http6routes10moderation14shadowban_user0s_0B9_
FN:262,_RNCNCNvNtNtCskwAV7ptXVKm_14threadkit_http6routes10moderation15approve_comment00B9_
FN:278,_RNCNCNvNtNtCskwAV7ptXVKm_14threadkit_http6routes10moderation15approve_comment0s_0B9_
FN:399,_RNCNCNvNtNtCskwAV7ptXVKm_14threadkit_http6routes10moderation8ban_user00B9_
FN:410,_RNCNCNvNtNtCskwAV7ptXVKm_14threadkit_http6routes10moderation8ban_user0s_0B9_
FN:131,_RNCNCNvNtNtCskwAV7ptXVKm_14threadkit_http6routes10moderation9get_queue00B9_
FN:144,_RNCNCNvNtNtCskwAV7ptXVKm_14threadkit_http6routes10moderation9get_queue0s0_0B9_
FN:136,_RNCNCNvNtNtCskwAV7ptXVKm_14threadkit_http6routes10moderation9get_queue0s_0B9_
FN:466,_RNCNvNtNtCskwAV7ptXVKm_14threadkit_http6routes10moderation10unban_user0B7_
FN:180,_RNCNvNtNtCskwAV7ptXVKm_14threadkit_http6routes10moderation11get_reports0B7_
FN:324,_RNCNvNtNtCskwAV7ptXVKm_14threadkit_http6routes10moderation14reject_comment0B7_
FN:498,_RNCNvNtNtCskwAV7ptXVKm_14threadkit_http6routes10moderation14shadowban_user0B7_
FN:249,_RNCNvNtNtCskwAV7ptXVKm_14threadkit_http6routes10moderation15approve_comment0B7_
FN:386,_RNCNvNtNtCskwAV7ptXVKm_14threadkit_http6routes10moderation8ban_user0B7_
FN:120,_RNCNvNtNtCskwAV7ptXVKm_14threadkit_http6routes10moderation9get_queue0B7_
FNDA:1,_RNCNCNCNvNtNtCsaszyX3GTrYE_14threadkit_http6routes10moderation11get_reports0s0_00Bb_
FNDA:0,_RNCNCNvNtNtCsaszyX3GTrYE_14threadkit_http6routes10moderation10unban_user00B9_
FNDA:0,_RNCNCNvNtNtCsaszyX3GTrYE_14threadkit_http6routes10moderation11get_reports00B9_
FNDA:1,_RNCNCNvNtNtCsaszyX3GTrYE_14threadkit_http6routes10moderation11get_reports0s0_0B9_
FNDA:1,_RNCNCNvNtNtCsaszyX3GTrYE_14threadkit_http6routes10moderation11get_reports0s_0B9_
FNDA:0,_RNCNCNvNtNtCsaszyX3GTrYE_14threadkit_http6routes10moderation14reject_comment00B9_
FNDA:0,_RNCNCNvNtNtCsaszyX3GTrYE_14threadkit_http6routes10moderation14reject_comment0s_0B9_
FNDA:0,_RNCNCNvNtNtCsaszyX3GTrYE_14threadkit_http6routes10moderation14shadowban_user00B9_
FNDA:0,_RNCNCNvNtNtCsaszyX3GTrYE_14threadkit_http6routes10moderation14shadowban_user0s_0B9_
FNDA:0,_RNCNCNvNtNtCsaszyX3GTrYE_14threadkit_http6routes10moderation15approve_comment00B9_
FNDA:0,_RNCNCNvNtNtCsaszyX3GTrYE_14threadkit_http6routes10moderation15approve_comment0s_0B9_
FNDA:0,_RNCNCNvNtNtCsaszyX3GTrYE_14threadkit_http6routes10moderation8ban_user00B9_
FNDA:0,_RNCNCNvNtNtCsaszyX3GTrYE_14threadkit_http6routes10moderation8ban_user0s_0B9_
FNDA:0,_RNCNCNvNtNtCsaszyX3GTrYE_14threadkit_http6routes10moderation9get_queue00B9_
FNDA:1,_RNCNCNvNtNtCsaszyX3GTrYE_14threadkit_http6routes10moderation9get_queue0s0_0B9_
FNDA:1,_RNCNCNvNtNtCsaszyX3GTrYE_14threadkit_http6routes10moderation9get_queue0s_0B9_
FNDA:0,_RNCNvNtNtCsaszyX3GTrYE_14threadkit_http6routes10moderation10unban_user0B7_
FNDA:1,_RNCNvNtNtCsaszyX3GTrYE_14threadkit_http6routes10moderation11get_reports0B7_
FNDA:1,_RNCNvNtNtCsaszyX3GTrYE_14threadkit_http6routes10moderation14reject_comment0B7_
FNDA:1,_RNCNvNtNtCsaszyX3GTrYE_14threadkit_http6routes10moderation14shadowban_user0B7_
FNDA:2,_RNCNvNtNtCsaszyX3GTrYE_14threadkit_http6routes10moderation15approve_comment0B7_
FNDA:1,_RNCNvNtNtCsaszyX3GTrYE_14threadkit_http6routes10moderation8ban_user0B7_
FNDA:1,_RNCNvNtNtCsaszyX3GTrYE_14threadkit_http6routes10moderation9get_queue0B7_
FNDA:0,_RNvNtNtCsaszyX3GTrYE_14threadkit_http6routes10moderation10unban_user
FNDA:1,_RNvNtNtCsaszyX3GTrYE_14threadkit_http6routes10moderation11get_reports
FNDA:1,_RNvNtNtCsaszyX3GTrYE_14threadkit_http6routes10moderation14reject_comment
FNDA:1,_RNvNtNtCsaszyX3GTrYE_14threadkit_http6routes10moderation14shadowban_user
FNDA:2,_RNvNtNtCsaszyX3GTrYE_14threadkit_http6routes10moderation15approve_comment
FNDA:2,_RNvNtNtCsaszyX3GTrYE_14threadkit_http6routes10moderation20find_comment_in_tree
FNDA:0,_RNvNtNtCsaszyX3GTrYE_14threadkit_http6routes10moderation29mark_comment_deleted_by_admin
FNDA:62,_RNvNtNtCsaszyX3GTrYE_14threadkit_http6routes10moderation6router
FNDA:1,_RNvNtNtCsaszyX3GTrYE_14threadkit_http6routes10moderation8ban_user
FNDA:1,_RNvNtNtCsaszyX3GTrYE_14threadkit_http6routes10moderation9get_queue
FNDA:0,_RNvNtNtCskwAV7ptXVKm_14threadkit_http6routes10moderation10unban_user
FNDA:0,_RNvNtNtCskwAV7ptXVKm_14threadkit_http6routes10moderation11get_reports
FNDA:0,_RNvNtNtCskwAV7ptXVKm_14threadkit_http6routes10moderation14reject_comment
FNDA:0,_RNvNtNtCskwAV7ptXVKm_14threadkit_http6routes10moderation14shadowban_user
FNDA:0,_RNvNtNtCskwAV7ptXVKm_14threadkit_http6routes10moderation15approve_comment
FNDA:0,_RNvNtNtCskwAV7ptXVKm_14threadkit_http6routes10moderation6router
FNDA:0,_RNvNtNtCskwAV7ptXVKm_14threadkit_http6routes10moderation8ban_user
FNDA:0,_RNvNtNtCskwAV7ptXVKm_14threadkit_http6routes10moderation9get_queue
FNDA:0,_RNvNtNtCskwAV7ptXVKm_14threadkit_http6routes10moderation20find_comment_in_tree
FNDA:0,_RNvNtNtCskwAV7ptXVKm_14threadkit_http6routes10moderation29mark_comment_deleted_by_admin
FNDA:0,_RNCNCNCNvNtNtCskwAV7ptXVKm_14threadkit_http6routes10moderation11get_reports0s0_00Bb_
FNDA:0,_RNCNCNvNtNtCskwAV7ptXVKm_14threadkit_http6routes10moderation10unban_user00B9_
FNDA:0,_RNCNCNvNtNtCskwAV7ptXVKm_14threadkit_http6routes10moderation11get_reports00B9_
FNDA:0,_RNCNCNvNtNtCskwAV7ptXVKm_14threadkit_http6routes10moderation11get_reports0s0_0B9_
FNDA:0,_RNCNCNvNtNtCskwAV7ptXVKm_14threadkit_http6routes10moderation11get_reports0s_0B9_
FNDA:0,_RNCNCNvNtNtCskwAV7ptXVKm_14threadkit_http6routes10moderation14reject_comment00B9_
FNDA:0,_RNCNCNvNtNtCskwAV7ptXVKm_14threadkit_http6routes10moderation14reject_comment0s_0B9_
FNDA:0,_RNCNCNvNtNtCskwAV7ptXVKm_14threadkit_http6routes10moderation14shadowban_user00B9_
FNDA:0,_RNCNCNvNtNtCskwAV7ptXVKm_14threadkit_http6routes10moderation14shadowban_user0s_0B9_
FNDA:0,_RNCNCNvNtNtCskwAV7ptXVKm_14threadkit_http6routes10moderation15approve_comment00B9_
FNDA:0,_RNCNCNvNtNtCskwAV7ptXVKm_14threadkit_http6routes10moderation15approve_comment0s_0B9_
FNDA:0,_RNCNCNvNtNtCskwAV7ptXVKm_14threadkit_http6routes10moderation8ban_user00B9_
FNDA:0,_RNCNCNvNtNtCskwAV7ptXVKm_14threadkit_http6routes10moderation8ban_user0s_0B9_
FNDA:0,_RNCNCNvNtNtCskwAV7ptXVKm_14threadkit_http6routes10moderation9get_queue00B9_
FNDA:0,_RNCNCNvNtNtCskwAV7ptXVKm_14threadkit_http6routes10moderation9get_queue0s0_0B9_
FNDA:0,_RNCNCNvNtNtCskwAV7ptXVKm_14threadkit_http6routes10moderation9get_queue0s_0B9_
FNDA:0,_RNCNvNtNtCskwAV7ptXVKm_14threadkit_http6routes10moderation10unban_user0B7_
FNDA:0,_RNCNvNtNtCskwAV7ptXVKm_14threadkit_http6routes10moderation11get_reports0B7_
FNDA:0,_RNCNvNtNtCskwAV7ptXVKm_14threadkit_http6routes10moderation14reject_comment0B7_
FNDA:0,_RNCNvNtNtCskwAV7ptXVKm_14threadkit_http6routes10moderation14shadowban_user0B7_
FNDA:0,_RNCNvNtNtCskwAV7ptXVKm_14threadkit_http6routes10moderation15approve_comment0B7_
FNDA:0,_RNCNvNtNtCskwAV7ptXVKm_14threadkit_http6routes10moderation8ban_user0B7_
FNDA:0,_RNCNvNtNtCskwAV7ptXVKm_14threadkit_http6routes10moderation9get_queue0B7_
FNF:33
FNH:19
DA:18,62
DA:19,62
DA:20,62
DA:21,62
DA:22,62
DA:23,62
DA:24,62
DA:25,62
DA:26,62
DA:27,62
DA:115,1
DA:116,1
DA:117,1
DA:118,1
DA:119,1
DA:120,1
DA:121,1
DA:123,1
DA:124,1
DA:127,1
DA:128,1
DA:129,1
DA:130,1
DA:131,1
DA:134,1
DA:135,1
DA:136,1
DA:137,1
DA:139,1
DA:141,1
DA:142,1
DA:143,1
DA:144,1
DA:145,1
DA:146,1
DA:147,1
DA:148,1
DA:149,1
DA:150,1
DA:151,0
DA:152,0
DA:153,0
DA:154,1
DA:155,1
DA:157,1
DA:158,1
DA:159,1
DA:160,1
DA:161,1
DA:175,1
DA:176,1
DA:177,1
DA:178,1
DA:179,1
DA:180,1
DA:181,1
DA:183,1
DA:184,1
DA:187,1
DA:188,1
DA:189,1
DA:190,1
DA:191,1
DA:194,1
DA:195,1
DA:196,1
DA:197,1
DA:199,1
DA:201,1
DA:202,1
DA:203,1
DA:204,1
DA:205,1
DA:206,1
DA:207,1
DA:208,1
DA:212,1
DA:213,1
DA:214,1
DA:215,1
DA:216,1
DA:217,1
DA:218,1
DA:219,1
DA:221,1
DA:222,1
DA:223,1
DA:224,1
DA:225,1
DA:243,2
DA:244,2
DA:245,2
DA:246,2
DA:247,2
DA:248,2
DA:249,2
DA:250,2
DA:253,1
DA:254,0
DA:255,1
DA:258,1
DA:259,1
DA:260,1
DA:261,1
DA:262,1
DA:263,1
DA:266,1
DA:267,1
DA:268,1
DA:271,1
DA:274,1
DA:275,1
DA:276,1
DA:277,1
DA:278,1
DA:281,1
DA:282,1
DA:283,1
DA:284,1
DA:287,1
DA:288,1
DA:289,1
DA:290,1
DA:291,1
DA:292,1
DA:293,1
DA:294,1
DA:295,1
DA:296,1
DA:297,1
DA:299,1
DA:300,2
DA:318,1
DA:319,1
DA:320,1
DA:321,1
DA:322,1
DA:323,1
DA:324,1
DA:325,1
DA:328,1
DA:329,0
DA:330,1
DA:333,1
DA:334,1
DA:335,1
DA:336,1
DA:337,1
DA:338,1
DA:341,1
DA:342,1
DA:343,1
DA:345,1
DA:348,1
DA:349,1
DA:350,1
DA:351,1
DA:352,1
DA:355,1
DA:356,1
DA:357,1
DA:358,1
DA:360,1
DA:361,1
DA:380,1
DA:381,1
DA:382,1
DA:383,1
DA:384,1
DA:385,1
DA:386,1
DA:387,1
DA:390,1
DA:391,0
DA:392,1
DA:395,1
DA:396,1
DA:397,1
DA:398,1
DA:399,1
DA:401,1
DA:402,0
DA:403,1
DA:406,1
DA:407,1
DA:408,1
DA:409,1
DA:410,1
DA:413,1
DA:414,1
DA:416,0
DA:417,0
DA:418,0
DA:419,0
DA:420,0
DA:423,0
DA:424,0
DA:425,0
DA:426,0
DA:429,0
DA:430,0
DA:431,0
DA:432,0
DA:433,0
DA:434,0
DA:435,0
DA:436,0
DA:438,0
DA:439,0
DA:440,0
DA:441,0
DA:443,1
DA:445,1
DA:446,1
DA:461,0
DA:462,0
DA:463,0
DA:464,0
DA:465,0
DA:466,0
DA:467,0
DA:469,0
DA:470,0
DA:471,0
DA:472,0
DA:473,0
DA:475,0
DA:476,0
DA:493,1
DA:494,1
DA:495,1
DA:496,1
DA:497,1
DA:498,1
DA:499,1
DA:502,1
DA:503,0
DA:504,1
DA:507,1
DA:508,1
DA:509,1
DA:510,1
DA:511,1
DA:513,1
DA:514,0
DA:515,1
DA:517,1
DA:518,1
DA:519,1
DA:520,1
DA:521,1
DA:523,1
DA:524,1
DA:531,2
DA:532,2
DA:533,2
DA:534,2
DA:535,0
DA:536,0
DA:537,0
DA:538,0
DA:540,0
DA:541,2
DA:544,0
DA:545,0
DA:546,0
DA:547,0
DA:548,0
DA:549,0
DA:550,0
DA:551,0
DA:552,0
DA:553,0
DA:554,0
DA:555,0
DA:556,0
DA:557,0
DA:558,0
DA:560,0
DA:561,0
BRF:0
BRH:0
LF:303
LH:225
end_of_record
SF:/Users/jt/code/threadkit/server/crates/http/src/routes/turnstile.rs
FN:69,_RNvNtNtCsaszyX3GTrYE_14threadkit_http6routes9turnstile10get_config
FN:268,_RNvNtNtCsaszyX3GTrYE_14threadkit_http6routes9turnstile12verify_token
FN:95,_RNvNtNtCsaszyX3GTrYE_14threadkit_http6routes9turnstile14challenge_page
FN:292,_RNvNtNtCsaszyX3GTrYE_14threadkit_http6routes9turnstile22verify_with_cloudflare
FN:13,_RNvNtNtCsaszyX3GTrYE_14threadkit_http6routes9turnstile6router
FN:321,_RNCNCNCNvNtNtCsaszyX3GTrYE_14threadkit_http6routes9turnstile22verify_with_cloudflare0s0_00Bb_
FN:280,_RNCNCNvNtNtCsaszyX3GTrYE_14threadkit_http6routes9turnstile12verify_token00B9_
FN:282,_RNCNCNvNtNtCsaszyX3GTrYE_14threadkit_http6routes9turnstile12verify_token0s0_0B9_
FN:286,_RNCNCNvNtNtCsaszyX3GTrYE_14threadkit_http6routes9turnstile12verify_token0s1_0B9_
FN:281,_RNCNCNvNtNtCsaszyX3GTrYE_14threadkit_http6routes9turnstile12verify_token0s_0B9_
FN:313,_RNCNCNvNtNtCsaszyX3GTrYE_14threadkit_http6routes9turnstile22verify_with_cloudflare00B9_
FN:321,_RNCNCNvNtNtCsaszyX3GTrYE_14threadkit_http6routes9turnstile22verify_with_cloudflare0s0_0B9_
FN:316,_RNCNCNvNtNtCsaszyX3GTrYE_14threadkit_http6routes9turnstile22verify_with_cloudflare0s_0B9_
FN:72,_RNCNvNtNtCsaszyX3GTrYE_14threadkit_http6routes9turnstile10get_config0B7_
FN:273,_RNCNvNtNtCsaszyX3GTrYE_14threadkit_http6routes9turnstile12verify_token0B7_
FN:98,_RNCNvNtNtCsaszyX3GTrYE_14threadkit_http6routes9turnstile14challenge_page0B7_
FN:296,_RNCNvNtNtCsaszyX3GTrYE_14threadkit_http6routes9turnstile22verify_with_cloudflare0B7_
FN:69,_RNvNtNtCskwAV7ptXVKm_14threadkit_http6routes9turnstile10get_config
FN:268,_RNvNtNtCskwAV7ptXVKm_14threadkit_http6routes9turnstile12verify_token
FN:95,_RNvNtNtCskwAV7ptXVKm_14threadkit_http6routes9turnstile14challenge_page
FN:13,_RNvNtNtCskwAV7ptXVKm_14threadkit_http6routes9turnstile6router
FN:321,_RNCNCNCNvNtNtCskwAV7ptXVKm_14threadkit_http6routes9turnstile22verify_with_cloudflare0s0_00Bb_
FN:280,_RNCNCNvNtNtCskwAV7ptXVKm_14threadkit_http6routes9turnstile12verify_token00B9_
FN:282,_RNCNCNvNtNtCskwAV7ptXVKm_14threadkit_http6routes9turnstile12verify_token0s0_0B9_
FN:286,_RNCNCNvNtNtCskwAV7ptXVKm_14threadkit_http6routes9turnstile12verify_token0s1_0B9_
FN:281,_RNCNCNvNtNtCskwAV7ptXVKm_14threadkit_http6routes9turnstile12verify_token0s_0B9_
FN:313,_RNCNCNvNtNtCskwAV7ptXVKm_14threadkit_http6routes9turnstile22verify_with_cloudflare00B9_
FN:321,_RNCNCNvNtNtCskwAV7ptXVKm_14threadkit_http6routes9turnstile22verify_with_cloudflare0s0_0B9_
FN:316,_RNCNCNvNtNtCskwAV7ptXVKm_14threadkit_http6routes9turnstile22verify_with_cloudflare0s_0B9_
FN:72,_RNCNvNtNtCskwAV7ptXVKm_14threadkit_http6routes9turnstile10get_config0B7_
FN:273,_RNCNvNtNtCskwAV7ptXVKm_14threadkit_http6routes9turnstile12verify_token0B7_
FN:98,_RNCNvNtNtCskwAV7ptXVKm_14threadkit_http6routes9turnstile14challenge_page0B7_
FN:296,_RNCNvNtNtCskwAV7ptXVKm_14threadkit_http6routes9turnstile22verify_with_cloudflare0B7_
FN:292,_RNvNtNtCskwAV7ptXVKm_14threadkit_http6routes9turnstile22verify_with_cloudflare
FNDA:1,_RNvNtNtCsaszyX3GTrYE_14threadkit_http6routes9turnstile10get_config
FNDA:1,_RNvNtNtCsaszyX3GTrYE_14threadkit_http6routes9turnstile12verify_token
FNDA:2,_RNvNtNtCsaszyX3GTrYE_14threadkit_http6routes9turnstile14challenge_page
FNDA:0,_RNvNtNtCsaszyX3GTrYE_14threadkit_http6routes9turnstile22verify_with_cloudflare
FNDA:62,_RNvNtNtCsaszyX3GTrYE_14threadkit_http6routes9turnstile6router
FNDA:0,_RNCNCNCNvNtNtCsaszyX3GTrYE_14threadkit_http6routes9turnstile22verify_with_cloudflare0s0_00Bb_
FNDA:0,_RNCNCNvNtNtCsaszyX3GTrYE_14threadkit_http6routes9turnstile12verify_token00B9_
FNDA:0,_RNCNCNvNtNtCsaszyX3GTrYE_14threadkit_http6routes9turnstile12verify_token0s0_0B9_
FNDA:0,_RNCNCNvNtNtCsaszyX3GTrYE_14threadkit_http6routes9turnstile12verify_token0s1_0B9_
FNDA:0,_RNCNCNvNtNtCsaszyX3GTrYE_14threadkit_http6routes9turnstile12verify_token0s_0B9_
FNDA:0,_RNCNCNvNtNtCsaszyX3GTrYE_14threadkit_http6routes9turnstile22verify_with_cloudflare00B9_
FNDA:0,_RNCNCNvNtNtCsaszyX3GTrYE_14threadkit_http6routes9turnstile22verify_with_cloudflare0s0_0B9_
FNDA:0,_RNCNCNvNtNtCsaszyX3GTrYE_14threadkit_http6routes9turnstile22verify_with_cloudflare0s_0B9_
FNDA:1,_RNCNvNtNtCsaszyX3GTrYE_14threadkit_http6routes9turnstile10get_config0B7_
FNDA:1,_RNCNvNtNtCsaszyX3GTrYE_14threadkit_http6routes9turnstile12verify_token0B7_
FNDA:2,_RNCNvNtNtCsaszyX3GTrYE_14threadkit_http6routes9turnstile14challenge_page0B7_
FNDA:0,_RNCNvNtNtCsaszyX3GTrYE_14threadkit_http6routes9turnstile22verify_with_cloudflare0B7_
FNDA:0,_RNvNtNtCskwAV7ptXVKm_14threadkit_http6routes9turnstile10get_config
FNDA:0,_RNvNtNtCskwAV7ptXVKm_14threadkit_http6routes9turnstile12verify_token
FNDA:0,_RNvNtNtCskwAV7ptXVKm_14threadkit_http6routes9turnstile14challenge_page
FNDA:0,_RNvNtNtCskwAV7ptXVKm_14threadkit_http6routes9turnstile6router
FNDA:0,_RNCNCNCNvNtNtCskwAV7ptXVKm_14threadkit_http6routes9turnstile22verify_with_cloudflare0s0_00Bb_
FNDA:0,_RNCNCNvNtNtCskwAV7ptXVKm_14threadkit_http6routes9turnstile12verify_token00B9_
FNDA:0,_RNCNCNvNtNtCskwAV7ptXVKm_14threadkit_http6routes9turnstile12verify_token0s0_0B9_
FNDA:0,_RNCNCNvNtNtCskwAV7ptXVKm_14threadkit_http6routes9turnstile12verify_token0s1_0B9_
FNDA:0,_RNCNCNvNtNtCskwAV7ptXVKm_14threadkit_http6routes9turnstile12verify_token0s_0B9_
FNDA:0,_RNCNCNvNtNtCskwAV7ptXVKm_14threadkit_http6routes9turnstile22verify_with_cloudflare00B9_
FNDA:0,_RNCNCNvNtNtCskwAV7ptXVKm_14threadkit_http6routes9turnstile22verify_with_cloudflare0s0_0B9_
FNDA:0,_RNCNCNvNtNtCskwAV7ptXVKm_14threadkit_http6routes9turnstile22verify_with_cloudflare0s_0B9_
FNDA:0,_RNCNvNtNtCskwAV7ptXVKm_14threadkit_http6routes9turnstile10get_config0B7_
FNDA:0,_RNCNvNtNtCskwAV7ptXVKm_14threadkit_http6routes9turnstile12verify_token0B7_
FNDA:0,_RNCNvNtNtCskwAV7ptXVKm_14threadkit_http6routes9turnstile14challenge_page0B7_
FNDA:0,_RNCNvNtNtCskwAV7ptXVKm_14threadkit_http6routes9turnstile22verify_with_cloudflare0B7_
FNDA:0,_RNvNtNtCskwAV7ptXVKm_14threadkit_http6routes9turnstile22verify_with_cloudflare
FNF:17
FNH:7
DA:13,62
DA:14,62
DA:15,62
DA:16,62
DA:17,62
DA:18,62
DA:69,1
DA:70,1
DA:71,1
DA:72,1
DA:73,1
DA:75,1
DA:76,1
DA:77,1
DA:78,1
DA:79,1
DA:80,1
DA:95,2
DA:96,2
DA:97,2
DA:98,2
DA:99,2
DA:100,1
DA:101,1
DA:102,1
DA:103,1
DA:104,1
DA:108,1
DA:109,1
DA:110,1
DA:111,1
DA:112,1
DA:113,1
DA:114,1
DA:115,1
DA:116,1
DA:117,1
DA:118,1
DA:119,1
DA:120,1
DA:121,1
DA:122,1
DA:123,1
DA:124,1
DA:125,1
DA:126,1
DA:127,1
DA:128,1
DA:129,1
DA:130,1
DA:131,1
DA:132,1
DA:133,1
DA:134,1
DA:135,1
DA:136,1
DA:137,1
DA:138,1
DA:139,1
DA:140,1
DA:141,1
DA:142,1
DA:143,1
DA:144,1
DA:145,1
DA:146,1
DA:147,1
DA:148,1
DA:149,1
DA:150,1
DA:151,1
DA:152,1
DA:153,1
DA:154,1
DA:155,1
DA:156,1
DA:157,1
DA:158,1
DA:159,1
DA:160,1
DA:161,1
DA:162,1
DA:163,1
DA:164,1
DA:165,1
DA:166,1
DA:167,1
DA:168,1
DA:169,1
DA:170,1
DA:171,1
DA:172,1
DA:173,1
DA:174,1
DA:175,1
DA:176,1
DA:177,1
DA:178,1
DA:179,1
DA:180,1
DA:181,1
DA:182,1
DA:183,1
DA:184,1
DA:185,1
DA:186,1
DA:187,1
DA:188,1
DA:189,1
DA:190,1
DA:191,1
DA:192,1
DA:193,1
DA:194,1
DA:195,1
DA:196,1
DA:197,1
DA:198,1
DA:199,1
DA:200,1
DA:201,1
DA:202,1
DA:203,1
DA:204,1
DA:205,1
DA:206,1
DA:207,1
DA:208,1
DA:209,1
DA:210,1
DA:211,1
DA:212,1
DA:213,1
DA:214,1
DA:215,1
DA:216,1
DA:217,1
DA:218,1
DA:219,1
DA:220,1
DA:221,1
DA:222,1
DA:223,1
DA:224,1
DA:225,1
DA:226,1
DA:227,1
DA:228,1
DA:229,1
DA:230,1
DA:231,1
DA:232,1
DA:233,1
DA:234,1
DA:235,1
DA:236,1
DA:237,1
DA:238,1
DA:239,1
DA:240,1
DA:241,1
DA:244,1
DA:245,1
DA:246,1
DA:247,1
DA:248,1
DA:249,1
DA:250,1
DA:251,2
DA:268,1
DA:269,1
DA:270,1
DA:271,1
DA:272,1
DA:273,1
DA:274,1
DA:275,1
DA:278,0
DA:279,0
DA:280,0
DA:281,0
DA:282,0
DA:285,0
DA:286,0
DA:288,0
DA:289,1
DA:292,0
DA:293,0
DA:294,0
DA:295,0
DA:296,0
DA:297,0
DA:299,0
DA:300,0
DA:301,0
DA:304,0
DA:305,0
DA:306,0
DA:308,0
DA:309,0
DA:310,0
DA:311,0
DA:312,0
DA:313,0
DA:315,0
DA:316,0
DA:318,0
DA:319,0
DA:320,0
DA:321,0
DA:322,0
DA:324,0
DA:325,0
DA:326,0
DA:327,0
DA:328,0
BRF:0
BRH:0
LF:228
LH:181
end_of_record
SF:/Users/jt/code/threadkit/server/crates/http/src/routes/users.rs
FN:480,_RNCNCNvNtNtCsaszyX3GTrYE_14threadkit_http6routes5users10block_user00B9_
FN:487,_RNCNCNvNtNtCsaszyX3GTrYE_14threadkit_http6routes5users10block_user0s_0B9_
FN:515,_RNCNCNvNtNtCsaszyX3GTrYE_14threadkit_http6routes5users12unblock_user00B9_
FN:315,_RNCNCNvNtNtCsaszyX3GTrYE_14threadkit_http6routes5users14check_username0s_0B9_
FN:544,_RNCNCNvNtNtCsaszyX3GTrYE_14threadkit_http6routes5users14delete_account00B9_
FN:579,_RNCNCNvNtNtCsaszyX3GTrYE_14threadkit_http6routes5users15get_my_comments00B9_
FN:596,_RNCNCNvNtNtCsaszyX3GTrYE_14threadkit_http6routes5users15get_my_comments0s0_0B9_
FN:587,_RNCNCNvNtNtCsaszyX3GTrYE_14threadkit_http6routes5users15get_my_comments0s_0B9_
FN:431,_RNCNCNvNtNtCsaszyX3GTrYE_14threadkit_http6routes5users17get_blocked_users00B9_
FN:443,_RNCNCNvNtNtCsaszyX3GTrYE_14threadkit_http6routes5users17get_blocked_users0s0_0B9_
FN:436,_RNCNCNvNtNtCsaszyX3GTrYE_14threadkit_http6routes5users17get_blocked_users0s_0B9_
FN:348,_RNCNCNvNtNtCsaszyX3GTrYE_14threadkit_http6routes5users17get_notifications00B9_
FN:361,_RNCNCNvNtNtCsaszyX3GTrYE_14threadkit_http6routes5users17get_notifications0s0_0B9_
FN:344,_RNCNCNvNtNtCsaszyX3GTrYE_14threadkit_http6routes5users17get_notifications0s1_0B9_
FN:353,_RNCNCNvNtNtCsaszyX3GTrYE_14threadkit_http6routes5users17get_notifications0s_0B9_
FN:638,_RNCNCNvNtNtCsaszyX3GTrYE_14threadkit_http6routes5users17get_user_comments00B9_
FN:657,_RNCNCNvNtNtCsaszyX3GTrYE_14threadkit_http6routes5users17get_user_comments0s0_0B9_
FN:666,_RNCNCNvNtNtCsaszyX3GTrYE_14threadkit_http6routes5users17get_user_comments0s1_0B9_
FN:649,_RNCNCNvNtNtCsaszyX3GTrYE_14threadkit_http6routes5users17get_user_comments0s_0B9_
FN:152,_RNCNCNvNtNtCsaszyX3GTrYE_14threadkit_http6routes5users6get_me00B9_
FN:148,_RNCNCNvNtNtCsaszyX3GTrYE_14threadkit_http6routes5users6get_me0s_0B9_
FN:278,_RNCNCNvNtNtCsaszyX3GTrYE_14threadkit_http6routes5users8get_user00B9_
FN:396,_RNCNCNvNtNtCsaszyX3GTrYE_14threadkit_http6routes5users9mark_read00B9_
FN:191,_RNCNCNvNtNtCsaszyX3GTrYE_14threadkit_http6routes5users9update_me00B9_
FN:204,_RNCNCNvNtNtCsaszyX3GTrYE_14threadkit_http6routes5users9update_me0s0_0B9_
FN:216,_RNCNCNvNtNtCsaszyX3GTrYE_14threadkit_http6routes5users9update_me0s1_0B9_
FN:234,_RNCNCNvNtNtCsaszyX3GTrYE_14threadkit_http6routes5users9update_me0s2_0B9_
FN:197,_RNCNCNvNtNtCsaszyX3GTrYE_14threadkit_http6routes5users9update_me0s_0B9_
FN:469,_RNCNvNtNtCsaszyX3GTrYE_14threadkit_http6routes5users10block_user0B7_
FN:510,_RNCNvNtNtCsaszyX3GTrYE_14threadkit_http6routes5users12unblock_user0B7_
FN:299,_RNCNvNtNtCsaszyX3GTrYE_14threadkit_http6routes5users14check_username0B7_
FN:539,_RNCNvNtNtCsaszyX3GTrYE_14threadkit_http6routes5users14delete_account0B7_
FN:570,_RNCNvNtNtCsaszyX3GTrYE_14threadkit_http6routes5users15get_my_comments0B7_
FN:426,_RNCNvNtNtCsaszyX3GTrYE_14threadkit_http6routes5users17get_blocked_users0B7_
FN:337,_RNCNvNtNtCsaszyX3GTrYE_14threadkit_http6routes5users17get_notifications0B7_
FN:632,_RNCNvNtNtCsaszyX3GTrYE_14threadkit_http6routes5users17get_user_comments0B7_
FN:144,_RNCNvNtNtCsaszyX3GTrYE_14threadkit_http6routes5users6get_me0B7_
FN:273,_RNCNvNtNtCsaszyX3GTrYE_14threadkit_http6routes5users8get_user0B7_
FN:391,_RNCNvNtNtCsaszyX3GTrYE_14threadkit_http6routes5users9mark_read0B7_
FN:186,_RNCNvNtNtCsaszyX3GTrYE_14threadkit_http6routes5users9update_me0B7_
FN:464,_RNvNtNtCsaszyX3GTrYE_14threadkit_http6routes5users10block_user
FN:505,_RNvNtNtCsaszyX3GTrYE_14threadkit_http6routes5users12unblock_user
FN:294,_RNvNtNtCsaszyX3GTrYE_14threadkit_http6routes5users14check_username
FN:535,_RNvNtNtCsaszyX3GTrYE_14threadkit_http6routes5users14delete_account
FN:565,_RNvNtNtCsaszyX3GTrYE_14threadkit_http6routes5users15get_my_comments
FN:422,_RNvNtNtCsaszyX3GTrYE_14threadkit_http6routes5users17get_blocked_users
FN:332,_RNvNtNtCsaszyX3GTrYE_14threadkit_http6routes5users17get_notifications
FN:627,_RNvNtNtCsaszyX3GTrYE_14threadkit_http6routes5users17get_user_comments
FN:686,_RNvNtNtCsaszyX3GTrYE_14threadkit_http6routes5users20find_comment_in_tree
FN:140,_RNvNtNtCsaszyX3GTrYE_14threadkit_http6routes5users6get_me
FN:18,_RNvNtNtCsaszyX3GTrYE_14threadkit_http6routes5users6router
FN:269,_RNvNtNtCsaszyX3GTrYE_14threadkit_http6routes5users8get_user
FN:387,_RNvNtNtCsaszyX3GTrYE_14threadkit_http6routes5users9mark_read
FN:181,_RNvNtNtCsaszyX3GTrYE_14threadkit_http6routes5users9update_me
FN:686,_RNvNtNtCskwAV7ptXVKm_14threadkit_http6routes5users20find_comment_in_tree
FN:464,_RNvNtNtCskwAV7ptXVKm_14threadkit_http6routes5users10block_user
FN:505,_RNvNtNtCskwAV7ptXVKm_14threadkit_http6routes5users12unblock_user
FN:294,_RNvNtNtCskwAV7ptXVKm_14threadkit_http6routes5users14check_username
FN:535,_RNvNtNtCskwAV7ptXVKm_14threadkit_http6routes5users14delete_account
FN:565,_RNvNtNtCskwAV7ptXVKm_14threadkit_http6routes5users15get_my_comments
FN:422,_RNvNtNtCskwAV7ptXVKm_14threadkit_http6routes5users17get_blocked_users
FN:332,_RNvNtNtCskwAV7ptXVKm_14threadkit_http6routes5users17get_notifications
FN:627,_RNvNtNtCskwAV7ptXVKm_14threadkit_http6routes5users17get_user_comments
FN:140,_RNvNtNtCskwAV7ptXVKm_14threadkit_http6routes5users6get_me
FN:18,_RNvNtNtCskwAV7ptXVKm_14threadkit_http6routes5users6router
FN:269,_RNvNtNtCskwAV7ptXVKm_14threadkit_http6routes5users8get_user
FN:387,_RNvNtNtCskwAV7ptXVKm_14threadkit_http6routes5users9mark_read
FN:181,_RNvNtNtCskwAV7ptXVKm_14threadkit_http6routes5users9update_me
FN:480,_RNCNCNvNtNtCskwAV7ptXVKm_14threadkit_http6routes5users10block_user00B9_
FN:487,_RNCNCNvNtNtCskwAV7ptXVKm_14threadkit_http6routes5users10block_user0s_0B9_
FN:515,_RNCNCNvNtNtCskwAV7ptXVKm_14threadkit_http6routes5users12unblock_user00B9_
FN:315,_RNCNCNvNtNtCskwAV7ptXVKm_14threadkit_http6routes5users14check_username0s_0B9_
FN:544,_RNCNCNvNtNtCskwAV7ptXVKm_14threadkit_http6routes5users14delete_account00B9_
FN:579,_RNCNCNvNtNtCskwAV7ptXVKm_14threadkit_http6routes5users15get_my_comments00B9_
FN:596,_RNCNCNvNtNtCskwAV7ptXVKm_14threadkit_http6routes5users15get_my_comments0s0_0B9_
FN:587,_RNCNCNvNtNtCskwAV7ptXVKm_14threadkit_http6routes5users15get_my_comments0s_0B9_
FN:431,_RNCNCNvNtNtCskwAV7ptXVKm_14threadkit_http6routes5users17get_blocked_users00B9_
FN:443,_RNCNCNvNtNtCskwAV7ptXVKm_14threadkit_http6routes5users17get_blocked_users0s0_0B9_
FN:436,_RNCNCNvNtNtCskwAV7ptXVKm_14threadkit_http6routes5users17get_blocked_users0s_0B9_
FN:348,_RNCNCNvNtNtCskwAV7ptXVKm_14threadkit_http6routes5users17get_notifications00B9_
FN:361,_RNCNCNvNtNtCskwAV7ptXVKm_14threadkit_http6routes5users17get_notifications0s0_0B9_
FN:344,_RNCNCNvNtNtCskwAV7ptXVKm_14threadkit_http6routes5users17get_notifications0s1_0B9_
FN:353,_RNCNCNvNtNtCskwAV7ptXVKm_14threadkit_http6routes5users17get_notifications0s_0B9_
FN:638,_RNCNCNvNtNtCskwAV7ptXVKm_14threadkit_http6routes5users17get_user_comments00B9_
FN:657,_RNCNCNvNtNtCskwAV7ptXVKm_14threadkit_http6routes5users17get_user_comments0s0_0B9_
FN:666,_RNCNCNvNtNtCskwAV7ptXVKm_14threadkit_http6routes5users17get_user_comments0s1_0B9_
FN:649,_RNCNCNvNtNtCskwAV7ptXVKm_14threadkit_http6routes5users17get_user_comments0s_0B9_
FN:152,_RNCNCNvNtNtCskwAV7ptXVKm_14threadkit_http6routes5users6get_me00B9_
FN:148,_RNCNCNvNtNtCskwAV7ptXVKm_14threadkit_http6routes5users6get_me0s_0B9_
FN:278,_RNCNCNvNtNtCskwAV7ptXVKm_14threadkit_http6routes5users8get_user00B9_
FN:396,_RNCNCNvNtNtCskwAV7ptXVKm_14threadkit_http6routes5users9mark_read00B9_
FN:191,_RNCNCNvNtNtCskwAV7ptXVKm_14threadkit_http6routes5users9update_me00B9_
FN:204,_RNCNCNvNtNtCskwAV7ptXVKm_14threadkit_http6routes5users9update_me0s0_0B9_
FN:216,_RNCNCNvNtNtCskwAV7ptXVKm_14threadkit_http6routes5users9update_me0s1_0B9_
FN:234,_RNCNCNvNtNtCskwAV7ptXVKm_14threadkit_http6routes5users9update_me0s2_0B9_
FN:197,_RNCNCNvNtNtCskwAV7ptXVKm_14threadkit_http6routes5users9update_me0s_0B9_
FN:469,_RNCNvNtNtCskwAV7ptXVKm_14threadkit_http6routes5users10block_user0B7_
FN:510,_RNCNvNtNtCskwAV7ptXVKm_14threadkit_http6routes5users12unblock_user0B7_
FN:299,_RNCNvNtNtCskwAV7ptXVKm_14threadkit_http6routes5users14check_username0B7_
FN:539,_RNCNvNtNtCskwAV7ptXVKm_14threadkit_http6routes5users14delete_account0B7_
FN:570,_RNCNvNtNtCskwAV7ptXVKm_14threadkit_http6routes5users15get_my_comments0B7_
FN:426,_RNCNvNtNtCskwAV7ptXVKm_14threadkit_http6routes5users17get_blocked_users0B7_
FN:337,_RNCNvNtNtCskwAV7ptXVKm_14threadkit_http6routes5users17get_notifications0B7_
FN:632,_RNCNvNtNtCskwAV7ptXVKm_14threadkit_http6routes5users17get_user_comments0B7_
FN:144,_RNCNvNtNtCskwAV7ptXVKm_14threadkit_http6routes5users6get_me0B7_
FN:273,_RNCNvNtNtCskwAV7ptXVKm_14threadkit_http6routes5users8get_user0B7_
FN:391,_RNCNvNtNtCskwAV7ptXVKm_14threadkit_http6routes5users9mark_read0B7_
FN:186,_RNCNvNtNtCskwAV7ptXVKm_14threadkit_http6routes5users9update_me0B7_
FNDA:0,_RNCNCNvNtNtCsaszyX3GTrYE_14threadkit_http6routes5users10block_user00B9_
FNDA:0,_RNCNCNvNtNtCsaszyX3GTrYE_14threadkit_http6routes5users10block_user0s_0B9_
FNDA:0,_RNCNCNvNtNtCsaszyX3GTrYE_14threadkit_http6routes5users12unblock_user00B9_
FNDA:0,_RNCNCNvNtNtCsaszyX3GTrYE_14threadkit_http6routes5users14check_username0s_0B9_
FNDA:0,_RNCNCNvNtNtCsaszyX3GTrYE_14threadkit_http6routes5users14delete_account00B9_
FNDA:0,_RNCNCNvNtNtCsaszyX3GTrYE_14threadkit_http6routes5users15get_my_comments00B9_
FNDA:0,_RNCNCNvNtNtCsaszyX3GTrYE_14threadkit_http6routes5users15get_my_comments0s0_0B9_
FNDA:0,_RNCNCNvNtNtCsaszyX3GTrYE_14threadkit_http6routes5users15get_my_comments0s_0B9_
FNDA:0,_RNCNCNvNtNtCsaszyX3GTrYE_14threadkit_http6routes5users17get_blocked_users00B9_
FNDA:0,_RNCNCNvNtNtCsaszyX3GTrYE_14threadkit_http6routes5users17get_blocked_users0s0_0B9_
FNDA:0,_RNCNCNvNtNtCsaszyX3GTrYE_14threadkit_http6routes5users17get_blocked_users0s_0B9_
FNDA:0,_RNCNCNvNtNtCsaszyX3GTrYE_14threadkit_http6routes5users17get_notifications00B9_
FNDA:0,_RNCNCNvNtNtCsaszyX3GTrYE_14threadkit_http6routes5users17get_notifications0s0_0B9_
FNDA:0,_RNCNCNvNtNtCsaszyX3GTrYE_14threadkit_http6routes5users17get_notifications0s1_0B9_
FNDA:0,_RNCNCNvNtNtCsaszyX3GTrYE_14threadkit_http6routes5users17get_notifications0s_0B9_
FNDA:0,_RNCNCNvNtNtCsaszyX3GTrYE_14threadkit_http6routes5users17get_user_comments00B9_
FNDA:0,_RNCNCNvNtNtCsaszyX3GTrYE_14threadkit_http6routes5users17get_user_comments0s0_0B9_
FNDA:0,_RNCNCNvNtNtCsaszyX3GTrYE_14threadkit_http6routes5users17get_user_comments0s1_0B9_
FNDA:0,_RNCNCNvNtNtCsaszyX3GTrYE_14threadkit_http6routes5users17get_user_comments0s_0B9_
FNDA:0,_RNCNCNvNtNtCsaszyX3GTrYE_14threadkit_http6routes5users6get_me00B9_
FNDA:0,_RNCNCNvNtNtCsaszyX3GTrYE_14threadkit_http6routes5users6get_me0s_0B9_
FNDA:0,_RNCNCNvNtNtCsaszyX3GTrYE_14threadkit_http6routes5users8get_user00B9_
FNDA:0,_RNCNCNvNtNtCsaszyX3GTrYE_14threadkit_http6routes5users9mark_read00B9_
FNDA:0,_RNCNCNvNtNtCsaszyX3GTrYE_14threadkit_http6routes5users9update_me00B9_
FNDA:0,_RNCNCNvNtNtCsaszyX3GTrYE_14threadkit_http6routes5users9update_me0s0_0B9_
FNDA:0,_RNCNCNvNtNtCsaszyX3GTrYE_14threadkit_http6routes5users9update_me0s1_0B9_
FNDA:0,_RNCNCNvNtNtCsaszyX3GTrYE_14threadkit_http6routes5users9update_me0s2_0B9_
FNDA:0,_RNCNCNvNtNtCsaszyX3GTrYE_14threadkit_http6routes5users9update_me0s_0B9_
FNDA:0,_RNCNvNtNtCsaszyX3GTrYE_14threadkit_http6routes5users10block_user0B7_
FNDA:0,_RNCNvNtNtCsaszyX3GTrYE_14threadkit_http6routes5users12unblock_user0B7_
FNDA:0,_RNCNvNtNtCsaszyX3GTrYE_14threadkit_http6routes5users14check_username0B7_
FNDA:0,_RNCNvNtNtCsaszyX3GTrYE_14threadkit_http6routes5users14delete_account0B7_
FNDA:0,_RNCNvNtNtCsaszyX3GTrYE_14threadkit_http6routes5users15get_my_comments0B7_
FNDA:0,_RNCNvNtNtCsaszyX3GTrYE_14threadkit_http6routes5users17get_blocked_users0B7_
FNDA:0,_RNCNvNtNtCsaszyX3GTrYE_14threadkit_http6routes5users17get_notifications0B7_
FNDA:0,_RNCNvNtNtCsaszyX3GTrYE_14threadkit_http6routes5users17get_user_comments0B7_
FNDA:0,_RNCNvNtNtCsaszyX3GTrYE_14threadkit_http6routes5users6get_me0B7_
FNDA:13,_RNCNvNtNtCsaszyX3GTrYE_14threadkit_http6routes5users8get_user0B7_
FNDA:0,_RNCNvNtNtCsaszyX3GTrYE_14threadkit_http6routes5users9mark_read0B7_
FNDA:0,_RNCNvNtNtCsaszyX3GTrYE_14threadkit_http6routes5users9update_me0B7_
FNDA:0,_RNvNtNtCsaszyX3GTrYE_14threadkit_http6routes5users10block_user
FNDA:0,_RNvNtNtCsaszyX3GTrYE_14threadkit_http6routes5users12unblock_user
FNDA:0,_RNvNtNtCsaszyX3GTrYE_14threadkit_http6routes5users14check_username
FNDA:0,_RNvNtNtCsaszyX3GTrYE_14threadkit_http6routes5users14delete_account
FNDA:0,_RNvNtNtCsaszyX3GTrYE_14threadkit_http6routes5users15get_my_comments
FNDA:0,_RNvNtNtCsaszyX3GTrYE_14threadkit_http6routes5users17get_blocked_users
FNDA:0,_RNvNtNtCsaszyX3GTrYE_14threadkit_http6routes5users17get_notifications
FNDA:0,_RNvNtNtCsaszyX3GTrYE_14threadkit_http6routes5users17get_user_comments
FNDA:0,_RNvNtNtCsaszyX3GTrYE_14threadkit_http6routes5users20find_comment_in_tree
FNDA:0,_RNvNtNtCsaszyX3GTrYE_14threadkit_http6routes5users6get_me
FNDA:62,_RNvNtNtCsaszyX3GTrYE_14threadkit_http6routes5users6router
FNDA:13,_RNvNtNtCsaszyX3GTrYE_14threadkit_http6routes5users8get_user
FNDA:0,_RNvNtNtCsaszyX3GTrYE_14threadkit_http6routes5users9mark_read
FNDA:0,_RNvNtNtCsaszyX3GTrYE_14threadkit_http6routes5users9update_me
FNDA:0,_RNvNtNtCskwAV7ptXVKm_14threadkit_http6routes5users20find_comment_in_tree
FNDA:0,_RNvNtNtCskwAV7ptXVKm_14threadkit_http6routes5users10block_user
FNDA:0,_RNvNtNtCskwAV7ptXVKm_14threadkit_http6routes5users12unblock_user
FNDA:0,_RNvNtNtCskwAV7ptXVKm_14threadkit_http6routes5users14check_username
FNDA:0,_RNvNtNtCskwAV7ptXVKm_14threadkit_http6routes5users14delete_account
FNDA:0,_RNvNtNtCskwAV7ptXVKm_14threadkit_http6routes5users15get_my_comments
FNDA:0,_RNvNtNtCskwAV7ptXVKm_14threadkit_http6routes5users17get_blocked_users
FNDA:0,_RNvNtNtCskwAV7ptXVKm_14threadkit_http6routes5users17get_notifications
FNDA:0,_RNvNtNtCskwAV7ptXVKm_14threadkit_http6routes5users17get_user_comments
FNDA:0,_RNvNtNtCskwAV7ptXVKm_14threadkit_http6routes5users6get_me
FNDA:0,_RNvNtNtCskwAV7ptXVKm_14threadkit_http6routes5users6router
FNDA:0,_RNvNtNtCskwAV7ptXVKm_14threadkit_http6routes5users8get_user
FNDA:0,_RNvNtNtCskwAV7ptXVKm_14threadkit_http6routes5users9mark_read
FNDA:0,_RNvNtNtCskwAV7ptXVKm_14threadkit_http6routes5users9update_me
FNDA:0,_RNCNCNvNtNtCskwAV7ptXVKm_14threadkit_http6routes5users10block_user00B9_
FNDA:0,_RNCNCNvNtNtCskwAV7ptXVKm_14threadkit_http6routes5users10block_user0s_0B9_
FNDA:0,_RNCNCNvNtNtCskwAV7ptXVKm_14threadkit_http6routes5users12unblock_user00B9_
FNDA:0,_RNCNCNvNtNtCskwAV7ptXVKm_14threadkit_http6routes5users14check_username0s_0B9_
FNDA:0,_RNCNCNvNtNtCskwAV7ptXVKm_14threadkit_http6routes5users14delete_account00B9_
FNDA:0,_RNCNCNvNtNtCskwAV7ptXVKm_14threadkit_http6routes5users15get_my_comments00B9_
FNDA:0,_RNCNCNvNtNtCskwAV7ptXVKm_14threadkit_http6routes5users15get_my_comments0s0_0B9_
FNDA:0,_RNCNCNvNtNtCskwAV7ptXVKm_14threadkit_http6routes5users15get_my_comments0s_0B9_
FNDA:0,_RNCNCNvNtNtCskwAV7ptXVKm_14threadkit_http6routes5users17get_blocked_users00B9_
FNDA:0,_RNCNCNvNtNtCskwAV7ptXVKm_14threadkit_http6routes5users17get_blocked_users0s0_0B9_
FNDA:0,_RNCNCNvNtNtCskwAV7ptXVKm_14threadkit_http6routes5users17get_blocked_users0s_0B9_
FNDA:0,_RNCNCNvNtNtCskwAV7ptXVKm_14threadkit_http6routes5users17get_notifications00B9_
FNDA:0,_RNCNCNvNtNtCskwAV7ptXVKm_14threadkit_http6routes5users17get_notifications0s0_0B9_
FNDA:0,_RNCNCNvNtNtCskwAV7ptXVKm_14threadkit_http6routes5users17get_notifications0s1_0B9_
FNDA:0,_RNCNCNvNtNtCskwAV7ptXVKm_14threadkit_http6routes5users17get_notifications0s_0B9_
FNDA:0,_RNCNCNvNtNtCskwAV7ptXVKm_14threadkit_http6routes5users17get_user_comments00B9_
FNDA:0,_RNCNCNvNtNtCskwAV7ptXVKm_14threadkit_http6routes5users17get_user_comments0s0_0B9_
FNDA:0,_RNCNCNvNtNtCskwAV7ptXVKm_14threadkit_http6routes5users17get_user_comments0s1_0B9_
FNDA:0,_RNCNCNvNtNtCskwAV7ptXVKm_14threadkit_http6routes5users17get_user_comments0s_0B9_
FNDA:0,_RNCNCNvNtNtCskwAV7ptXVKm_14threadkit_http6routes5users6get_me00B9_
FNDA:0,_RNCNCNvNtNtCskwAV7ptXVKm_14threadkit_http6routes5users6get_me0s_0B9_
FNDA:0,_RNCNCNvNtNtCskwAV7ptXVKm_14threadkit_http6routes5users8get_user00B9_
FNDA:0,_RNCNCNvNtNtCskwAV7ptXVKm_14threadkit_http6routes5users9mark_read00B9_
FNDA:0,_RNCNCNvNtNtCskwAV7ptXVKm_14threadkit_http6routes5users9update_me00B9_
FNDA:0,_RNCNCNvNtNtCskwAV7ptXVKm_14threadkit_http6routes5users9update_me0s0_0B9_
FNDA:0,_RNCNCNvNtNtCskwAV7ptXVKm_14threadkit_http6routes5users9update_me0s1_0B9_
FNDA:0,_RNCNCNvNtNtCskwAV7ptXVKm_14threadkit_http6routes5users9update_me0s2_0B9_
FNDA:0,_RNCNCNvNtNtCskwAV7ptXVKm_14threadkit_http6routes5users9update_me0s_0B9_
FNDA:0,_RNCNvNtNtCskwAV7ptXVKm_14threadkit_http6routes5users10block_user0B7_
FNDA:0,_RNCNvNtNtCskwAV7ptXVKm_14threadkit_http6routes5users12unblock_user0B7_
FNDA:0,_RNCNvNtNtCskwAV7ptXVKm_14threadkit_http6routes5users14check_username0B7_
FNDA:0,_RNCNvNtNtCskwAV7ptXVKm_14threadkit_http6routes5users14delete_account0B7_
FNDA:0,_RNCNvNtNtCskwAV7ptXVKm_14threadkit_http6routes5users15get_my_comments0B7_
FNDA:0,_RNCNvNtNtCskwAV7ptXVKm_14threadkit_http6routes5users17get_blocked_users0B7_
FNDA:0,_RNCNvNtNtCskwAV7ptXVKm_14threadkit_http6routes5users17get_notifications0B7_
FNDA:0,_RNCNvNtNtCskwAV7ptXVKm_14threadkit_http6routes5users17get_user_comments0B7_
FNDA:0,_RNCNvNtNtCskwAV7ptXVKm_14threadkit_http6routes5users6get_me0B7_
FNDA:0,_RNCNvNtNtCskwAV7ptXVKm_14threadkit_http6routes5users8get_user0B7_
FNDA:0,_RNCNvNtNtCskwAV7ptXVKm_14threadkit_http6routes5users9mark_read0B7_
FNDA:0,_RNCNvNtNtCskwAV7ptXVKm_14threadkit_http6routes5users9update_me0B7_
FNF:54
FNH:3
DA:18,62
DA:19,62
DA:20,62
DA:21,62
DA:22,62
DA:23,62
DA:24,62
DA:25,62
DA:26,62
DA:27,62
DA:28,62
DA:29,62
DA:140,0
DA:141,0
DA:142,0
DA:143,0
DA:144,0
DA:146,0
DA:147,0
DA:148,0
DA:151,0
DA:152,0
DA:153,0
DA:155,0
DA:156,0
DA:157,0
DA:158,0
DA:159,0
DA:160,0
DA:161,0
DA:162,0
DA:163,0
DA:164,0
DA:165,0
DA:166,0
DA:181,0
DA:182,0
DA:183,0
DA:184,0
DA:185,0
DA:186,0
DA:187,0
DA:188,0
DA:189,0
DA:190,0
DA:191,0
DA:192,0
DA:194,0
DA:196,0
DA:197,0
DA:200,0
DA:201,0
DA:202,0
DA:203,0
DA:204,0
DA:206,0
DA:207,0
DA:210,0
DA:212,0
DA:213,0
DA:214,0
DA:215,0
DA:216,0
DA:218,0
DA:219,0
DA:220,0
DA:222,0
DA:223,0
DA:224,0
DA:226,0
DA:227,0
DA:228,0
DA:230,0
DA:231,0
DA:232,0
DA:233,0
DA:234,0
DA:236,0
DA:237,0
DA:238,0
DA:239,0
DA:240,0
DA:242,0
DA:243,0
DA:244,0
DA:245,0
DA:246,0
DA:247,0
DA:248,0
DA:249,0
DA:250,0
DA:251,0
DA:252,0
DA:253,0
DA:269,13
DA:270,13
DA:271,13
DA:272,13
DA:273,13
DA:274,13
DA:275,13
DA:276,13
DA:277,13
DA:278,13
DA:279,13
DA:281,13
DA:282,13
DA:294,0
DA:295,0
DA:296,0
DA:297,0
DA:298,0
DA:299,0
DA:301,0
DA:302,0
DA:303,0
DA:304,0
DA:305,0
DA:306,0
DA:309,0
DA:311,0
DA:312,0
DA:313,0
DA:314,0
DA:315,0
DA:317,0
DA:318,0
DA:332,0
DA:333,0
DA:334,0
DA:335,0
DA:336,0
DA:337,0
DA:338,0
DA:339,0
DA:342,0
DA:343,0
DA:344,0
DA:347,0
DA:348,0
DA:351,0
DA:352,0
DA:353,0
DA:354,0
DA:356,0
DA:358,0
DA:359,0
DA:360,0
DA:361,0
DA:362,0
DA:363,0
DA:364,0
DA:365,0
DA:366,0
DA:367,0
DA:368,0
DA:370,0
DA:371,0
DA:372,0
DA:373,0
DA:374,0
DA:387,0
DA:388,0
DA:389,0
DA:390,0
DA:391,0
DA:392,0
DA:393,0
DA:394,0
DA:395,0
DA:396,0
DA:398,0
DA:399,0
DA:422,0
DA:423,0
DA:424,0
DA:425,0
DA:426,0
DA:427,0
DA:428,0
DA:429,0
DA:430,0
DA:431,0
DA:434,0
DA:435,0
DA:436,0
DA:437,0
DA:439,0
DA:441,0
DA:442,0
DA:443,0
DA:444,0
DA:446,0
DA:447,0
DA:464,0
DA:465,0
DA:466,0
DA:467,0
DA:468,0
DA:469,0
DA:471,0
DA:472,0
DA:473,0
DA:476,0
DA:477,0
DA:478,0
DA:479,0
DA:480,0
DA:481,0
DA:483,0
DA:484,0
DA:485,0
DA:486,0
DA:487,0
DA:489,0
DA:490,0
DA:505,0
DA:506,0
DA:507,0
DA:508,0
DA:509,0
DA:510,0
DA:511,0
DA:512,0
DA:513,0
DA:514,0
DA:515,0
DA:517,0
DA:518,0
DA:535,0
DA:536,0
DA:537,0
DA:538,0
DA:539,0
DA:540,0
DA:541,0
DA:542,0
DA:543,0
DA:544,0
DA:546,0
DA:547,0
DA:565,0
DA:566,0
DA:567,0
DA:568,0
DA:569,0
DA:570,0
DA:571,0
DA:572,0
DA:575,0
DA:576,0
DA:577,0
DA:578,0
DA:579,0
DA:581,0
DA:582,0
DA:585,0
DA:586,0
DA:587,0
DA:588,0
DA:590,0
DA:593,0
DA:594,0
DA:595,0
DA:596,0
DA:597,0
DA:598,0
DA:599,0
DA:600,0
DA:601,0
DA:602,0
DA:603,0
DA:604,0
DA:605,0
DA:606,0
DA:607,0
DA:609,0
DA:610,0
DA:627,0
DA:628,0
DA:629,0
DA:630,0
DA:631,0
DA:632,0
DA:634,0
DA:635,0
DA:636,0
DA:637,0
DA:638,0
DA:639,0
DA:641,0
DA:642,0
DA:645,0
DA:646,0
DA:647,0
DA:648,0
DA:649,0
DA:651,0
DA:652,0
DA:655,0
DA:656,0
DA:657,0
DA:658,0
DA:660,0
DA:663,0
DA:664,0
DA:665,0
DA:666,0
DA:667,0
DA:668,0
DA:670,0
DA:671,0
DA:672,0
DA:673,0
DA:674,0
DA:675,0
DA:676,0
DA:677,0
DA:678,0
DA:679,0
DA:680,0
DA:682,0
DA:683,0
DA:686,0
DA:687,0
DA:688,0
DA:689,0
DA:690,0
DA:691,0
DA:692,0
DA:693,0
DA:695,0
DA:696,0
BRF:0
BRH:0
LF:371
LH:26
end_of_record
SF:/Users/jt/code/threadkit/server/crates/http/src/routes/version.rs
FN:5,_RNvNtNtCsaszyX3GTrYE_14threadkit_http6routes7version6router
FN:9,_RNvNtNtCsaszyX3GTrYE_14threadkit_http6routes7version7version
FN:9,_RNCNvNtNtCsaszyX3GTrYE_14threadkit_http6routes7version7version0B7_
FN:9,_RNCNvNtNtCskwAV7ptXVKm_14threadkit_http6routes7version7version0B7_
FN:5,_RNvNtNtCskwAV7ptXVKm_14threadkit_http6routes7version6router
FN:9,_RNvNtNtCskwAV7ptXVKm_14threadkit_http6routes7version7version
FNDA:0,_RNvNtNtCsaszyX3GTrYE_14threadkit_http6routes7version6router
FNDA:0,_RNvNtNtCsaszyX3GTrYE_14threadkit_http6routes7version7version
FNDA:0,_RNCNvNtNtCsaszyX3GTrYE_14threadkit_http6routes7version7version0B7_
FNDA:0,_RNCNvNtNtCskwAV7ptXVKm_14threadkit_http6routes7version7version0B7_
FNDA:0,_RNvNtNtCskwAV7ptXVKm_14threadkit_http6routes7version6router
FNDA:0,_RNvNtNtCskwAV7ptXVKm_14threadkit_http6routes7version7version
FNF:3
FNH:0
DA:5,0
DA:6,0
DA:7,0
DA:9,0
DA:10,0
DA:11,0
DA:12,0
DA:13,0
DA:14,0
DA:16,0
DA:17,0
DA:18,0
DA:19,0
DA:20,0
DA:21,0
BRF:0
BRH:0
LF:16
LH:0
end_of_record
SF:/Users/jt/code/threadkit/server/crates/http/src/state.rs
FN:40,_RNCNvMNtCsaszyX3GTrYE_14threadkit_http5stateNtB4_8AppState3new0CsfD1Skel4Vam_10auth_tests
FN:40,_RNCNvMNtCsaszyX3GTrYE_14threadkit_http5stateNtB4_8AppState3new0B6_
FN:27,_RNCNvMNtCsaszyX3GTrYE_14threadkit_http5stateNtB4_8AppState13publish_event0B6_
FN:27,_RNvMNtCsaszyX3GTrYE_14threadkit_http5stateNtB2_8AppState13publish_event
FN:40,_RNvMNtCsaszyX3GTrYE_14threadkit_http5stateNtB2_8AppState3new
FN:40,_RNCNvMNtCsaszyX3GTrYE_14threadkit_http5stateNtB4_8AppState3new0Cs7z9qMl5nAho_13comment_tests
FN:40,_RNCNvMNtCsaszyX3GTrYE_14threadkit_http5stateNtB4_8AppState3new0Cs2N948IYtZ75_11media_tests
FN:40,_RNCNvMNtCsaszyX3GTrYE_14threadkit_http5stateNtB4_8AppState3new0Cs9WZ6y3JiwVO_16moderation_tests
FN:40,_RNCNvMNtCsaszyX3GTrYE_14threadkit_http5stateNtB4_8AppState3new0CskHzlUDlR1w5_16rate_limit_tests
FN:40,_RNCNvMNtCsaszyX3GTrYE_14threadkit_http5stateNtB4_8AppState3new0Cs9KKNa6Ped6o_14threadkit_http
FN:40,_RNCNvMNtCskwAV7ptXVKm_14threadkit_http5stateNtB4_8AppState3new0B6_
FN:40,_RNvMNtCskwAV7ptXVKm_14threadkit_http5stateNtB2_8AppState3new
FN:27,_RNvMNtCskwAV7ptXVKm_14threadkit_http5stateNtB2_8AppState13publish_event
FN:27,_RNCNvMNtCskwAV7ptXVKm_14threadkit_http5stateNtB4_8AppState13publish_event0B6_
FN:40,_RNCNvMNtCsaszyX3GTrYE_14threadkit_http5stateNtB4_8AppState3new0CsiJNGSUnbjrr_15turnstile_tests
FNDA:12,_RNCNvMNtCsaszyX3GTrYE_14threadkit_http5stateNtB4_8AppState3new0CsfD1Skel4Vam_10auth_tests
FNDA:0,_RNCNvMNtCsaszyX3GTrYE_14threadkit_http5stateNtB4_8AppState3new0B6_
FNDA:2,_RNCNvMNtCsaszyX3GTrYE_14threadkit_http5stateNtB4_8AppState13publish_event0B6_
FNDA:2,_RNvMNtCsaszyX3GTrYE_14threadkit_http5stateNtB2_8AppState13publish_event
FNDA:62,_RNvMNtCsaszyX3GTrYE_14threadkit_http5stateNtB2_8AppState3new
FNDA:25,_RNCNvMNtCsaszyX3GTrYE_14threadkit_http5stateNtB4_8AppState3new0Cs7z9qMl5nAho_13comment_tests
FNDA:3,_RNCNvMNtCsaszyX3GTrYE_14threadkit_http5stateNtB4_8AppState3new0Cs2N948IYtZ75_11media_tests
FNDA:9,_RNCNvMNtCsaszyX3GTrYE_14threadkit_http5stateNtB4_8AppState3new0Cs9WZ6y3JiwVO_16moderation_tests
FNDA:2,_RNCNvMNtCsaszyX3GTrYE_14threadkit_http5stateNtB4_8AppState3new0CskHzlUDlR1w5_16rate_limit_tests
FNDA:0,_RNCNvMNtCsaszyX3GTrYE_14threadkit_http5stateNtB4_8AppState3new0Cs9KKNa6Ped6o_14threadkit_http
FNDA:0,_RNCNvMNtCskwAV7ptXVKm_14threadkit_http5stateNtB4_8AppState3new0B6_
FNDA:0,_RNvMNtCskwAV7ptXVKm_14threadkit_http5stateNtB2_8AppState3new
FNDA:0,_RNvMNtCskwAV7ptXVKm_14threadkit_http5stateNtB2_8AppState13publish_event
FNDA:0,_RNCNvMNtCskwAV7ptXVKm_14threadkit_http5stateNtB4_8AppState13publish_event0B6_
FNDA:11,_RNCNvMNtCsaszyX3GTrYE_14threadkit_http5stateNtB4_8AppState3new0CsiJNGSUnbjrr_15turnstile_tests
FNF:4
FNH:4
DA:27,2
DA:28,2
DA:29,2
DA:30,2
DA:31,2
DA:32,2
DA:35,2
DA:36,0
DA:37,2
DA:38,2
DA:40,62
DA:41,62
DA:42,62
DA:45,62
DA:46,62
DA:47,0
DA:48,62
DA:51,62
DA:52,1
DA:53,1
DA:54,1
DA:55,1
DA:57,0
DA:58,0
DA:59,0
DA:63,61
DA:64,61
DA:68,62
DA:70,62
DA:72,62
DA:77,0
DA:78,0
DA:79,0
DA:80,0
DA:81,0
DA:82,0
DA:83,0
DA:84,0
DA:85,0
DA:86,0
DA:87,0
DA:88,0
DA:91,62
DA:93,62
DA:96,62
DA:97,62
DA:98,0
DA:99,0
DA:100,0
DA:101,0
DA:102,0
DA:103,0
DA:104,0
DA:105,0
DA:106,0
DA:107,0
DA:113,62
DA:119,62
DA:120,0
DA:123,62
DA:124,62
DA:125,62
DA:126,62
DA:128,62
DA:129,62
DA:130,62
DA:131,62
DA:132,62
DA:133,62
DA:134,62
DA:135,62
BRF:0
BRH:0
LF:73
LH:45
end_of_record
SF:/Users/jt/code/threadkit/server/crates/loadtest/src/main.rs
FN:2464,_RNCNCNCNCNvCs7g1jkbNFOBs_18threadkit_loadtest18run_ws_stress_test0s_000B9_
FN:1245,_RNCNCNCNvCs7g1jkbNFOBs_18threadkit_loadtest11run_ws_test0s3_00B7_
FN:1382,_RNCNCNCNvCs7g1jkbNFOBs_18threadkit_loadtest11run_ws_test0s6_0s1_0B7_
FN:1361,_RNCNCNCNvCs7g1jkbNFOBs_18threadkit_loadtest11run_ws_test0s6_0s2_0B7_
FN:1342,_RNCNCNCNvCs7g1jkbNFOBs_18threadkit_loadtest11run_ws_test0s6_0s_0B7_
FN:2459,_RNCNCNCNvCs7g1jkbNFOBs_18threadkit_loadtest18run_ws_stress_test0s_00B7_
FN:2529,_RNCNCNCNvCs7g1jkbNFOBs_18threadkit_loadtest18run_ws_stress_test0s_0s3_0B7_
FN:1227,_RNCNCNvCs7g1jkbNFOBs_18threadkit_loadtest11run_ws_test00B5_
FN:1229,_RNCNCNvCs7g1jkbNFOBs_18threadkit_loadtest11run_ws_test0s0_0B5_
FN:1241,_RNCNCNvCs7g1jkbNFOBs_18threadkit_loadtest11run_ws_test0s1_0B5_
FN:1243,_RNCNCNvCs7g1jkbNFOBs_18threadkit_loadtest11run_ws_test0s3_0B5_
FN:1250,_RNCNCNvCs7g1jkbNFOBs_18threadkit_loadtest11run_ws_test0s4_0B5_
FN:1268,_RNCNCNvCs7g1jkbNFOBs_18threadkit_loadtest11run_ws_test0s5_0B5_
FN:1275,_RNCNCNvCs7g1jkbNFOBs_18threadkit_loadtest11run_ws_test0s6_0B5_
FN:1437,_RNCNCNvCs7g1jkbNFOBs_18threadkit_loadtest11run_ws_test0s7_0B5_
FN:1228,_RNCNCNvCs7g1jkbNFOBs_18threadkit_loadtest11run_ws_test0s_0B5_
FN:2022,_RNCNCNvCs7g1jkbNFOBs_18threadkit_loadtest13run_auth_test00B5_
FN:2089,_RNCNCNvCs7g1jkbNFOBs_18threadkit_loadtest13run_auth_test0s_0B5_
FN:1770,_RNCNCNvCs7g1jkbNFOBs_18threadkit_loadtest13run_deep_test00B5_
FN:831,_RNCNCNvCs7g1jkbNFOBs_18threadkit_loadtest13run_read_test00B5_
FN:893,_RNCNCNvCs7g1jkbNFOBs_18threadkit_loadtest13run_read_test0s0_0B5_
FN:882,_RNCNCNvCs7g1jkbNFOBs_18threadkit_loadtest13run_read_test0s_0B5_
FN:1919,_RNCNCNvCs7g1jkbNFOBs_18threadkit_loadtest13run_vote_test00B5_
FN:1971,_RNCNCNvCs7g1jkbNFOBs_18threadkit_loadtest13run_vote_test0s_0B5_
FN:2130,_RNCNCNvCs7g1jkbNFOBs_18threadkit_loadtest14run_bench_test00B5_
FN:2135,_RNCNCNvCs7g1jkbNFOBs_18threadkit_loadtest14run_bench_test0s0_0B5_
FN:2139,_RNCNCNvCs7g1jkbNFOBs_18threadkit_loadtest14run_bench_test0s1_0B5_
FN:2173,_RNCNCNvCs7g1jkbNFOBs_18threadkit_loadtest14run_bench_test0s2_0B5_
FN:2260,_RNCNCNvCs7g1jkbNFOBs_18threadkit_loadtest14run_bench_test0s3_0B5_
FN:2134,_RNCNCNvCs7g1jkbNFOBs_18threadkit_loadtest14run_bench_test0s_0B5_
FN:1088,_RNCNCNvCs7g1jkbNFOBs_18threadkit_loadtest14run_mixed_test00B5_
FN:1150,_RNCNCNvCs7g1jkbNFOBs_18threadkit_loadtest14run_mixed_test0s_0B5_
FN:962,_RNCNCNvCs7g1jkbNFOBs_18threadkit_loadtest14run_write_test00B5_
FN:1020,_RNCNCNvCs7g1jkbNFOBs_18threadkit_loadtest14run_write_test0s_0B5_
FN:1631,_RNCNCNvCs7g1jkbNFOBs_18threadkit_loadtest15run_thread_test00B5_
FN:1679,_RNCNCNvCs7g1jkbNFOBs_18threadkit_loadtest15run_thread_test0s_0B5_
FN:2377,_RNCNCNvCs7g1jkbNFOBs_18threadkit_loadtest18run_ws_stress_test00B5_
FN:2642,_RNCNCNvCs7g1jkbNFOBs_18threadkit_loadtest18run_ws_stress_test0s0_0B5_
FN:2421,_RNCNCNvCs7g1jkbNFOBs_18threadkit_loadtest18run_ws_stress_test0s_0B5_
FN:1214,_RNCNvCs7g1jkbNFOBs_18threadkit_loadtest11run_ws_test0B3_
FN:740,_RNCNvCs7g1jkbNFOBs_18threadkit_loadtest12run_teardown0B3_
FN:2000,_RNCNvCs7g1jkbNFOBs_18threadkit_loadtest13run_auth_test0B3_
FN:1724,_RNCNvCs7g1jkbNFOBs_18threadkit_loadtest13run_deep_test0B3_
FN:781,_RNCNvCs7g1jkbNFOBs_18threadkit_loadtest13run_read_test0B3_
FN:1879,_RNCNvCs7g1jkbNFOBs_18threadkit_loadtest13run_vote_test0B3_
FN:2120,_RNCNvCs7g1jkbNFOBs_18threadkit_loadtest14run_bench_test0B3_
FN:1052,_RNCNvCs7g1jkbNFOBs_18threadkit_loadtest14run_mixed_test0B3_
FN:924,_RNCNvCs7g1jkbNFOBs_18threadkit_loadtest14run_write_test0B3_
FN:1550,_RNCNvCs7g1jkbNFOBs_18threadkit_loadtest15run_thread_test0B3_
FN:2359,_RNCNvCs7g1jkbNFOBs_18threadkit_loadtest18run_ws_stress_test0B3_
FN:93,_RNCNvCs7g1jkbNFOBs_18threadkit_loadtest19print_system_limits0B3_
FN:98,_RNCNvCs7g1jkbNFOBs_18threadkit_loadtest19print_system_limitss_0B3_
FN:457,_RNCNvCs7g1jkbNFOBs_18threadkit_loadtest4main0B3_
FN:595,_RNCNvCs7g1jkbNFOBs_18threadkit_loadtest9run_setup0B3_
FN:1510,_RNvCs7g1jkbNFOBs_18threadkit_loadtest11print_stats
FN:1206,_RNvCs7g1jkbNFOBs_18threadkit_loadtest11run_ws_test
FN:740,_RNvCs7g1jkbNFOBs_18threadkit_loadtest12run_teardown
FN:1995,_RNvCs7g1jkbNFOBs_18threadkit_loadtest13run_auth_test
FN:1719,_RNvCs7g1jkbNFOBs_18threadkit_loadtest13run_deep_test
FN:775,_RNvCs7g1jkbNFOBs_18threadkit_loadtest13run_read_test
FN:1873,_RNvCs7g1jkbNFOBs_18threadkit_loadtest13run_vote_test
FN:26,_RNvCs7g1jkbNFOBs_18threadkit_loadtest14raise_fd_limit
FN:2113,_RNvCs7g1jkbNFOBs_18threadkit_loadtest14run_bench_test
FN:1045,_RNvCs7g1jkbNFOBs_18threadkit_loadtest14run_mixed_test
FN:918,_RNvCs7g1jkbNFOBs_18threadkit_loadtest14run_write_test
FN:1543,_RNvCs7g1jkbNFOBs_18threadkit_loadtest15run_thread_test
FN:2349,_RNvCs7g1jkbNFOBs_18threadkit_loadtest18run_ws_stress_test
FN:57,_RNvCs7g1jkbNFOBs_18threadkit_loadtest19print_system_limits
FN:457,_RNvCs7g1jkbNFOBs_18threadkit_loadtest4main
FN:588,_RNvCs7g1jkbNFOBs_18threadkit_loadtest9run_setup
FN:1190,_RNvXCs7g1jkbNFOBs_18threadkit_loadtestNtB2_7WsStatsNtNtCs85QQFkKrybG_4core7default7Default7default
FN:2336,_RNvXs_Cs7g1jkbNFOBs_18threadkit_loadtestNtB4_11StressStatsNtNtCs85QQFkKrybG_4core7default7Default7default
FNDA:0,_RNCNCNCNCNvCs7g1jkbNFOBs_18threadkit_loadtest18run_ws_stress_test0s_000B9_
FNDA:0,_RNCNCNCNvCs7g1jkbNFOBs_18threadkit_loadtest11run_ws_test0s3_00B7_
FNDA:0,_RNCNCNCNvCs7g1jkbNFOBs_18threadkit_loadtest11run_ws_test0s6_0s1_0B7_
FNDA:0,_RNCNCNCNvCs7g1jkbNFOBs_18threadkit_loadtest11run_ws_test0s6_0s2_0B7_
FNDA:0,_RNCNCNCNvCs7g1jkbNFOBs_18threadkit_loadtest11run_ws_test0s6_0s_0B7_
FNDA:0,_RNCNCNCNvCs7g1jkbNFOBs_18threadkit_loadtest18run_ws_stress_test0s_00B7_
FNDA:0,_RNCNCNCNvCs7g1jkbNFOBs_18threadkit_loadtest18run_ws_stress_test0s_0s3_0B7_
FNDA:0,_RNCNCNvCs7g1jkbNFOBs_18threadkit_loadtest11run_ws_test00B5_
FNDA:0,_RNCNCNvCs7g1jkbNFOBs_18threadkit_loadtest11run_ws_test0s0_0B5_
FNDA:0,_RNCNCNvCs7g1jkbNFOBs_18threadkit_loadtest11run_ws_test0s1_0B5_
FNDA:0,_RNCNCNvCs7g1jkbNFOBs_18threadkit_loadtest11run_ws_test0s3_0B5_
FNDA:0,_RNCNCNvCs7g1jkbNFOBs_18threadkit_loadtest11run_ws_test0s4_0B5_
FNDA:0,_RNCNCNvCs7g1jkbNFOBs_18threadkit_loadtest11run_ws_test0s5_0B5_
FNDA:0,_RNCNCNvCs7g1jkbNFOBs_18threadkit_loadtest11run_ws_test0s6_0B5_
FNDA:0,_RNCNCNvCs7g1jkbNFOBs_18threadkit_loadtest11run_ws_test0s7_0B5_
FNDA:0,_RNCNCNvCs7g1jkbNFOBs_18threadkit_loadtest11run_ws_test0s_0B5_
FNDA:0,_RNCNCNvCs7g1jkbNFOBs_18threadkit_loadtest13run_auth_test00B5_
FNDA:0,_RNCNCNvCs7g1jkbNFOBs_18threadkit_loadtest13run_auth_test0s_0B5_
FNDA:0,_RNCNCNvCs7g1jkbNFOBs_18threadkit_loadtest13run_deep_test00B5_
FNDA:0,_RNCNCNvCs7g1jkbNFOBs_18threadkit_loadtest13run_read_test00B5_
FNDA:0,_RNCNCNvCs7g1jkbNFOBs_18threadkit_loadtest13run_read_test0s0_0B5_
FNDA:0,_RNCNCNvCs7g1jkbNFOBs_18threadkit_loadtest13run_read_test0s_0B5_
FNDA:0,_RNCNCNvCs7g1jkbNFOBs_18threadkit_loadtest13run_vote_test00B5_
FNDA:0,_RNCNCNvCs7g1jkbNFOBs_18threadkit_loadtest13run_vote_test0s_0B5_
FNDA:0,_RNCNCNvCs7g1jkbNFOBs_18threadkit_loadtest14run_bench_test00B5_
FNDA:0,_RNCNCNvCs7g1jkbNFOBs_18threadkit_loadtest14run_bench_test0s0_0B5_
FNDA:0,_RNCNCNvCs7g1jkbNFOBs_18threadkit_loadtest14run_bench_test0s1_0B5_
FNDA:0,_RNCNCNvCs7g1jkbNFOBs_18threadkit_loadtest14run_bench_test0s2_0B5_
FNDA:0,_RNCNCNvCs7g1jkbNFOBs_18threadkit_loadtest14run_bench_test0s3_0B5_
FNDA:0,_RNCNCNvCs7g1jkbNFOBs_18threadkit_loadtest14run_bench_test0s_0B5_
FNDA:0,_RNCNCNvCs7g1jkbNFOBs_18threadkit_loadtest14run_mixed_test00B5_
FNDA:0,_RNCNCNvCs7g1jkbNFOBs_18threadkit_loadtest14run_mixed_test0s_0B5_
FNDA:0,_RNCNCNvCs7g1jkbNFOBs_18threadkit_loadtest14run_write_test00B5_
FNDA:0,_RNCNCNvCs7g1jkbNFOBs_18threadkit_loadtest14run_write_test0s_0B5_
FNDA:0,_RNCNCNvCs7g1jkbNFOBs_18threadkit_loadtest15run_thread_test00B5_
FNDA:0,_RNCNCNvCs7g1jkbNFOBs_18threadkit_loadtest15run_thread_test0s_0B5_
FNDA:0,_RNCNCNvCs7g1jkbNFOBs_18threadkit_loadtest18run_ws_stress_test00B5_
FNDA:0,_RNCNCNvCs7g1jkbNFOBs_18threadkit_loadtest18run_ws_stress_test0s0_0B5_
FNDA:0,_RNCNCNvCs7g1jkbNFOBs_18threadkit_loadtest18run_ws_stress_test0s_0B5_
FNDA:0,_RNCNvCs7g1jkbNFOBs_18threadkit_loadtest11run_ws_test0B3_
FNDA:0,_RNCNvCs7g1jkbNFOBs_18threadkit_loadtest12run_teardown0B3_
FNDA:0,_RNCNvCs7g1jkbNFOBs_18threadkit_loadtest13run_auth_test0B3_
FNDA:0,_RNCNvCs7g1jkbNFOBs_18threadkit_loadtest13run_deep_test0B3_
FNDA:0,_RNCNvCs7g1jkbNFOBs_18threadkit_loadtest13run_read_test0B3_
FNDA:0,_RNCNvCs7g1jkbNFOBs_18threadkit_loadtest13run_vote_test0B3_
FNDA:0,_RNCNvCs7g1jkbNFOBs_18threadkit_loadtest14run_bench_test0B3_
FNDA:0,_RNCNvCs7g1jkbNFOBs_18threadkit_loadtest14run_mixed_test0B3_
FNDA:0,_RNCNvCs7g1jkbNFOBs_18threadkit_loadtest14run_write_test0B3_
FNDA:0,_RNCNvCs7g1jkbNFOBs_18threadkit_loadtest15run_thread_test0B3_
FNDA:0,_RNCNvCs7g1jkbNFOBs_18threadkit_loadtest18run_ws_stress_test0B3_
FNDA:0,_RNCNvCs7g1jkbNFOBs_18threadkit_loadtest19print_system_limits0B3_
FNDA:0,_RNCNvCs7g1jkbNFOBs_18threadkit_loadtest19print_system_limitss_0B3_
FNDA:0,_RNCNvCs7g1jkbNFOBs_18threadkit_loadtest4main0B3_
FNDA:0,_RNCNvCs7g1jkbNFOBs_18threadkit_loadtest9run_setup0B3_
FNDA:0,_RNvCs7g1jkbNFOBs_18threadkit_loadtest11print_stats
FNDA:0,_RNvCs7g1jkbNFOBs_18threadkit_loadtest11run_ws_test
FNDA:0,_RNvCs7g1jkbNFOBs_18threadkit_loadtest12run_teardown
FNDA:0,_RNvCs7g1jkbNFOBs_18threadkit_loadtest13run_auth_test
FNDA:0,_RNvCs7g1jkbNFOBs_18threadkit_loadtest13run_deep_test
FNDA:0,_RNvCs7g1jkbNFOBs_18threadkit_loadtest13run_read_test
FNDA:0,_RNvCs7g1jkbNFOBs_18threadkit_loadtest13run_vote_test
FNDA:0,_RNvCs7g1jkbNFOBs_18threadkit_loadtest14raise_fd_limit
FNDA:0,_RNvCs7g1jkbNFOBs_18threadkit_loadtest14run_bench_test
FNDA:0,_RNvCs7g1jkbNFOBs_18threadkit_loadtest14run_mixed_test
FNDA:0,_RNvCs7g1jkbNFOBs_18threadkit_loadtest14run_write_test
FNDA:0,_RNvCs7g1jkbNFOBs_18threadkit_loadtest15run_thread_test
FNDA:0,_RNvCs7g1jkbNFOBs_18threadkit_loadtest18run_ws_stress_test
FNDA:0,_RNvCs7g1jkbNFOBs_18threadkit_loadtest19print_system_limits
FNDA:0,_RNvCs7g1jkbNFOBs_18threadkit_loadtest4main
FNDA:0,_RNvCs7g1jkbNFOBs_18threadkit_loadtest9run_setup
FNDA:0,_RNvXCs7g1jkbNFOBs_18threadkit_loadtestNtB2_7WsStatsNtNtCs85QQFkKrybG_4core7default7Default7default
FNDA:0,_RNvXs_Cs7g1jkbNFOBs_18threadkit_loadtestNtB4_11StressStatsNtNtCs85QQFkKrybG_4core7default7Default7default
FNF:72
FNH:0
DA:26,0
DA:29,0
DA:30,0
DA:31,0
DA:32,0
DA:33,0
DA:35,0
DA:36,0
DA:38,0
DA:39,0
DA:40,0
DA:44,0
DA:45,0
DA:48,0
DA:49,0
DA:50,0
DA:53,0
DA:57,0
DA:61,0
DA:62,0
DA:63,0
DA:64,0
DA:65,0
DA:66,0
DA:68,0
DA:70,0
DA:71,0
DA:72,0
DA:75,0
DA:76,0
DA:77,0
DA:78,0
DA:79,0
DA:80,0
DA:82,0
DA:84,0
DA:85,0
DA:86,0
DA:89,0
DA:90,0
DA:91,0
DA:92,0
DA:93,0
DA:94,0
DA:95,0
DA:96,0
DA:97,0
DA:98,0
DA:100,0
DA:101,0
DA:102,0
DA:103,0
DA:104,0
DA:457,0
DA:458,0
DA:459,0
DA:460,0
DA:461,0
DA:463,0
DA:465,0
DA:466,0
DA:467,0
DA:468,0
DA:469,0
DA:470,0
DA:471,0
DA:472,0
DA:473,0
DA:474,0
DA:475,0
DA:476,0
DA:477,0
DA:478,0
DA:479,0
DA:480,0
DA:481,0
DA:482,0
DA:483,0
DA:484,0
DA:485,0
DA:486,0
DA:487,0
DA:488,0
DA:489,0
DA:490,0
DA:491,0
DA:492,0
DA:493,0
DA:494,0
DA:495,0
DA:496,0
DA:497,0
DA:498,0
DA:499,0
DA:500,0
DA:501,0
DA:502,0
DA:503,0
DA:504,0
DA:505,0
DA:506,0
DA:507,0
DA:508,0
DA:509,0
DA:510,0
DA:511,0
DA:512,0
DA:513,0
DA:514,0
DA:515,0
DA:516,0
DA:517,0
DA:518,0
DA:519,0
DA:520,0
DA:521,0
DA:522,0
DA:523,0
DA:524,0
DA:525,0
DA:526,0
DA:527,0
DA:528,0
DA:529,0
DA:530,0
DA:531,0
DA:532,0
DA:533,0
DA:534,0
DA:535,0
DA:536,0
DA:537,0
DA:538,0
DA:539,0
DA:540,0
DA:541,0
DA:542,0
DA:543,0
DA:544,0
DA:545,0
DA:546,0
DA:547,0
DA:548,0
DA:549,0
DA:550,0
DA:551,0
DA:552,0
DA:553,0
DA:554,0
DA:555,0
DA:556,0
DA:557,0
DA:558,0
DA:559,0
DA:560,0
DA:561,0
DA:562,0
DA:563,0
DA:564,0
DA:565,0
DA:566,0
DA:567,0
DA:568,0
DA:569,0
DA:570,0
DA:571,0
DA:572,0
DA:573,0
DA:574,0
DA:575,0
DA:576,0
DA:577,0
DA:578,0
DA:579,0
DA:580,0
DA:581,0
DA:582,0
DA:588,0
DA:589,0
DA:590,0
DA:591,0
DA:592,0
DA:593,0
DA:594,0
DA:595,0
DA:596,0
DA:597,0
DA:598,0
DA:599,0
DA:600,0
DA:602,0
DA:603,0
DA:604,0
DA:605,0
DA:608,0
DA:609,0
DA:610,0
DA:611,0
DA:612,0
DA:614,0
DA:615,0
DA:616,0
DA:617,0
DA:618,0
DA:620,0
DA:621,0
DA:622,0
DA:623,0
DA:624,0
DA:625,0
DA:626,0
DA:628,0
DA:629,0
DA:630,0
DA:631,0
DA:632,0
DA:633,0
DA:634,0
DA:635,0
DA:636,0
DA:637,0
DA:638,0
DA:639,0
DA:641,0
DA:642,0
DA:644,0
DA:645,0
DA:647,0
DA:652,0
DA:654,0
DA:655,0
DA:656,0
DA:659,0
DA:660,0
DA:661,0
DA:664,0
DA:665,0
DA:666,0
DA:670,0
DA:671,0
DA:672,0
DA:674,0
DA:676,0
DA:677,0
DA:678,0
DA:679,0
DA:680,0
DA:681,0
DA:682,0
DA:683,0
DA:684,0
DA:686,0
DA:687,0
DA:688,0
DA:689,0
DA:690,0
DA:691,0
DA:692,0
DA:694,0
DA:695,0
DA:696,0
DA:697,0
DA:698,0
DA:699,0
DA:701,0
DA:702,0
DA:703,0
DA:705,0
DA:706,0
DA:710,0
DA:711,0
DA:712,0
DA:716,0
DA:719,0
DA:720,0
DA:721,0
DA:722,0
DA:723,0
DA:725,0
DA:726,0
DA:728,0
DA:729,0
DA:730,0
DA:731,0
DA:733,0
DA:734,0
DA:740,0
DA:741,0
DA:742,0
DA:743,0
DA:744,0
DA:745,0
DA:746,0
DA:748,0
DA:750,0
DA:751,0
DA:752,0
DA:753,0
DA:754,0
DA:756,0
DA:758,0
DA:760,0
DA:763,0
DA:764,0
DA:765,0
DA:766,0
DA:768,0
DA:769,0
DA:775,0
DA:776,0
DA:777,0
DA:778,0
DA:779,0
DA:780,0
DA:781,0
DA:782,0
DA:783,0
DA:784,0
DA:785,0
DA:786,0
DA:787,0
DA:788,0
DA:789,0
DA:791,0
DA:796,0
DA:797,0
DA:798,0
DA:799,0
DA:801,0
DA:802,0
DA:805,0
DA:806,0
DA:807,0
DA:809,0
DA:810,0
DA:811,0
DA:812,0
DA:815,0
DA:816,0
DA:818,0
DA:821,0
DA:823,0
DA:824,0
DA:825,0
DA:826,0
DA:827,0
DA:828,0
DA:829,0
DA:831,0
DA:832,0
DA:834,0
DA:836,0
DA:837,0
DA:839,0
DA:843,0
DA:844,0
DA:845,0
DA:847,0
DA:850,0
DA:851,0
DA:853,0
DA:855,0
DA:856,0
DA:858,0
DA:859,0
DA:860,0
DA:861,0
DA:862,0
DA:863,0
DA:864,0
DA:865,0
DA:866,0
DA:868,0
DA:869,0
DA:870,0
DA:871,0
DA:872,0
DA:876,0
DA:880,0
DA:881,0
DA:882,0
DA:883,0
DA:885,0
DA:886,0
DA:889,0
DA:892,0
DA:893,0
DA:894,0
DA:896,0
DA:897,0
DA:898,0
DA:899,0
DA:900,0
DA:905,0
DA:906,0
DA:908,0
DA:910,0
DA:911,0
DA:912,0
DA:918,0
DA:919,0
DA:920,0
DA:921,0
DA:922,0
DA:923,0
DA:924,0
DA:925,0
DA:926,0
DA:927,0
DA:928,0
DA:931,0
DA:932,0
DA:933,0
DA:935,0
DA:936,0
DA:937,0
DA:939,0
DA:940,0
DA:942,0
DA:943,0
DA:944,0
DA:946,0
DA:947,0
DA:948,0
DA:949,0
DA:950,0
DA:952,0
DA:954,0
DA:955,0
DA:956,0
DA:957,0
DA:958,0
DA:959,0
DA:960,0
DA:962,0
DA:963,0
DA:964,0
DA:966,0
DA:968,0
DA:969,0
DA:971,0
DA:972,0
DA:973,0
DA:974,0
DA:975,0
DA:976,0
DA:977,0
DA:978,0
DA:979,0
DA:981,0
DA:982,0
DA:984,0
DA:985,0
DA:986,0
DA:987,0
DA:988,0
DA:989,0
DA:990,0
DA:992,0
DA:993,0
DA:995,0
DA:996,0
DA:997,0
DA:998,0
DA:999,0
DA:1000,0
DA:1001,0
DA:1002,0
DA:1003,0
DA:1005,0
DA:1006,0
DA:1007,0
DA:1008,0
DA:1009,0
DA:1013,0
DA:1015,0
DA:1019,0
DA:1020,0
DA:1021,0
DA:1023,0
DA:1024,0
DA:1025,0
DA:1026,0
DA:1027,0
DA:1032,0
DA:1033,0
DA:1035,0
DA:1037,0
DA:1038,0
DA:1039,0
DA:1045,0
DA:1046,0
DA:1047,0
DA:1048,0
DA:1049,0
DA:1050,0
DA:1051,0
DA:1052,0
DA:1053,0
DA:1054,0
DA:1055,0
DA:1056,0
DA:1057,0
DA:1060,0
DA:1061,0
DA:1062,0
DA:1064,0
DA:1065,0
DA:1066,0
DA:1068,0
DA:1069,0
DA:1070,0
DA:1072,0
DA:1073,0
DA:1074,0
DA:1075,0
DA:1076,0
DA:1078,0
DA:1080,0
DA:1081,0
DA:1082,0
DA:1083,0
DA:1084,0
DA:1085,0
DA:1086,0
DA:1088,0
DA:1089,0
DA:1090,0
DA:1092,0
DA:1093,0
DA:1094,0
DA:1095,0
DA:1097,0
DA:1098,0
DA:1100,0
DA:1101,0
DA:1102,0
DA:1103,0
DA:1104,0
DA:1105,0
DA:1106,0
DA:1108,0
DA:1109,0
DA:1110,0
DA:1111,0
DA:1112,0
DA:1113,0
DA:1114,0
DA:1116,0
DA:1117,0
DA:1119,0
DA:1121,0
DA:1124,0
DA:1125,0
DA:1127,0
DA:1128,0
DA:1129,0
DA:1130,0
DA:1131,0
DA:1132,0
DA:1133,0
DA:1134,0
DA:1135,0
DA:1137,0
DA:1138,0
DA:1139,0
DA:1143,0
DA:1145,0
DA:1149,0
DA:1150,0
DA:1151,0
DA:1153,0
DA:1154,0
DA:1155,0
DA:1156,0
DA:1157,0
DA:1162,0
DA:1163,0
DA:1165,0
DA:1167,0
DA:1168,0
DA:1169,0
DA:1190,0
DA:1191,0
DA:1192,0
DA:1193,0
DA:1194,0
DA:1195,0
DA:1196,0
DA:1197,0
DA:1198,0
DA:1199,0
DA:1200,0
DA:1201,0
DA:1202,0
DA:1203,0
DA:1206,0
DA:1207,0
DA:1208,0
DA:1209,0
DA:1210,0
DA:1211,0
DA:1212,0
DA:1213,0
DA:1214,0
DA:1215,0
DA:1216,0
DA:1217,0
DA:1218,0
DA:1219,0
DA:1220,0
DA:1221,0
DA:1222,0
DA:1225,0
DA:1226,0
DA:1227,0
DA:1228,0
DA:1229,0
DA:1230,0
DA:1231,0
DA:1232,0
DA:1234,0
DA:1238,0
DA:1239,0
DA:1240,0
DA:1241,0
DA:1242,0
DA:1243,0
DA:1244,0
DA:1245,0
DA:1246,0
DA:1247,0
DA:1249,0
DA:1250,0
DA:1251,0
DA:1253,0
DA:1255,0
DA:1256,0
DA:1257,0
DA:1258,0
DA:1260,0
DA:1262,0
DA:1263,0
DA:1264,0
DA:1265,0
DA:1268,0
DA:1269,0
DA:1270,0
DA:1272,0
DA:1275,0
DA:1279,0
DA:1281,0
DA:1282,0
DA:1283,0
DA:1284,0
DA:1285,0
DA:1286,0
DA:1287,0
DA:1291,0
DA:1294,0
DA:1295,0
DA:1296,0
DA:1299,0
DA:1300,0
DA:1301,0
DA:1302,0
DA:1303,0
DA:1306,0
DA:1307,0
DA:1308,0
DA:1309,0
DA:1310,0
DA:1311,0
DA:1314,0
DA:1315,0
DA:1316,0
DA:1318,0
DA:1321,0
DA:1323,0
DA:1324,0
DA:1326,0
DA:1327,0
DA:1328,0
DA:1329,0
DA:1331,0
DA:1332,0
DA:1333,0
DA:1334,0
DA:1335,0
DA:1336,0
DA:1337,0
DA:1342,0
DA:1343,0
DA:1344,0
DA:1346,0
DA:1348,0
DA:1350,0
DA:1351,0
DA:1353,0
DA:1356,0
DA:1357,0
DA:1358,0
DA:1359,0
DA:1360,0
DA:1361,0
DA:1364,0
DA:1365,0
DA:1366,0
DA:1367,0
DA:1368,0
DA:1369,0
DA:1370,0
DA:1375,0
DA:1376,0
DA:1377,0
DA:1378,0
DA:1381,0
DA:1382,0
DA:1383,0
DA:1384,0
DA:1385,0
DA:1386,0
DA:1387,0
DA:1388,0
DA:1390,0
DA:1391,0
DA:1392,0
DA:1393,0
DA:1394,0
DA:1395,0
DA:1396,0
DA:1397,0
DA:1399,0
DA:1401,0
DA:1403,0
DA:1404,0
DA:1406,0
DA:1407,0
DA:1408,0
DA:1409,0
DA:1410,0
DA:1411,0
DA:1413,0
DA:1420,0
DA:1421,0
DA:1422,0
DA:1423,0
DA:1424,0
DA:1427,0
DA:1428,0
DA:1429,0
DA:1431,0
DA:1432,0
DA:1436,0
DA:1437,0
DA:1438,0
DA:1439,0
DA:1441,0
DA:1442,0
DA:1443,0
DA:1444,0
DA:1445,0
DA:1446,0
DA:1447,0
DA:1448,0
DA:1449,0
DA:1450,0
DA:1451,0
DA:1453,0
DA:1463,0
DA:1464,0
DA:1466,0
DA:1469,0
DA:1470,0
DA:1471,0
DA:1472,0
DA:1473,0
DA:1474,0
DA:1475,0
DA:1476,0
DA:1477,0
DA:1478,0
DA:1479,0
DA:1481,0
DA:1482,0
DA:1483,0
DA:1484,0
DA:1485,0
DA:1486,0
DA:1487,0
DA:1488,0
DA:1489,0
DA:1490,0
DA:1491,0
DA:1492,0
DA:1493,0
DA:1494,0
DA:1495,0
DA:1496,0
DA:1497,0
DA:1498,0
DA:1499,0
DA:1500,0
DA:1501,0
DA:1503,0
DA:1504,0
DA:1510,0
DA:1511,0
DA:1512,0
DA:1513,0
DA:1514,0
DA:1515,0
DA:1516,0
DA:1518,0
DA:1521,0
DA:1522,0
DA:1523,0
DA:1524,0
DA:1525,0
DA:1526,0
DA:1527,0
DA:1528,0
DA:1530,0
DA:1531,0
DA:1532,0
DA:1533,0
DA:1534,0
DA:1535,0
DA:1536,0
DA:1537,0
DA:1543,0
DA:1544,0
DA:1545,0
DA:1546,0
DA:1547,0
DA:1548,0
DA:1549,0
DA:1550,0
DA:1551,0
DA:1552,0
DA:1553,0
DA:1554,0
DA:1555,0
DA:1556,0
DA:1558,0
DA:1559,0
DA:1562,0
DA:1563,0
DA:1565,0
DA:1566,0
DA:1567,0
DA:1568,0
DA:1570,0
DA:1571,0
DA:1572,0
DA:1573,0
DA:1574,0
DA:1576,0
DA:1577,0
DA:1578,0
DA:1579,0
DA:1580,0
DA:1581,0
DA:1583,0
DA:1584,0
DA:1585,0
DA:1586,0
DA:1587,0
DA:1588,0
DA:1589,0
DA:1590,0
DA:1591,0
DA:1592,0
DA:1593,0
DA:1595,0
DA:1598,0
DA:1599,0
DA:1600,0
DA:1603,0
DA:1605,0
DA:1606,0
DA:1607,0
DA:1610,0
DA:1611,0
DA:1613,0
DA:1614,0
DA:1615,0
DA:1616,0
DA:1619,0
DA:1620,0
DA:1622,0
DA:1623,0
DA:1624,0
DA:1625,0
DA:1626,0
DA:1627,0
DA:1628,0
DA:1629,0
DA:1631,0
DA:1632,0
DA:1634,0
DA:1635,0
DA:1641,0
DA:1642,0
DA:1643,0
DA:1644,0
DA:1645,0
DA:1646,0
DA:1647,0
DA:1648,0
DA:1649,0
DA:1651,0
DA:1653,0
DA:1654,0
DA:1655,0
DA:1656,0
DA:1657,0
DA:1658,0
DA:1659,0
DA:1661,0
DA:1662,0
DA:1663,0
DA:1664,0
DA:1665,0
DA:1666,0
DA:1668,0
DA:1669,0
DA:1670,0
DA:1673,0
DA:1677,0
DA:1678,0
DA:1679,0
DA:1681,0
DA:1682,0
DA:1683,0
DA:1684,0
DA:1685,0
DA:1686,0
DA:1694,0
DA:1695,0
DA:1697,0
DA:1699,0
DA:1700,0
DA:1702,0
DA:1703,0
DA:1704,0
DA:1705,0
DA:1706,0
DA:1707,0
DA:1708,0
DA:1710,0
DA:1712,0
DA:1713,0
DA:1719,0
DA:1720,0
DA:1721,0
DA:1722,0
DA:1723,0
DA:1724,0
DA:1725,0
DA:1726,0
DA:1727,0
DA:1728,0
DA:1730,0
DA:1733,0
DA:1734,0
DA:1735,0
DA:1736,0
DA:1738,0
DA:1739,0
DA:1740,0
DA:1741,0
DA:1742,0
DA:1744,0
DA:1745,0
DA:1746,0
DA:1747,0
DA:1748,0
DA:1749,0
DA:1750,0
DA:1752,0
DA:1753,0
DA:1754,0
DA:1756,0
DA:1759,0
DA:1761,0
DA:1762,0
DA:1764,0
DA:1765,0
DA:1766,0
DA:1767,0
DA:1768,0
DA:1770,0
DA:1771,0
DA:1772,0
DA:1773,0
DA:1775,0
DA:1776,0
DA:1777,0
DA:1778,0
DA:1779,0
DA:1780,0
DA:1781,0
DA:1782,0
DA:1783,0
DA:1784,0
DA:1786,0
DA:1787,0
DA:1788,0
DA:1789,0
DA:1790,0
DA:1791,0
DA:1792,0
DA:1794,0
DA:1795,0
DA:1796,0
DA:1797,0
DA:1798,0
DA:1799,0
DA:1800,0
DA:1802,0
DA:1803,0
DA:1804,0
DA:1805,0
DA:1806,0
DA:1812,0
DA:1814,0
DA:1815,0
DA:1816,0
DA:1820,0
DA:1821,0
DA:1822,0
DA:1825,0
DA:1826,0
DA:1829,0
DA:1830,0
DA:1831,0
DA:1832,0
DA:1833,0
DA:1836,0
DA:1838,0
DA:1839,0
DA:1840,0
DA:1841,0
DA:1842,0
DA:1843,0
DA:1844,0
DA:1845,0
DA:1849,0
DA:1850,0
DA:1852,0
DA:1853,0
DA:1854,0
DA:1855,0
DA:1856,0
DA:1857,0
DA:1858,0
DA:1859,0
DA:1860,0
DA:1861,0
DA:1863,0
DA:1864,0
DA:1866,0
DA:1867,0
DA:1873,0
DA:1874,0
DA:1875,0
DA:1876,0
DA:1877,0
DA:1878,0
DA:1879,0
DA:1880,0
DA:1881,0
DA:1882,0
DA:1883,0
DA:1886,0
DA:1887,0
DA:1888,0
DA:1890,0
DA:1891,0
DA:1892,0
DA:1894,0
DA:1895,0
DA:1897,0
DA:1898,0
DA:1899,0
DA:1901,0
DA:1902,0
DA:1903,0
DA:1904,0
DA:1905,0
DA:1906,0
DA:1908,0
DA:1910,0
DA:1911,0
DA:1912,0
DA:1913,0
DA:1914,0
DA:1915,0
DA:1916,0
DA:1917,0
DA:1919,0
DA:1920,0
DA:1922,0
DA:1924,0
DA:1925,0
DA:1926,0
DA:1927,0
DA:1929,0
DA:1930,0
DA:1931,0
DA:1934,0
DA:1935,0
DA:1937,0
DA:1938,0
DA:1939,0
DA:1940,0
DA:1941,0
DA:1942,0
DA:1943,0
DA:1945,0
DA:1946,0
DA:1948,0
DA:1949,0
DA:1950,0
DA:1951,0
DA:1952,0
DA:1953,0
DA:1954,0
DA:1955,0
DA:1956,0
DA:1958,0
DA:1959,0
DA:1960,0
DA:1961,0
DA:1962,0
DA:1966,0
DA:1970,0
DA:1971,0
DA:1972,0
DA:1974,0
DA:1975,0
DA:1976,0
DA:1977,0
DA:1978,0
DA:1982,0
DA:1983,0
DA:1985,0
DA:1987,0
DA:1988,0
DA:1989,0
DA:1995,0
DA:1996,0
DA:1997,0
DA:1998,0
DA:1999,0
DA:2000,0
DA:2001,0
DA:2002,0
DA:2003,0
DA:2004,0
DA:2006,0
DA:2007,0
DA:2008,0
DA:2010,0
DA:2011,0
DA:2012,0
DA:2014,0
DA:2016,0
DA:2017,0
DA:2018,0
DA:2019,0
DA:2020,0
DA:2022,0
DA:2023,0
DA:2024,0
DA:2026,0
DA:2028,0
DA:2030,0
DA:2031,0
DA:2033,0
DA:2035,0
DA:2036,0
DA:2037,0
DA:2038,0
DA:2039,0
DA:2040,0
DA:2042,0
DA:2043,0
DA:2044,0
DA:2045,0
DA:2046,0
DA:2047,0
DA:2050,0
DA:2051,0
DA:2052,0
DA:2055,0
DA:2056,0
DA:2057,0
DA:2058,0
DA:2059,0
DA:2060,0
DA:2063,0
DA:2064,0
DA:2066,0
DA:2067,0
DA:2068,0
DA:2069,0
DA:2070,0
DA:2071,0
DA:2072,0
DA:2073,0
DA:2074,0
DA:2075,0
DA:2076,0
DA:2077,0
DA:2078,0
DA:2082,0
DA:2084,0
DA:2088,0
DA:2089,0
DA:2090,0
DA:2092,0
DA:2093,0
DA:2094,0
DA:2095,0
DA:2096,0
DA:2100,0
DA:2101,0
DA:2103,0
DA:2105,0
DA:2106,0
DA:2107,0
DA:2113,0
DA:2114,0
DA:2115,0
DA:2116,0
DA:2117,0
DA:2118,0
DA:2119,0
DA:2120,0
DA:2121,0
DA:2122,0
DA:2123,0
DA:2124,0
DA:2125,0
DA:2128,0
DA:2129,0
DA:2130,0
DA:2132,0
DA:2133,0
DA:2134,0
DA:2135,0
DA:2137,0
DA:2138,0
DA:2139,0
DA:2140,0
DA:2142,0
DA:2143,0
DA:2144,0
DA:2146,0
DA:2147,0
DA:2148,0
DA:2150,0
DA:2151,0
DA:2153,0
DA:2154,0
DA:2156,0
DA:2157,0
DA:2158,0
DA:2160,0
DA:2162,0
DA:2163,0
DA:2164,0
DA:2165,0
DA:2166,0
DA:2167,0
DA:2168,0
DA:2169,0
DA:2170,0
DA:2171,0
DA:2173,0
DA:2174,0
DA:2175,0
DA:2177,0
DA:2178,0
DA:2180,0
DA:2182,0
DA:2183,0
DA:2184,0
DA:2185,0
DA:2187,0
DA:2189,0
DA:2191,0
DA:2192,0
DA:2193,0
DA:2194,0
DA:2195,0
DA:2196,0
DA:2197,0
DA:2198,0
DA:2199,0
DA:2200,0
DA:2201,0
DA:2202,0
DA:2203,0
DA:2204,0
DA:2205,0
DA:2209,0
DA:2210,0
DA:2211,0
DA:2213,0
DA:2215,0
DA:2217,0
DA:2218,0
DA:2219,0
DA:2220,0
DA:2221,0
DA:2222,0
DA:2223,0
DA:2224,0
DA:2225,0
DA:2226,0
DA:2227,0
DA:2228,0
DA:2229,0
DA:2230,0
DA:2235,0
DA:2236,0
DA:2238,0
DA:2239,0
DA:2240,0
DA:2241,0
DA:2242,0
DA:2243,0
DA:2244,0
DA:2245,0
DA:2246,0
DA:2247,0
DA:2252,0
DA:2253,0
DA:2257,0
DA:2258,0
DA:2259,0
DA:2260,0
DA:2262,0
DA:2263,0
DA:2264,0
DA:2268,0
DA:2269,0
DA:2271,0
DA:2273,0
DA:2276,0
DA:2277,0
DA:2279,0
DA:2280,0
DA:2281,0
DA:2282,0
DA:2283,0
DA:2284,0
DA:2285,0
DA:2286,0
DA:2288,0
DA:2291,0
DA:2292,0
DA:2293,0
DA:2295,0
DA:2296,0
DA:2297,0
DA:2298,0
DA:2299,0
DA:2300,0
DA:2301,0
DA:2302,0
DA:2303,0
DA:2304,0
DA:2305,0
DA:2306,0
DA:2307,0
DA:2308,0
DA:2309,0
DA:2310,0
DA:2311,0
DA:2312,0
DA:2313,0
DA:2314,0
DA:2315,0
DA:2317,0
DA:2318,0
DA:2336,0
DA:2337,0
DA:2338,0
DA:2339,0
DA:2340,0
DA:2341,0
DA:2342,0
DA:2343,0
DA:2344,0
DA:2345,0
DA:2346,0
DA:2349,0
DA:2350,0
DA:2351,0
DA:2352,0
DA:2353,0
DA:2354,0
DA:2355,0
DA:2356,0
DA:2357,0
DA:2358,0
DA:2359,0
DA:2360,0
DA:2361,0
DA:2362,0
DA:2363,0
DA:2364,0
DA:2365,0
DA:2366,0
DA:2367,0
DA:2368,0
DA:2370,0
DA:2371,0
DA:2374,0
DA:2377,0
DA:2378,0
DA:2381,0
DA:2384,0
DA:2387,0
DA:2388,0
DA:2389,0
DA:2392,0
DA:2394,0
DA:2396,0
DA:2399,0
DA:2400,0
DA:2401,0
DA:2403,0
DA:2404,0
DA:2405,0
DA:2406,0
DA:2407,0
DA:2408,0
DA:2409,0
DA:2410,0
DA:2412,0
DA:2414,0
DA:2417,0
DA:2418,0
DA:2419,0
DA:2421,0
DA:2426,0
DA:2429,0
DA:2430,0
DA:2431,0
DA:2434,0
DA:2435,0
DA:2438,0
DA:2439,0
DA:2440,0
DA:2442,0
DA:2443,0
DA:2444,0
DA:2447,0
DA:2448,0
DA:2449,0
DA:2450,0
DA:2456,0
DA:2459,0
DA:2460,0
DA:2461,0
DA:2462,0
DA:2463,0
DA:2464,0
DA:2465,0
DA:2468,0
DA:2470,0
DA:2471,0
DA:2472,0
DA:2473,0
DA:2474,0
DA:2475,0
DA:2478,0
DA:2479,0
DA:2480,0
DA:2484,0
DA:2487,0
DA:2490,0
DA:2491,0
DA:2492,0
DA:2493,0
DA:2495,0
DA:2496,0
DA:2497,0
DA:2498,0
DA:2499,0
DA:2502,0
DA:2503,0
DA:2506,0
DA:2508,0
DA:2509,0
DA:2513,0
DA:2514,0
DA:2515,0
DA:2516,0
DA:2518,0
DA:2519,0
DA:2520,0
DA:2521,0
DA:2522,0
DA:2523,0
DA:2524,0
DA:2525,0
DA:2529,0
DA:2530,0
DA:2531,0
DA:2533,0
DA:2535,0
DA:2536,0
DA:2537,0
DA:2538,0
DA:2539,0
DA:2540,0
DA:2541,0
DA:2544,0
DA:2545,0
DA:2546,0
DA:2547,0
DA:2548,0
DA:2549,0
DA:2550,0
DA:2551,0
DA:2555,0
DA:2556,0
DA:2557,0
DA:2558,0
DA:2559,0
DA:2560,0
DA:2561,0
DA:2563,0
DA:2564,0
DA:2565,0
DA:2566,0
DA:2567,0
DA:2568,0
DA:2569,0
DA:2572,0
DA:2573,0
DA:2574,0
DA:2582,0
DA:2583,0
DA:2584,0
DA:2587,0
DA:2590,0
DA:2591,0
DA:2592,0
DA:2593,0
DA:2594,0
DA:2596,0
DA:2597,0
DA:2602,0
DA:2603,0
DA:2604,0
DA:2605,0
DA:2606,0
DA:2607,0
DA:2610,0
DA:2611,0
DA:2614,0
DA:2615,0
DA:2617,0
DA:2618,0
DA:2619,0
DA:2620,0
DA:2621,0
DA:2622,0
DA:2624,0
DA:2625,0
DA:2626,0
DA:2630,0
DA:2631,0
DA:2632,0
DA:2633,0
DA:2637,0
DA:2638,0
DA:2641,0
DA:2642,0
DA:2643,0
DA:2644,0
DA:2646,0
DA:2649,0
DA:2650,0
DA:2651,0
DA:2652,0
DA:2653,0
DA:2654,0
DA:2655,0
DA:2656,0
DA:2658,0
DA:2659,0
DA:2660,0
DA:2661,0
DA:2662,0
DA:2663,0
DA:2664,0
DA:2665,0
DA:2666,0
DA:2667,0
DA:2668,0
DA:2669,0
DA:2670,0
DA:2671,0
DA:2672,0
DA:2673,0
DA:2674,0
DA:2675,0
DA:2676,0
DA:2677,0
DA:2680,0
DA:2681,0
DA:2682,0
DA:2683,0
DA:2684,0
DA:2685,0
DA:2686,0
DA:2687,0
DA:2688,0
DA:2690,0
DA:2691,0
BRF:0
BRH:0
LF:1762
LH:0
end_of_record
SF:/Users/jt/code/threadkit/server/crates/websocket/src/batcher.rs
FN:263,_RNvMNtCsbuQPXyPdc1s_19threadkit_websocket7batcherNtB2_12RedisBatcher12drain_typing
FN:168,_RNvMNtCsbuQPXyPdc1s_19threadkit_websocket7batcherNtB2_12RedisBatcher12get_presence
